
xbee.elf:     file format elf32-avr

Sections:
Idx Name          Size      VMA       LMA       File off  Algn
  0 .data         0000016e  00800200  00004cea  00004d7e  2**0
                  CONTENTS, ALLOC, LOAD, DATA
  1 .text         00004cea  00000000  00000000  00000094  2**1
                  CONTENTS, ALLOC, LOAD, READONLY, CODE
  2 .bss          000000f6  0080036e  0080036e  00004eec  2**0
                  ALLOC
  3 .debug_aranges 00000020  00000000  00000000  00004eec  2**0
                  CONTENTS, READONLY, DEBUGGING
  4 .debug_pubnames 0000053d  00000000  00000000  00004f0c  2**0
                  CONTENTS, READONLY, DEBUGGING
  5 .debug_info   000012fb  00000000  00000000  00005449  2**0
                  CONTENTS, READONLY, DEBUGGING
  6 .debug_abbrev 00000281  00000000  00000000  00006744  2**0
                  CONTENTS, READONLY, DEBUGGING
  7 .debug_line   00001f6c  00000000  00000000  000069c5  2**0
                  CONTENTS, READONLY, DEBUGGING
  8 .debug_frame  000003f0  00000000  00000000  00008934  2**2
                  CONTENTS, READONLY, DEBUGGING
  9 .debug_str    00000557  00000000  00000000  00008d24  2**0
                  CONTENTS, READONLY, DEBUGGING

Disassembly of section .text:

00000000 <__vectors>:
       0:	0c 94 72 00 	jmp	0xe4	; 0xe4 <__ctors_end>
       4:	0c 94 93 00 	jmp	0x126	; 0x126 <__bad_interrupt>
       8:	0c 94 93 00 	jmp	0x126	; 0x126 <__bad_interrupt>
       c:	0c 94 93 00 	jmp	0x126	; 0x126 <__bad_interrupt>
      10:	0c 94 93 00 	jmp	0x126	; 0x126 <__bad_interrupt>
      14:	0c 94 47 0f 	jmp	0x1e8e	; 0x1e8e <__vector_5>
      18:	0c 94 72 0f 	jmp	0x1ee4	; 0x1ee4 <__vector_6>
      1c:	0c 94 93 00 	jmp	0x126	; 0x126 <__bad_interrupt>
      20:	0c 94 93 00 	jmp	0x126	; 0x126 <__bad_interrupt>
      24:	0c 94 93 00 	jmp	0x126	; 0x126 <__bad_interrupt>
      28:	0c 94 93 00 	jmp	0x126	; 0x126 <__bad_interrupt>
      2c:	0c 94 93 00 	jmp	0x126	; 0x126 <__bad_interrupt>
      30:	0c 94 93 00 	jmp	0x126	; 0x126 <__bad_interrupt>
      34:	0c 94 93 00 	jmp	0x126	; 0x126 <__bad_interrupt>
      38:	0c 94 93 00 	jmp	0x126	; 0x126 <__bad_interrupt>
      3c:	0c 94 93 00 	jmp	0x126	; 0x126 <__bad_interrupt>
      40:	0c 94 93 00 	jmp	0x126	; 0x126 <__bad_interrupt>
      44:	0c 94 93 00 	jmp	0x126	; 0x126 <__bad_interrupt>
      48:	0c 94 93 00 	jmp	0x126	; 0x126 <__bad_interrupt>
      4c:	0c 94 93 00 	jmp	0x126	; 0x126 <__bad_interrupt>
      50:	0c 94 93 00 	jmp	0x126	; 0x126 <__bad_interrupt>
      54:	0c 94 93 00 	jmp	0x126	; 0x126 <__bad_interrupt>
      58:	0c 94 93 00 	jmp	0x126	; 0x126 <__bad_interrupt>
      5c:	0c 94 93 00 	jmp	0x126	; 0x126 <__bad_interrupt>
      60:	0c 94 93 00 	jmp	0x126	; 0x126 <__bad_interrupt>
      64:	0c 94 4e 16 	jmp	0x2c9c	; 0x2c9c <__vector_25>
      68:	0c 94 93 00 	jmp	0x126	; 0x126 <__bad_interrupt>
      6c:	0c 94 93 00 	jmp	0x126	; 0x126 <__bad_interrupt>
      70:	0c 94 93 00 	jmp	0x126	; 0x126 <__bad_interrupt>
      74:	0c 94 93 00 	jmp	0x126	; 0x126 <__bad_interrupt>
      78:	0c 94 93 00 	jmp	0x126	; 0x126 <__bad_interrupt>
      7c:	0c 94 93 00 	jmp	0x126	; 0x126 <__bad_interrupt>
      80:	0c 94 93 00 	jmp	0x126	; 0x126 <__bad_interrupt>
      84:	0c 94 93 00 	jmp	0x126	; 0x126 <__bad_interrupt>
      88:	0c 94 93 00 	jmp	0x126	; 0x126 <__bad_interrupt>
      8c:	0c 94 93 00 	jmp	0x126	; 0x126 <__bad_interrupt>
      90:	0c 94 93 00 	jmp	0x126	; 0x126 <__bad_interrupt>
      94:	0c 94 93 00 	jmp	0x126	; 0x126 <__bad_interrupt>
      98:	0c 94 93 00 	jmp	0x126	; 0x126 <__bad_interrupt>
      9c:	0c 94 93 00 	jmp	0x126	; 0x126 <__bad_interrupt>
      a0:	0c 94 93 00 	jmp	0x126	; 0x126 <__bad_interrupt>
      a4:	0c 94 93 00 	jmp	0x126	; 0x126 <__bad_interrupt>
      a8:	0c 94 93 00 	jmp	0x126	; 0x126 <__bad_interrupt>
      ac:	0c 94 93 00 	jmp	0x126	; 0x126 <__bad_interrupt>
      b0:	0c 94 93 00 	jmp	0x126	; 0x126 <__bad_interrupt>
      b4:	0c 94 93 00 	jmp	0x126	; 0x126 <__bad_interrupt>
      b8:	0c 94 93 00 	jmp	0x126	; 0x126 <__bad_interrupt>
      bc:	0c 94 93 00 	jmp	0x126	; 0x126 <__bad_interrupt>
      c0:	0c 94 93 00 	jmp	0x126	; 0x126 <__bad_interrupt>
      c4:	0c 94 93 00 	jmp	0x126	; 0x126 <__bad_interrupt>
      c8:	0c 94 93 00 	jmp	0x126	; 0x126 <__bad_interrupt>
      cc:	0c 94 93 00 	jmp	0x126	; 0x126 <__bad_interrupt>
      d0:	0c 94 93 00 	jmp	0x126	; 0x126 <__bad_interrupt>
      d4:	0c 94 93 00 	jmp	0x126	; 0x126 <__bad_interrupt>
      d8:	0c 94 93 00 	jmp	0x126	; 0x126 <__bad_interrupt>
      dc:	0c 94 93 00 	jmp	0x126	; 0x126 <__bad_interrupt>
      e0:	0c 94 93 00 	jmp	0x126	; 0x126 <__bad_interrupt>

000000e4 <__ctors_end>:
      e4:	11 24       	eor	r1, r1
      e6:	1f be       	out	0x3f, r1	; 63
      e8:	cf ef       	ldi	r28, 0xFF	; 255
      ea:	d1 e2       	ldi	r29, 0x21	; 33
      ec:	de bf       	out	0x3e, r29	; 62
      ee:	cd bf       	out	0x3d, r28	; 61
      f0:	00 e0       	ldi	r16, 0x00	; 0
      f2:	0c bf       	out	0x3c, r16	; 60

000000f4 <__do_copy_data>:
      f4:	13 e0       	ldi	r17, 0x03	; 3
      f6:	a0 e0       	ldi	r26, 0x00	; 0
      f8:	b2 e0       	ldi	r27, 0x02	; 2
      fa:	ea ee       	ldi	r30, 0xEA	; 234
      fc:	fc e4       	ldi	r31, 0x4C	; 76
      fe:	00 e0       	ldi	r16, 0x00	; 0
     100:	0b bf       	out	0x3b, r16	; 59
     102:	02 c0       	rjmp	.+4      	; 0x108 <__do_copy_data+0x14>
     104:	07 90       	elpm	r0, Z+
     106:	0d 92       	st	X+, r0
     108:	ae 36       	cpi	r26, 0x6E	; 110
     10a:	b1 07       	cpc	r27, r17
     10c:	d9 f7       	brne	.-10     	; 0x104 <__do_copy_data+0x10>

0000010e <__do_clear_bss>:
     10e:	14 e0       	ldi	r17, 0x04	; 4
     110:	ae e6       	ldi	r26, 0x6E	; 110
     112:	b3 e0       	ldi	r27, 0x03	; 3
     114:	01 c0       	rjmp	.+2      	; 0x118 <.do_clear_bss_start>

00000116 <.do_clear_bss_loop>:
     116:	1d 92       	st	X+, r1

00000118 <.do_clear_bss_start>:
     118:	a4 36       	cpi	r26, 0x64	; 100
     11a:	b1 07       	cpc	r27, r17
     11c:	e1 f7       	brne	.-8      	; 0x116 <.do_clear_bss_loop>
     11e:	0e 94 3a 17 	call	0x2e74	; 0x2e74 <main>
     122:	0c 94 73 26 	jmp	0x4ce6	; 0x4ce6 <_exit>

00000126 <__bad_interrupt>:
     126:	0c 94 00 00 	jmp	0	; 0x0 <__vectors>

0000012a <lcd_port_config>:
unsigned int thousand;
unsigned int million;

//Function to configure LCD port
void lcd_port_config (void)
{
     12a:	df 93       	push	r29
     12c:	cf 93       	push	r28
     12e:	cd b7       	in	r28, 0x3d	; 61
     130:	de b7       	in	r29, 0x3e	; 62
 DDRC = DDRC | 0xF7; //all the LCD pin's direction set as output
     132:	a7 e2       	ldi	r26, 0x27	; 39
     134:	b0 e0       	ldi	r27, 0x00	; 0
     136:	e7 e2       	ldi	r30, 0x27	; 39
     138:	f0 e0       	ldi	r31, 0x00	; 0
     13a:	80 81       	ld	r24, Z
     13c:	87 6f       	ori	r24, 0xF7	; 247
     13e:	8c 93       	st	X, r24
 PORTC = PORTC & 0x80; // all the LCD pins are set to logic 0 except PORTC 7
     140:	a8 e2       	ldi	r26, 0x28	; 40
     142:	b0 e0       	ldi	r27, 0x00	; 0
     144:	e8 e2       	ldi	r30, 0x28	; 40
     146:	f0 e0       	ldi	r31, 0x00	; 0
     148:	80 81       	ld	r24, Z
     14a:	80 78       	andi	r24, 0x80	; 128
     14c:	8c 93       	st	X, r24
}
     14e:	cf 91       	pop	r28
     150:	df 91       	pop	r29
     152:	08 95       	ret

00000154 <lcd_set_4bit>:



//Function to Reset LCD
void lcd_set_4bit()
{
     154:	0f 93       	push	r16
     156:	1f 93       	push	r17
     158:	df 93       	push	r29
     15a:	cf 93       	push	r28
     15c:	cd b7       	in	r28, 0x3d	; 61
     15e:	de b7       	in	r29, 0x3e	; 62
     160:	c0 57       	subi	r28, 0x70	; 112
     162:	d0 40       	sbci	r29, 0x00	; 0
     164:	0f b6       	in	r0, 0x3f	; 63
     166:	f8 94       	cli
     168:	de bf       	out	0x3e, r29	; 62
     16a:	0f be       	out	0x3f, r0	; 63
     16c:	cd bf       	out	0x3d, r28	; 61
     16e:	fe 01       	movw	r30, r28
     170:	e3 59       	subi	r30, 0x93	; 147
     172:	ff 4f       	sbci	r31, 0xFF	; 255
     174:	80 e0       	ldi	r24, 0x00	; 0
     176:	90 e0       	ldi	r25, 0x00	; 0
     178:	a0 e8       	ldi	r26, 0x80	; 128
     17a:	bf e3       	ldi	r27, 0x3F	; 63
     17c:	80 83       	st	Z, r24
     17e:	91 83       	std	Z+1, r25	; 0x01
     180:	a2 83       	std	Z+2, r26	; 0x02
     182:	b3 83       	std	Z+3, r27	; 0x03
 */
void
_delay_ms(double __ms)
{
	uint16_t __ticks;
	double __tmp = ((F_CPU) / 4e3) * __ms;
     184:	8e 01       	movw	r16, r28
     186:	07 59       	subi	r16, 0x97	; 151
     188:	1f 4f       	sbci	r17, 0xFF	; 255
     18a:	fe 01       	movw	r30, r28
     18c:	e3 59       	subi	r30, 0x93	; 147
     18e:	ff 4f       	sbci	r31, 0xFF	; 255
     190:	60 81       	ld	r22, Z
     192:	71 81       	ldd	r23, Z+1	; 0x01
     194:	82 81       	ldd	r24, Z+2	; 0x02
     196:	93 81       	ldd	r25, Z+3	; 0x03
     198:	26 e6       	ldi	r18, 0x66	; 102
     19a:	36 e6       	ldi	r19, 0x66	; 102
     19c:	46 e6       	ldi	r20, 0x66	; 102
     19e:	55 e4       	ldi	r21, 0x45	; 69
     1a0:	0e 94 30 21 	call	0x4260	; 0x4260 <__mulsf3>
     1a4:	dc 01       	movw	r26, r24
     1a6:	cb 01       	movw	r24, r22
     1a8:	f8 01       	movw	r30, r16
     1aa:	80 83       	st	Z, r24
     1ac:	91 83       	std	Z+1, r25	; 0x01
     1ae:	a2 83       	std	Z+2, r26	; 0x02
     1b0:	b3 83       	std	Z+3, r27	; 0x03
	if (__tmp < 1.0)
     1b2:	fe 01       	movw	r30, r28
     1b4:	e7 59       	subi	r30, 0x97	; 151
     1b6:	ff 4f       	sbci	r31, 0xFF	; 255
     1b8:	60 81       	ld	r22, Z
     1ba:	71 81       	ldd	r23, Z+1	; 0x01
     1bc:	82 81       	ldd	r24, Z+2	; 0x02
     1be:	93 81       	ldd	r25, Z+3	; 0x03
     1c0:	20 e0       	ldi	r18, 0x00	; 0
     1c2:	30 e0       	ldi	r19, 0x00	; 0
     1c4:	40 e8       	ldi	r20, 0x80	; 128
     1c6:	5f e3       	ldi	r21, 0x3F	; 63
     1c8:	0e 94 36 23 	call	0x466c	; 0x466c <__ltsf2>
     1cc:	88 23       	and	r24, r24
     1ce:	44 f4       	brge	.+16     	; 0x1e0 <lcd_set_4bit+0x8c>
		__ticks = 1;
     1d0:	fe 01       	movw	r30, r28
     1d2:	e9 59       	subi	r30, 0x99	; 153
     1d4:	ff 4f       	sbci	r31, 0xFF	; 255
     1d6:	81 e0       	ldi	r24, 0x01	; 1
     1d8:	90 e0       	ldi	r25, 0x00	; 0
     1da:	91 83       	std	Z+1, r25	; 0x01
     1dc:	80 83       	st	Z, r24
     1de:	64 c0       	rjmp	.+200    	; 0x2a8 <lcd_set_4bit+0x154>
	else if (__tmp > 65535)
     1e0:	fe 01       	movw	r30, r28
     1e2:	e7 59       	subi	r30, 0x97	; 151
     1e4:	ff 4f       	sbci	r31, 0xFF	; 255
     1e6:	60 81       	ld	r22, Z
     1e8:	71 81       	ldd	r23, Z+1	; 0x01
     1ea:	82 81       	ldd	r24, Z+2	; 0x02
     1ec:	93 81       	ldd	r25, Z+3	; 0x03
     1ee:	20 e0       	ldi	r18, 0x00	; 0
     1f0:	3f ef       	ldi	r19, 0xFF	; 255
     1f2:	4f e7       	ldi	r20, 0x7F	; 127
     1f4:	57 e4       	ldi	r21, 0x47	; 71
     1f6:	0e 94 d6 22 	call	0x45ac	; 0x45ac <__gtsf2>
     1fa:	18 16       	cp	r1, r24
     1fc:	0c f0       	brlt	.+2      	; 0x200 <lcd_set_4bit+0xac>
     1fe:	43 c0       	rjmp	.+134    	; 0x286 <lcd_set_4bit+0x132>
	{
		//	__ticks = requested delay in 1/10 ms
		__ticks = (uint16_t) (__ms * 10.0);
     200:	fe 01       	movw	r30, r28
     202:	e3 59       	subi	r30, 0x93	; 147
     204:	ff 4f       	sbci	r31, 0xFF	; 255
     206:	60 81       	ld	r22, Z
     208:	71 81       	ldd	r23, Z+1	; 0x01
     20a:	82 81       	ldd	r24, Z+2	; 0x02
     20c:	93 81       	ldd	r25, Z+3	; 0x03
     20e:	20 e0       	ldi	r18, 0x00	; 0
     210:	30 e0       	ldi	r19, 0x00	; 0
     212:	40 e2       	ldi	r20, 0x20	; 32
     214:	51 e4       	ldi	r21, 0x41	; 65
     216:	0e 94 30 21 	call	0x4260	; 0x4260 <__mulsf3>
     21a:	dc 01       	movw	r26, r24
     21c:	cb 01       	movw	r24, r22
     21e:	8e 01       	movw	r16, r28
     220:	09 59       	subi	r16, 0x99	; 153
     222:	1f 4f       	sbci	r17, 0xFF	; 255
     224:	bc 01       	movw	r22, r24
     226:	cd 01       	movw	r24, r26
     228:	0e 94 5a 1f 	call	0x3eb4	; 0x3eb4 <__fixunssfsi>
     22c:	dc 01       	movw	r26, r24
     22e:	cb 01       	movw	r24, r22
     230:	f8 01       	movw	r30, r16
     232:	91 83       	std	Z+1, r25	; 0x01
     234:	80 83       	st	Z, r24
     236:	1f c0       	rjmp	.+62     	; 0x276 <lcd_set_4bit+0x122>
     238:	fe 01       	movw	r30, r28
     23a:	eb 59       	subi	r30, 0x9B	; 155
     23c:	ff 4f       	sbci	r31, 0xFF	; 255
     23e:	80 e7       	ldi	r24, 0x70	; 112
     240:	91 e0       	ldi	r25, 0x01	; 1
     242:	91 83       	std	Z+1, r25	; 0x01
     244:	80 83       	st	Z, r24
    milliseconds can be achieved.
 */
void
_delay_loop_2(uint16_t __count)
{
	__asm__ volatile (
     246:	fe 01       	movw	r30, r28
     248:	eb 59       	subi	r30, 0x9B	; 155
     24a:	ff 4f       	sbci	r31, 0xFF	; 255
     24c:	80 81       	ld	r24, Z
     24e:	91 81       	ldd	r25, Z+1	; 0x01
     250:	01 97       	sbiw	r24, 0x01	; 1
     252:	f1 f7       	brne	.-4      	; 0x250 <lcd_set_4bit+0xfc>
     254:	fe 01       	movw	r30, r28
     256:	eb 59       	subi	r30, 0x9B	; 155
     258:	ff 4f       	sbci	r31, 0xFF	; 255
     25a:	91 83       	std	Z+1, r25	; 0x01
     25c:	80 83       	st	Z, r24
		while(__ticks)
		{
			// wait 1/10 ms
			_delay_loop_2(((F_CPU) / 4e3) / 10);
			__ticks --;
     25e:	de 01       	movw	r26, r28
     260:	a9 59       	subi	r26, 0x99	; 153
     262:	bf 4f       	sbci	r27, 0xFF	; 255
     264:	fe 01       	movw	r30, r28
     266:	e9 59       	subi	r30, 0x99	; 153
     268:	ff 4f       	sbci	r31, 0xFF	; 255
     26a:	80 81       	ld	r24, Z
     26c:	91 81       	ldd	r25, Z+1	; 0x01
     26e:	01 97       	sbiw	r24, 0x01	; 1
     270:	11 96       	adiw	r26, 0x01	; 1
     272:	9c 93       	st	X, r25
     274:	8e 93       	st	-X, r24
		__ticks = 1;
	else if (__tmp > 65535)
	{
		//	__ticks = requested delay in 1/10 ms
		__ticks = (uint16_t) (__ms * 10.0);
		while(__ticks)
     276:	fe 01       	movw	r30, r28
     278:	e9 59       	subi	r30, 0x99	; 153
     27a:	ff 4f       	sbci	r31, 0xFF	; 255
     27c:	80 81       	ld	r24, Z
     27e:	91 81       	ldd	r25, Z+1	; 0x01
     280:	00 97       	sbiw	r24, 0x00	; 0
     282:	d1 f6       	brne	.-76     	; 0x238 <lcd_set_4bit+0xe4>
     284:	27 c0       	rjmp	.+78     	; 0x2d4 <lcd_set_4bit+0x180>
			__ticks --;
		}
		return;
	}
	else
		__ticks = (uint16_t)__tmp;
     286:	8e 01       	movw	r16, r28
     288:	09 59       	subi	r16, 0x99	; 153
     28a:	1f 4f       	sbci	r17, 0xFF	; 255
     28c:	fe 01       	movw	r30, r28
     28e:	e7 59       	subi	r30, 0x97	; 151
     290:	ff 4f       	sbci	r31, 0xFF	; 255
     292:	60 81       	ld	r22, Z
     294:	71 81       	ldd	r23, Z+1	; 0x01
     296:	82 81       	ldd	r24, Z+2	; 0x02
     298:	93 81       	ldd	r25, Z+3	; 0x03
     29a:	0e 94 5a 1f 	call	0x3eb4	; 0x3eb4 <__fixunssfsi>
     29e:	dc 01       	movw	r26, r24
     2a0:	cb 01       	movw	r24, r22
     2a2:	f8 01       	movw	r30, r16
     2a4:	91 83       	std	Z+1, r25	; 0x01
     2a6:	80 83       	st	Z, r24
     2a8:	de 01       	movw	r26, r28
     2aa:	ad 59       	subi	r26, 0x9D	; 157
     2ac:	bf 4f       	sbci	r27, 0xFF	; 255
     2ae:	fe 01       	movw	r30, r28
     2b0:	e9 59       	subi	r30, 0x99	; 153
     2b2:	ff 4f       	sbci	r31, 0xFF	; 255
     2b4:	80 81       	ld	r24, Z
     2b6:	91 81       	ldd	r25, Z+1	; 0x01
     2b8:	8d 93       	st	X+, r24
     2ba:	9c 93       	st	X, r25
     2bc:	fe 01       	movw	r30, r28
     2be:	ed 59       	subi	r30, 0x9D	; 157
     2c0:	ff 4f       	sbci	r31, 0xFF	; 255
     2c2:	80 81       	ld	r24, Z
     2c4:	91 81       	ldd	r25, Z+1	; 0x01
     2c6:	01 97       	sbiw	r24, 0x01	; 1
     2c8:	f1 f7       	brne	.-4      	; 0x2c6 <lcd_set_4bit+0x172>
     2ca:	fe 01       	movw	r30, r28
     2cc:	ed 59       	subi	r30, 0x9D	; 157
     2ce:	ff 4f       	sbci	r31, 0xFF	; 255
     2d0:	91 83       	std	Z+1, r25	; 0x01
     2d2:	80 83       	st	Z, r24
	_delay_ms(1);

	cbit(lcd_port,RS);				//RS=0 --- Command Input
     2d4:	a8 e2       	ldi	r26, 0x28	; 40
     2d6:	b0 e0       	ldi	r27, 0x00	; 0
     2d8:	e8 e2       	ldi	r30, 0x28	; 40
     2da:	f0 e0       	ldi	r31, 0x00	; 0
     2dc:	80 81       	ld	r24, Z
     2de:	8e 7f       	andi	r24, 0xFE	; 254
     2e0:	8c 93       	st	X, r24
	cbit(lcd_port,RW);				//RW=0 --- Writing to LCD
     2e2:	a8 e2       	ldi	r26, 0x28	; 40
     2e4:	b0 e0       	ldi	r27, 0x00	; 0
     2e6:	e8 e2       	ldi	r30, 0x28	; 40
     2e8:	f0 e0       	ldi	r31, 0x00	; 0
     2ea:	80 81       	ld	r24, Z
     2ec:	8d 7f       	andi	r24, 0xFD	; 253
     2ee:	8c 93       	st	X, r24
	lcd_port = 0x30;				//Sending 3
     2f0:	e8 e2       	ldi	r30, 0x28	; 40
     2f2:	f0 e0       	ldi	r31, 0x00	; 0
     2f4:	80 e3       	ldi	r24, 0x30	; 48
     2f6:	80 83       	st	Z, r24
	sbit(lcd_port,EN);				//Set Enable Pin
     2f8:	a8 e2       	ldi	r26, 0x28	; 40
     2fa:	b0 e0       	ldi	r27, 0x00	; 0
     2fc:	e8 e2       	ldi	r30, 0x28	; 40
     2fe:	f0 e0       	ldi	r31, 0x00	; 0
     300:	80 81       	ld	r24, Z
     302:	84 60       	ori	r24, 0x04	; 4
     304:	8c 93       	st	X, r24
     306:	fe 01       	movw	r30, r28
     308:	e1 5a       	subi	r30, 0xA1	; 161
     30a:	ff 4f       	sbci	r31, 0xFF	; 255
     30c:	80 e0       	ldi	r24, 0x00	; 0
     30e:	90 e0       	ldi	r25, 0x00	; 0
     310:	a0 ea       	ldi	r26, 0xA0	; 160
     312:	b0 e4       	ldi	r27, 0x40	; 64
     314:	80 83       	st	Z, r24
     316:	91 83       	std	Z+1, r25	; 0x01
     318:	a2 83       	std	Z+2, r26	; 0x02
     31a:	b3 83       	std	Z+3, r27	; 0x03
 */
void
_delay_ms(double __ms)
{
	uint16_t __ticks;
	double __tmp = ((F_CPU) / 4e3) * __ms;
     31c:	8e 01       	movw	r16, r28
     31e:	05 5a       	subi	r16, 0xA5	; 165
     320:	1f 4f       	sbci	r17, 0xFF	; 255
     322:	fe 01       	movw	r30, r28
     324:	e1 5a       	subi	r30, 0xA1	; 161
     326:	ff 4f       	sbci	r31, 0xFF	; 255
     328:	60 81       	ld	r22, Z
     32a:	71 81       	ldd	r23, Z+1	; 0x01
     32c:	82 81       	ldd	r24, Z+2	; 0x02
     32e:	93 81       	ldd	r25, Z+3	; 0x03
     330:	26 e6       	ldi	r18, 0x66	; 102
     332:	36 e6       	ldi	r19, 0x66	; 102
     334:	46 e6       	ldi	r20, 0x66	; 102
     336:	55 e4       	ldi	r21, 0x45	; 69
     338:	0e 94 30 21 	call	0x4260	; 0x4260 <__mulsf3>
     33c:	dc 01       	movw	r26, r24
     33e:	cb 01       	movw	r24, r22
     340:	f8 01       	movw	r30, r16
     342:	80 83       	st	Z, r24
     344:	91 83       	std	Z+1, r25	; 0x01
     346:	a2 83       	std	Z+2, r26	; 0x02
     348:	b3 83       	std	Z+3, r27	; 0x03
	if (__tmp < 1.0)
     34a:	fe 01       	movw	r30, r28
     34c:	e5 5a       	subi	r30, 0xA5	; 165
     34e:	ff 4f       	sbci	r31, 0xFF	; 255
     350:	60 81       	ld	r22, Z
     352:	71 81       	ldd	r23, Z+1	; 0x01
     354:	82 81       	ldd	r24, Z+2	; 0x02
     356:	93 81       	ldd	r25, Z+3	; 0x03
     358:	20 e0       	ldi	r18, 0x00	; 0
     35a:	30 e0       	ldi	r19, 0x00	; 0
     35c:	40 e8       	ldi	r20, 0x80	; 128
     35e:	5f e3       	ldi	r21, 0x3F	; 63
     360:	0e 94 36 23 	call	0x466c	; 0x466c <__ltsf2>
     364:	88 23       	and	r24, r24
     366:	44 f4       	brge	.+16     	; 0x378 <lcd_set_4bit+0x224>
		__ticks = 1;
     368:	fe 01       	movw	r30, r28
     36a:	e7 5a       	subi	r30, 0xA7	; 167
     36c:	ff 4f       	sbci	r31, 0xFF	; 255
     36e:	81 e0       	ldi	r24, 0x01	; 1
     370:	90 e0       	ldi	r25, 0x00	; 0
     372:	91 83       	std	Z+1, r25	; 0x01
     374:	80 83       	st	Z, r24
     376:	64 c0       	rjmp	.+200    	; 0x440 <lcd_set_4bit+0x2ec>
	else if (__tmp > 65535)
     378:	fe 01       	movw	r30, r28
     37a:	e5 5a       	subi	r30, 0xA5	; 165
     37c:	ff 4f       	sbci	r31, 0xFF	; 255
     37e:	60 81       	ld	r22, Z
     380:	71 81       	ldd	r23, Z+1	; 0x01
     382:	82 81       	ldd	r24, Z+2	; 0x02
     384:	93 81       	ldd	r25, Z+3	; 0x03
     386:	20 e0       	ldi	r18, 0x00	; 0
     388:	3f ef       	ldi	r19, 0xFF	; 255
     38a:	4f e7       	ldi	r20, 0x7F	; 127
     38c:	57 e4       	ldi	r21, 0x47	; 71
     38e:	0e 94 d6 22 	call	0x45ac	; 0x45ac <__gtsf2>
     392:	18 16       	cp	r1, r24
     394:	0c f0       	brlt	.+2      	; 0x398 <lcd_set_4bit+0x244>
     396:	43 c0       	rjmp	.+134    	; 0x41e <lcd_set_4bit+0x2ca>
	{
		//	__ticks = requested delay in 1/10 ms
		__ticks = (uint16_t) (__ms * 10.0);
     398:	fe 01       	movw	r30, r28
     39a:	e1 5a       	subi	r30, 0xA1	; 161
     39c:	ff 4f       	sbci	r31, 0xFF	; 255
     39e:	60 81       	ld	r22, Z
     3a0:	71 81       	ldd	r23, Z+1	; 0x01
     3a2:	82 81       	ldd	r24, Z+2	; 0x02
     3a4:	93 81       	ldd	r25, Z+3	; 0x03
     3a6:	20 e0       	ldi	r18, 0x00	; 0
     3a8:	30 e0       	ldi	r19, 0x00	; 0
     3aa:	40 e2       	ldi	r20, 0x20	; 32
     3ac:	51 e4       	ldi	r21, 0x41	; 65
     3ae:	0e 94 30 21 	call	0x4260	; 0x4260 <__mulsf3>
     3b2:	dc 01       	movw	r26, r24
     3b4:	cb 01       	movw	r24, r22
     3b6:	8e 01       	movw	r16, r28
     3b8:	07 5a       	subi	r16, 0xA7	; 167
     3ba:	1f 4f       	sbci	r17, 0xFF	; 255
     3bc:	bc 01       	movw	r22, r24
     3be:	cd 01       	movw	r24, r26
     3c0:	0e 94 5a 1f 	call	0x3eb4	; 0x3eb4 <__fixunssfsi>
     3c4:	dc 01       	movw	r26, r24
     3c6:	cb 01       	movw	r24, r22
     3c8:	f8 01       	movw	r30, r16
     3ca:	91 83       	std	Z+1, r25	; 0x01
     3cc:	80 83       	st	Z, r24
     3ce:	1f c0       	rjmp	.+62     	; 0x40e <lcd_set_4bit+0x2ba>
     3d0:	fe 01       	movw	r30, r28
     3d2:	e9 5a       	subi	r30, 0xA9	; 169
     3d4:	ff 4f       	sbci	r31, 0xFF	; 255
     3d6:	80 e7       	ldi	r24, 0x70	; 112
     3d8:	91 e0       	ldi	r25, 0x01	; 1
     3da:	91 83       	std	Z+1, r25	; 0x01
     3dc:	80 83       	st	Z, r24
     3de:	fe 01       	movw	r30, r28
     3e0:	e9 5a       	subi	r30, 0xA9	; 169
     3e2:	ff 4f       	sbci	r31, 0xFF	; 255
     3e4:	80 81       	ld	r24, Z
     3e6:	91 81       	ldd	r25, Z+1	; 0x01
     3e8:	01 97       	sbiw	r24, 0x01	; 1
     3ea:	f1 f7       	brne	.-4      	; 0x3e8 <lcd_set_4bit+0x294>
     3ec:	fe 01       	movw	r30, r28
     3ee:	e9 5a       	subi	r30, 0xA9	; 169
     3f0:	ff 4f       	sbci	r31, 0xFF	; 255
     3f2:	91 83       	std	Z+1, r25	; 0x01
     3f4:	80 83       	st	Z, r24
		while(__ticks)
		{
			// wait 1/10 ms
			_delay_loop_2(((F_CPU) / 4e3) / 10);
			__ticks --;
     3f6:	de 01       	movw	r26, r28
     3f8:	a7 5a       	subi	r26, 0xA7	; 167
     3fa:	bf 4f       	sbci	r27, 0xFF	; 255
     3fc:	fe 01       	movw	r30, r28
     3fe:	e7 5a       	subi	r30, 0xA7	; 167
     400:	ff 4f       	sbci	r31, 0xFF	; 255
     402:	80 81       	ld	r24, Z
     404:	91 81       	ldd	r25, Z+1	; 0x01
     406:	01 97       	sbiw	r24, 0x01	; 1
     408:	11 96       	adiw	r26, 0x01	; 1
     40a:	9c 93       	st	X, r25
     40c:	8e 93       	st	-X, r24
		__ticks = 1;
	else if (__tmp > 65535)
	{
		//	__ticks = requested delay in 1/10 ms
		__ticks = (uint16_t) (__ms * 10.0);
		while(__ticks)
     40e:	fe 01       	movw	r30, r28
     410:	e7 5a       	subi	r30, 0xA7	; 167
     412:	ff 4f       	sbci	r31, 0xFF	; 255
     414:	80 81       	ld	r24, Z
     416:	91 81       	ldd	r25, Z+1	; 0x01
     418:	00 97       	sbiw	r24, 0x00	; 0
     41a:	d1 f6       	brne	.-76     	; 0x3d0 <lcd_set_4bit+0x27c>
     41c:	27 c0       	rjmp	.+78     	; 0x46c <lcd_set_4bit+0x318>
			__ticks --;
		}
		return;
	}
	else
		__ticks = (uint16_t)__tmp;
     41e:	8e 01       	movw	r16, r28
     420:	07 5a       	subi	r16, 0xA7	; 167
     422:	1f 4f       	sbci	r17, 0xFF	; 255
     424:	fe 01       	movw	r30, r28
     426:	e5 5a       	subi	r30, 0xA5	; 165
     428:	ff 4f       	sbci	r31, 0xFF	; 255
     42a:	60 81       	ld	r22, Z
     42c:	71 81       	ldd	r23, Z+1	; 0x01
     42e:	82 81       	ldd	r24, Z+2	; 0x02
     430:	93 81       	ldd	r25, Z+3	; 0x03
     432:	0e 94 5a 1f 	call	0x3eb4	; 0x3eb4 <__fixunssfsi>
     436:	dc 01       	movw	r26, r24
     438:	cb 01       	movw	r24, r22
     43a:	f8 01       	movw	r30, r16
     43c:	91 83       	std	Z+1, r25	; 0x01
     43e:	80 83       	st	Z, r24
     440:	de 01       	movw	r26, r28
     442:	ab 5a       	subi	r26, 0xAB	; 171
     444:	bf 4f       	sbci	r27, 0xFF	; 255
     446:	fe 01       	movw	r30, r28
     448:	e7 5a       	subi	r30, 0xA7	; 167
     44a:	ff 4f       	sbci	r31, 0xFF	; 255
     44c:	80 81       	ld	r24, Z
     44e:	91 81       	ldd	r25, Z+1	; 0x01
     450:	8d 93       	st	X+, r24
     452:	9c 93       	st	X, r25
     454:	fe 01       	movw	r30, r28
     456:	eb 5a       	subi	r30, 0xAB	; 171
     458:	ff 4f       	sbci	r31, 0xFF	; 255
     45a:	80 81       	ld	r24, Z
     45c:	91 81       	ldd	r25, Z+1	; 0x01
     45e:	01 97       	sbiw	r24, 0x01	; 1
     460:	f1 f7       	brne	.-4      	; 0x45e <lcd_set_4bit+0x30a>
     462:	fe 01       	movw	r30, r28
     464:	eb 5a       	subi	r30, 0xAB	; 171
     466:	ff 4f       	sbci	r31, 0xFF	; 255
     468:	91 83       	std	Z+1, r25	; 0x01
     46a:	80 83       	st	Z, r24
	_delay_ms(5);					//Delay
	cbit(lcd_port,EN);				//Clear Enable Pin
     46c:	a8 e2       	ldi	r26, 0x28	; 40
     46e:	b0 e0       	ldi	r27, 0x00	; 0
     470:	e8 e2       	ldi	r30, 0x28	; 40
     472:	f0 e0       	ldi	r31, 0x00	; 0
     474:	80 81       	ld	r24, Z
     476:	8b 7f       	andi	r24, 0xFB	; 251
     478:	8c 93       	st	X, r24
     47a:	fe 01       	movw	r30, r28
     47c:	ef 5a       	subi	r30, 0xAF	; 175
     47e:	ff 4f       	sbci	r31, 0xFF	; 255
     480:	80 e0       	ldi	r24, 0x00	; 0
     482:	90 e0       	ldi	r25, 0x00	; 0
     484:	a0 e8       	ldi	r26, 0x80	; 128
     486:	bf e3       	ldi	r27, 0x3F	; 63
     488:	80 83       	st	Z, r24
     48a:	91 83       	std	Z+1, r25	; 0x01
     48c:	a2 83       	std	Z+2, r26	; 0x02
     48e:	b3 83       	std	Z+3, r27	; 0x03
 */
void
_delay_ms(double __ms)
{
	uint16_t __ticks;
	double __tmp = ((F_CPU) / 4e3) * __ms;
     490:	8e 01       	movw	r16, r28
     492:	03 5b       	subi	r16, 0xB3	; 179
     494:	1f 4f       	sbci	r17, 0xFF	; 255
     496:	fe 01       	movw	r30, r28
     498:	ef 5a       	subi	r30, 0xAF	; 175
     49a:	ff 4f       	sbci	r31, 0xFF	; 255
     49c:	60 81       	ld	r22, Z
     49e:	71 81       	ldd	r23, Z+1	; 0x01
     4a0:	82 81       	ldd	r24, Z+2	; 0x02
     4a2:	93 81       	ldd	r25, Z+3	; 0x03
     4a4:	26 e6       	ldi	r18, 0x66	; 102
     4a6:	36 e6       	ldi	r19, 0x66	; 102
     4a8:	46 e6       	ldi	r20, 0x66	; 102
     4aa:	55 e4       	ldi	r21, 0x45	; 69
     4ac:	0e 94 30 21 	call	0x4260	; 0x4260 <__mulsf3>
     4b0:	dc 01       	movw	r26, r24
     4b2:	cb 01       	movw	r24, r22
     4b4:	f8 01       	movw	r30, r16
     4b6:	80 83       	st	Z, r24
     4b8:	91 83       	std	Z+1, r25	; 0x01
     4ba:	a2 83       	std	Z+2, r26	; 0x02
     4bc:	b3 83       	std	Z+3, r27	; 0x03
	if (__tmp < 1.0)
     4be:	fe 01       	movw	r30, r28
     4c0:	e3 5b       	subi	r30, 0xB3	; 179
     4c2:	ff 4f       	sbci	r31, 0xFF	; 255
     4c4:	60 81       	ld	r22, Z
     4c6:	71 81       	ldd	r23, Z+1	; 0x01
     4c8:	82 81       	ldd	r24, Z+2	; 0x02
     4ca:	93 81       	ldd	r25, Z+3	; 0x03
     4cc:	20 e0       	ldi	r18, 0x00	; 0
     4ce:	30 e0       	ldi	r19, 0x00	; 0
     4d0:	40 e8       	ldi	r20, 0x80	; 128
     4d2:	5f e3       	ldi	r21, 0x3F	; 63
     4d4:	0e 94 36 23 	call	0x466c	; 0x466c <__ltsf2>
     4d8:	88 23       	and	r24, r24
     4da:	44 f4       	brge	.+16     	; 0x4ec <lcd_set_4bit+0x398>
		__ticks = 1;
     4dc:	fe 01       	movw	r30, r28
     4de:	e5 5b       	subi	r30, 0xB5	; 181
     4e0:	ff 4f       	sbci	r31, 0xFF	; 255
     4e2:	81 e0       	ldi	r24, 0x01	; 1
     4e4:	90 e0       	ldi	r25, 0x00	; 0
     4e6:	91 83       	std	Z+1, r25	; 0x01
     4e8:	80 83       	st	Z, r24
     4ea:	64 c0       	rjmp	.+200    	; 0x5b4 <lcd_set_4bit+0x460>
	else if (__tmp > 65535)
     4ec:	fe 01       	movw	r30, r28
     4ee:	e3 5b       	subi	r30, 0xB3	; 179
     4f0:	ff 4f       	sbci	r31, 0xFF	; 255
     4f2:	60 81       	ld	r22, Z
     4f4:	71 81       	ldd	r23, Z+1	; 0x01
     4f6:	82 81       	ldd	r24, Z+2	; 0x02
     4f8:	93 81       	ldd	r25, Z+3	; 0x03
     4fa:	20 e0       	ldi	r18, 0x00	; 0
     4fc:	3f ef       	ldi	r19, 0xFF	; 255
     4fe:	4f e7       	ldi	r20, 0x7F	; 127
     500:	57 e4       	ldi	r21, 0x47	; 71
     502:	0e 94 d6 22 	call	0x45ac	; 0x45ac <__gtsf2>
     506:	18 16       	cp	r1, r24
     508:	0c f0       	brlt	.+2      	; 0x50c <lcd_set_4bit+0x3b8>
     50a:	43 c0       	rjmp	.+134    	; 0x592 <lcd_set_4bit+0x43e>
	{
		//	__ticks = requested delay in 1/10 ms
		__ticks = (uint16_t) (__ms * 10.0);
     50c:	fe 01       	movw	r30, r28
     50e:	ef 5a       	subi	r30, 0xAF	; 175
     510:	ff 4f       	sbci	r31, 0xFF	; 255
     512:	60 81       	ld	r22, Z
     514:	71 81       	ldd	r23, Z+1	; 0x01
     516:	82 81       	ldd	r24, Z+2	; 0x02
     518:	93 81       	ldd	r25, Z+3	; 0x03
     51a:	20 e0       	ldi	r18, 0x00	; 0
     51c:	30 e0       	ldi	r19, 0x00	; 0
     51e:	40 e2       	ldi	r20, 0x20	; 32
     520:	51 e4       	ldi	r21, 0x41	; 65
     522:	0e 94 30 21 	call	0x4260	; 0x4260 <__mulsf3>
     526:	dc 01       	movw	r26, r24
     528:	cb 01       	movw	r24, r22
     52a:	8e 01       	movw	r16, r28
     52c:	05 5b       	subi	r16, 0xB5	; 181
     52e:	1f 4f       	sbci	r17, 0xFF	; 255
     530:	bc 01       	movw	r22, r24
     532:	cd 01       	movw	r24, r26
     534:	0e 94 5a 1f 	call	0x3eb4	; 0x3eb4 <__fixunssfsi>
     538:	dc 01       	movw	r26, r24
     53a:	cb 01       	movw	r24, r22
     53c:	f8 01       	movw	r30, r16
     53e:	91 83       	std	Z+1, r25	; 0x01
     540:	80 83       	st	Z, r24
     542:	1f c0       	rjmp	.+62     	; 0x582 <lcd_set_4bit+0x42e>
     544:	fe 01       	movw	r30, r28
     546:	e7 5b       	subi	r30, 0xB7	; 183
     548:	ff 4f       	sbci	r31, 0xFF	; 255
     54a:	80 e7       	ldi	r24, 0x70	; 112
     54c:	91 e0       	ldi	r25, 0x01	; 1
     54e:	91 83       	std	Z+1, r25	; 0x01
     550:	80 83       	st	Z, r24
     552:	fe 01       	movw	r30, r28
     554:	e7 5b       	subi	r30, 0xB7	; 183
     556:	ff 4f       	sbci	r31, 0xFF	; 255
     558:	80 81       	ld	r24, Z
     55a:	91 81       	ldd	r25, Z+1	; 0x01
     55c:	01 97       	sbiw	r24, 0x01	; 1
     55e:	f1 f7       	brne	.-4      	; 0x55c <lcd_set_4bit+0x408>
     560:	fe 01       	movw	r30, r28
     562:	e7 5b       	subi	r30, 0xB7	; 183
     564:	ff 4f       	sbci	r31, 0xFF	; 255
     566:	91 83       	std	Z+1, r25	; 0x01
     568:	80 83       	st	Z, r24
		while(__ticks)
		{
			// wait 1/10 ms
			_delay_loop_2(((F_CPU) / 4e3) / 10);
			__ticks --;
     56a:	de 01       	movw	r26, r28
     56c:	a5 5b       	subi	r26, 0xB5	; 181
     56e:	bf 4f       	sbci	r27, 0xFF	; 255
     570:	fe 01       	movw	r30, r28
     572:	e5 5b       	subi	r30, 0xB5	; 181
     574:	ff 4f       	sbci	r31, 0xFF	; 255
     576:	80 81       	ld	r24, Z
     578:	91 81       	ldd	r25, Z+1	; 0x01
     57a:	01 97       	sbiw	r24, 0x01	; 1
     57c:	11 96       	adiw	r26, 0x01	; 1
     57e:	9c 93       	st	X, r25
     580:	8e 93       	st	-X, r24
		__ticks = 1;
	else if (__tmp > 65535)
	{
		//	__ticks = requested delay in 1/10 ms
		__ticks = (uint16_t) (__ms * 10.0);
		while(__ticks)
     582:	fe 01       	movw	r30, r28
     584:	e5 5b       	subi	r30, 0xB5	; 181
     586:	ff 4f       	sbci	r31, 0xFF	; 255
     588:	80 81       	ld	r24, Z
     58a:	91 81       	ldd	r25, Z+1	; 0x01
     58c:	00 97       	sbiw	r24, 0x00	; 0
     58e:	d1 f6       	brne	.-76     	; 0x544 <lcd_set_4bit+0x3f0>
     590:	27 c0       	rjmp	.+78     	; 0x5e0 <lcd_set_4bit+0x48c>
			__ticks --;
		}
		return;
	}
	else
		__ticks = (uint16_t)__tmp;
     592:	8e 01       	movw	r16, r28
     594:	05 5b       	subi	r16, 0xB5	; 181
     596:	1f 4f       	sbci	r17, 0xFF	; 255
     598:	fe 01       	movw	r30, r28
     59a:	e3 5b       	subi	r30, 0xB3	; 179
     59c:	ff 4f       	sbci	r31, 0xFF	; 255
     59e:	60 81       	ld	r22, Z
     5a0:	71 81       	ldd	r23, Z+1	; 0x01
     5a2:	82 81       	ldd	r24, Z+2	; 0x02
     5a4:	93 81       	ldd	r25, Z+3	; 0x03
     5a6:	0e 94 5a 1f 	call	0x3eb4	; 0x3eb4 <__fixunssfsi>
     5aa:	dc 01       	movw	r26, r24
     5ac:	cb 01       	movw	r24, r22
     5ae:	f8 01       	movw	r30, r16
     5b0:	91 83       	std	Z+1, r25	; 0x01
     5b2:	80 83       	st	Z, r24
     5b4:	de 01       	movw	r26, r28
     5b6:	a9 5b       	subi	r26, 0xB9	; 185
     5b8:	bf 4f       	sbci	r27, 0xFF	; 255
     5ba:	fe 01       	movw	r30, r28
     5bc:	e5 5b       	subi	r30, 0xB5	; 181
     5be:	ff 4f       	sbci	r31, 0xFF	; 255
     5c0:	80 81       	ld	r24, Z
     5c2:	91 81       	ldd	r25, Z+1	; 0x01
     5c4:	8d 93       	st	X+, r24
     5c6:	9c 93       	st	X, r25
     5c8:	fe 01       	movw	r30, r28
     5ca:	e9 5b       	subi	r30, 0xB9	; 185
     5cc:	ff 4f       	sbci	r31, 0xFF	; 255
     5ce:	80 81       	ld	r24, Z
     5d0:	91 81       	ldd	r25, Z+1	; 0x01
     5d2:	01 97       	sbiw	r24, 0x01	; 1
     5d4:	f1 f7       	brne	.-4      	; 0x5d2 <lcd_set_4bit+0x47e>
     5d6:	fe 01       	movw	r30, r28
     5d8:	e9 5b       	subi	r30, 0xB9	; 185
     5da:	ff 4f       	sbci	r31, 0xFF	; 255
     5dc:	91 83       	std	Z+1, r25	; 0x01
     5de:	80 83       	st	Z, r24

	_delay_ms(1);

	cbit(lcd_port,RS);				//RS=0 --- Command Input
     5e0:	a8 e2       	ldi	r26, 0x28	; 40
     5e2:	b0 e0       	ldi	r27, 0x00	; 0
     5e4:	e8 e2       	ldi	r30, 0x28	; 40
     5e6:	f0 e0       	ldi	r31, 0x00	; 0
     5e8:	80 81       	ld	r24, Z
     5ea:	8e 7f       	andi	r24, 0xFE	; 254
     5ec:	8c 93       	st	X, r24
	cbit(lcd_port,RW);				//RW=0 --- Writing to LCD
     5ee:	a8 e2       	ldi	r26, 0x28	; 40
     5f0:	b0 e0       	ldi	r27, 0x00	; 0
     5f2:	e8 e2       	ldi	r30, 0x28	; 40
     5f4:	f0 e0       	ldi	r31, 0x00	; 0
     5f6:	80 81       	ld	r24, Z
     5f8:	8d 7f       	andi	r24, 0xFD	; 253
     5fa:	8c 93       	st	X, r24
	lcd_port = 0x30;				//Sending 3
     5fc:	e8 e2       	ldi	r30, 0x28	; 40
     5fe:	f0 e0       	ldi	r31, 0x00	; 0
     600:	80 e3       	ldi	r24, 0x30	; 48
     602:	80 83       	st	Z, r24
	sbit(lcd_port,EN);				//Set Enable Pin
     604:	a8 e2       	ldi	r26, 0x28	; 40
     606:	b0 e0       	ldi	r27, 0x00	; 0
     608:	e8 e2       	ldi	r30, 0x28	; 40
     60a:	f0 e0       	ldi	r31, 0x00	; 0
     60c:	80 81       	ld	r24, Z
     60e:	84 60       	ori	r24, 0x04	; 4
     610:	8c 93       	st	X, r24
     612:	fe 01       	movw	r30, r28
     614:	ed 5b       	subi	r30, 0xBD	; 189
     616:	ff 4f       	sbci	r31, 0xFF	; 255
     618:	80 e0       	ldi	r24, 0x00	; 0
     61a:	90 e0       	ldi	r25, 0x00	; 0
     61c:	a0 ea       	ldi	r26, 0xA0	; 160
     61e:	b0 e4       	ldi	r27, 0x40	; 64
     620:	80 83       	st	Z, r24
     622:	91 83       	std	Z+1, r25	; 0x01
     624:	a2 83       	std	Z+2, r26	; 0x02
     626:	b3 83       	std	Z+3, r27	; 0x03
 */
void
_delay_ms(double __ms)
{
	uint16_t __ticks;
	double __tmp = ((F_CPU) / 4e3) * __ms;
     628:	8e 01       	movw	r16, r28
     62a:	01 5c       	subi	r16, 0xC1	; 193
     62c:	1f 4f       	sbci	r17, 0xFF	; 255
     62e:	fe 01       	movw	r30, r28
     630:	ed 5b       	subi	r30, 0xBD	; 189
     632:	ff 4f       	sbci	r31, 0xFF	; 255
     634:	60 81       	ld	r22, Z
     636:	71 81       	ldd	r23, Z+1	; 0x01
     638:	82 81       	ldd	r24, Z+2	; 0x02
     63a:	93 81       	ldd	r25, Z+3	; 0x03
     63c:	26 e6       	ldi	r18, 0x66	; 102
     63e:	36 e6       	ldi	r19, 0x66	; 102
     640:	46 e6       	ldi	r20, 0x66	; 102
     642:	55 e4       	ldi	r21, 0x45	; 69
     644:	0e 94 30 21 	call	0x4260	; 0x4260 <__mulsf3>
     648:	dc 01       	movw	r26, r24
     64a:	cb 01       	movw	r24, r22
     64c:	f8 01       	movw	r30, r16
     64e:	80 83       	st	Z, r24
     650:	91 83       	std	Z+1, r25	; 0x01
     652:	a2 83       	std	Z+2, r26	; 0x02
     654:	b3 83       	std	Z+3, r27	; 0x03
	if (__tmp < 1.0)
     656:	fe 01       	movw	r30, r28
     658:	ff 96       	adiw	r30, 0x3f	; 63
     65a:	60 81       	ld	r22, Z
     65c:	71 81       	ldd	r23, Z+1	; 0x01
     65e:	82 81       	ldd	r24, Z+2	; 0x02
     660:	93 81       	ldd	r25, Z+3	; 0x03
     662:	20 e0       	ldi	r18, 0x00	; 0
     664:	30 e0       	ldi	r19, 0x00	; 0
     666:	40 e8       	ldi	r20, 0x80	; 128
     668:	5f e3       	ldi	r21, 0x3F	; 63
     66a:	0e 94 36 23 	call	0x466c	; 0x466c <__ltsf2>
     66e:	88 23       	and	r24, r24
     670:	2c f4       	brge	.+10     	; 0x67c <lcd_set_4bit+0x528>
		__ticks = 1;
     672:	81 e0       	ldi	r24, 0x01	; 1
     674:	90 e0       	ldi	r25, 0x00	; 0
     676:	9e af       	std	Y+62, r25	; 0x3e
     678:	8d af       	std	Y+61, r24	; 0x3d
     67a:	46 c0       	rjmp	.+140    	; 0x708 <lcd_set_4bit+0x5b4>
	else if (__tmp > 65535)
     67c:	fe 01       	movw	r30, r28
     67e:	ff 96       	adiw	r30, 0x3f	; 63
     680:	60 81       	ld	r22, Z
     682:	71 81       	ldd	r23, Z+1	; 0x01
     684:	82 81       	ldd	r24, Z+2	; 0x02
     686:	93 81       	ldd	r25, Z+3	; 0x03
     688:	20 e0       	ldi	r18, 0x00	; 0
     68a:	3f ef       	ldi	r19, 0xFF	; 255
     68c:	4f e7       	ldi	r20, 0x7F	; 127
     68e:	57 e4       	ldi	r21, 0x47	; 71
     690:	0e 94 d6 22 	call	0x45ac	; 0x45ac <__gtsf2>
     694:	18 16       	cp	r1, r24
     696:	64 f5       	brge	.+88     	; 0x6f0 <lcd_set_4bit+0x59c>
	{
		//	__ticks = requested delay in 1/10 ms
		__ticks = (uint16_t) (__ms * 10.0);
     698:	fe 01       	movw	r30, r28
     69a:	ed 5b       	subi	r30, 0xBD	; 189
     69c:	ff 4f       	sbci	r31, 0xFF	; 255
     69e:	60 81       	ld	r22, Z
     6a0:	71 81       	ldd	r23, Z+1	; 0x01
     6a2:	82 81       	ldd	r24, Z+2	; 0x02
     6a4:	93 81       	ldd	r25, Z+3	; 0x03
     6a6:	20 e0       	ldi	r18, 0x00	; 0
     6a8:	30 e0       	ldi	r19, 0x00	; 0
     6aa:	40 e2       	ldi	r20, 0x20	; 32
     6ac:	51 e4       	ldi	r21, 0x41	; 65
     6ae:	0e 94 30 21 	call	0x4260	; 0x4260 <__mulsf3>
     6b2:	dc 01       	movw	r26, r24
     6b4:	cb 01       	movw	r24, r22
     6b6:	bc 01       	movw	r22, r24
     6b8:	cd 01       	movw	r24, r26
     6ba:	0e 94 5a 1f 	call	0x3eb4	; 0x3eb4 <__fixunssfsi>
     6be:	dc 01       	movw	r26, r24
     6c0:	cb 01       	movw	r24, r22
     6c2:	9e af       	std	Y+62, r25	; 0x3e
     6c4:	8d af       	std	Y+61, r24	; 0x3d
     6c6:	0f c0       	rjmp	.+30     	; 0x6e6 <lcd_set_4bit+0x592>
     6c8:	80 e7       	ldi	r24, 0x70	; 112
     6ca:	91 e0       	ldi	r25, 0x01	; 1
     6cc:	9c af       	std	Y+60, r25	; 0x3c
     6ce:	8b af       	std	Y+59, r24	; 0x3b
     6d0:	8b ad       	ldd	r24, Y+59	; 0x3b
     6d2:	9c ad       	ldd	r25, Y+60	; 0x3c
     6d4:	01 97       	sbiw	r24, 0x01	; 1
     6d6:	f1 f7       	brne	.-4      	; 0x6d4 <lcd_set_4bit+0x580>
     6d8:	9c af       	std	Y+60, r25	; 0x3c
     6da:	8b af       	std	Y+59, r24	; 0x3b
		while(__ticks)
		{
			// wait 1/10 ms
			_delay_loop_2(((F_CPU) / 4e3) / 10);
			__ticks --;
     6dc:	8d ad       	ldd	r24, Y+61	; 0x3d
     6de:	9e ad       	ldd	r25, Y+62	; 0x3e
     6e0:	01 97       	sbiw	r24, 0x01	; 1
     6e2:	9e af       	std	Y+62, r25	; 0x3e
     6e4:	8d af       	std	Y+61, r24	; 0x3d
		__ticks = 1;
	else if (__tmp > 65535)
	{
		//	__ticks = requested delay in 1/10 ms
		__ticks = (uint16_t) (__ms * 10.0);
		while(__ticks)
     6e6:	8d ad       	ldd	r24, Y+61	; 0x3d
     6e8:	9e ad       	ldd	r25, Y+62	; 0x3e
     6ea:	00 97       	sbiw	r24, 0x00	; 0
     6ec:	69 f7       	brne	.-38     	; 0x6c8 <lcd_set_4bit+0x574>
     6ee:	16 c0       	rjmp	.+44     	; 0x71c <lcd_set_4bit+0x5c8>
			__ticks --;
		}
		return;
	}
	else
		__ticks = (uint16_t)__tmp;
     6f0:	fe 01       	movw	r30, r28
     6f2:	ff 96       	adiw	r30, 0x3f	; 63
     6f4:	60 81       	ld	r22, Z
     6f6:	71 81       	ldd	r23, Z+1	; 0x01
     6f8:	82 81       	ldd	r24, Z+2	; 0x02
     6fa:	93 81       	ldd	r25, Z+3	; 0x03
     6fc:	0e 94 5a 1f 	call	0x3eb4	; 0x3eb4 <__fixunssfsi>
     700:	dc 01       	movw	r26, r24
     702:	cb 01       	movw	r24, r22
     704:	9e af       	std	Y+62, r25	; 0x3e
     706:	8d af       	std	Y+61, r24	; 0x3d
     708:	8d ad       	ldd	r24, Y+61	; 0x3d
     70a:	9e ad       	ldd	r25, Y+62	; 0x3e
     70c:	9a af       	std	Y+58, r25	; 0x3a
     70e:	89 af       	std	Y+57, r24	; 0x39
     710:	89 ad       	ldd	r24, Y+57	; 0x39
     712:	9a ad       	ldd	r25, Y+58	; 0x3a
     714:	01 97       	sbiw	r24, 0x01	; 1
     716:	f1 f7       	brne	.-4      	; 0x714 <lcd_set_4bit+0x5c0>
     718:	9a af       	std	Y+58, r25	; 0x3a
     71a:	89 af       	std	Y+57, r24	; 0x39
	_delay_ms(5);					//Delay
	cbit(lcd_port,EN);				//Clear Enable Pin
     71c:	a8 e2       	ldi	r26, 0x28	; 40
     71e:	b0 e0       	ldi	r27, 0x00	; 0
     720:	e8 e2       	ldi	r30, 0x28	; 40
     722:	f0 e0       	ldi	r31, 0x00	; 0
     724:	80 81       	ld	r24, Z
     726:	8b 7f       	andi	r24, 0xFB	; 251
     728:	8c 93       	st	X, r24
     72a:	80 e0       	ldi	r24, 0x00	; 0
     72c:	90 e0       	ldi	r25, 0x00	; 0
     72e:	a0 e8       	ldi	r26, 0x80	; 128
     730:	bf e3       	ldi	r27, 0x3F	; 63
     732:	8d ab       	std	Y+53, r24	; 0x35
     734:	9e ab       	std	Y+54, r25	; 0x36
     736:	af ab       	std	Y+55, r26	; 0x37
     738:	b8 af       	std	Y+56, r27	; 0x38
 */
void
_delay_ms(double __ms)
{
	uint16_t __ticks;
	double __tmp = ((F_CPU) / 4e3) * __ms;
     73a:	6d a9       	ldd	r22, Y+53	; 0x35
     73c:	7e a9       	ldd	r23, Y+54	; 0x36
     73e:	8f a9       	ldd	r24, Y+55	; 0x37
     740:	98 ad       	ldd	r25, Y+56	; 0x38
     742:	26 e6       	ldi	r18, 0x66	; 102
     744:	36 e6       	ldi	r19, 0x66	; 102
     746:	46 e6       	ldi	r20, 0x66	; 102
     748:	55 e4       	ldi	r21, 0x45	; 69
     74a:	0e 94 30 21 	call	0x4260	; 0x4260 <__mulsf3>
     74e:	dc 01       	movw	r26, r24
     750:	cb 01       	movw	r24, r22
     752:	89 ab       	std	Y+49, r24	; 0x31
     754:	9a ab       	std	Y+50, r25	; 0x32
     756:	ab ab       	std	Y+51, r26	; 0x33
     758:	bc ab       	std	Y+52, r27	; 0x34
	if (__tmp < 1.0)
     75a:	69 a9       	ldd	r22, Y+49	; 0x31
     75c:	7a a9       	ldd	r23, Y+50	; 0x32
     75e:	8b a9       	ldd	r24, Y+51	; 0x33
     760:	9c a9       	ldd	r25, Y+52	; 0x34
     762:	20 e0       	ldi	r18, 0x00	; 0
     764:	30 e0       	ldi	r19, 0x00	; 0
     766:	40 e8       	ldi	r20, 0x80	; 128
     768:	5f e3       	ldi	r21, 0x3F	; 63
     76a:	0e 94 36 23 	call	0x466c	; 0x466c <__ltsf2>
     76e:	88 23       	and	r24, r24
     770:	2c f4       	brge	.+10     	; 0x77c <lcd_set_4bit+0x628>
		__ticks = 1;
     772:	81 e0       	ldi	r24, 0x01	; 1
     774:	90 e0       	ldi	r25, 0x00	; 0
     776:	98 ab       	std	Y+48, r25	; 0x30
     778:	8f a7       	std	Y+47, r24	; 0x2f
     77a:	3f c0       	rjmp	.+126    	; 0x7fa <lcd_set_4bit+0x6a6>
	else if (__tmp > 65535)
     77c:	69 a9       	ldd	r22, Y+49	; 0x31
     77e:	7a a9       	ldd	r23, Y+50	; 0x32
     780:	8b a9       	ldd	r24, Y+51	; 0x33
     782:	9c a9       	ldd	r25, Y+52	; 0x34
     784:	20 e0       	ldi	r18, 0x00	; 0
     786:	3f ef       	ldi	r19, 0xFF	; 255
     788:	4f e7       	ldi	r20, 0x7F	; 127
     78a:	57 e4       	ldi	r21, 0x47	; 71
     78c:	0e 94 d6 22 	call	0x45ac	; 0x45ac <__gtsf2>
     790:	18 16       	cp	r1, r24
     792:	4c f5       	brge	.+82     	; 0x7e6 <lcd_set_4bit+0x692>
	{
		//	__ticks = requested delay in 1/10 ms
		__ticks = (uint16_t) (__ms * 10.0);
     794:	6d a9       	ldd	r22, Y+53	; 0x35
     796:	7e a9       	ldd	r23, Y+54	; 0x36
     798:	8f a9       	ldd	r24, Y+55	; 0x37
     79a:	98 ad       	ldd	r25, Y+56	; 0x38
     79c:	20 e0       	ldi	r18, 0x00	; 0
     79e:	30 e0       	ldi	r19, 0x00	; 0
     7a0:	40 e2       	ldi	r20, 0x20	; 32
     7a2:	51 e4       	ldi	r21, 0x41	; 65
     7a4:	0e 94 30 21 	call	0x4260	; 0x4260 <__mulsf3>
     7a8:	dc 01       	movw	r26, r24
     7aa:	cb 01       	movw	r24, r22
     7ac:	bc 01       	movw	r22, r24
     7ae:	cd 01       	movw	r24, r26
     7b0:	0e 94 5a 1f 	call	0x3eb4	; 0x3eb4 <__fixunssfsi>
     7b4:	dc 01       	movw	r26, r24
     7b6:	cb 01       	movw	r24, r22
     7b8:	98 ab       	std	Y+48, r25	; 0x30
     7ba:	8f a7       	std	Y+47, r24	; 0x2f
     7bc:	0f c0       	rjmp	.+30     	; 0x7dc <lcd_set_4bit+0x688>
     7be:	80 e7       	ldi	r24, 0x70	; 112
     7c0:	91 e0       	ldi	r25, 0x01	; 1
     7c2:	9e a7       	std	Y+46, r25	; 0x2e
     7c4:	8d a7       	std	Y+45, r24	; 0x2d
     7c6:	8d a5       	ldd	r24, Y+45	; 0x2d
     7c8:	9e a5       	ldd	r25, Y+46	; 0x2e
     7ca:	01 97       	sbiw	r24, 0x01	; 1
     7cc:	f1 f7       	brne	.-4      	; 0x7ca <lcd_set_4bit+0x676>
     7ce:	9e a7       	std	Y+46, r25	; 0x2e
     7d0:	8d a7       	std	Y+45, r24	; 0x2d
		while(__ticks)
		{
			// wait 1/10 ms
			_delay_loop_2(((F_CPU) / 4e3) / 10);
			__ticks --;
     7d2:	8f a5       	ldd	r24, Y+47	; 0x2f
     7d4:	98 a9       	ldd	r25, Y+48	; 0x30
     7d6:	01 97       	sbiw	r24, 0x01	; 1
     7d8:	98 ab       	std	Y+48, r25	; 0x30
     7da:	8f a7       	std	Y+47, r24	; 0x2f
		__ticks = 1;
	else if (__tmp > 65535)
	{
		//	__ticks = requested delay in 1/10 ms
		__ticks = (uint16_t) (__ms * 10.0);
		while(__ticks)
     7dc:	8f a5       	ldd	r24, Y+47	; 0x2f
     7de:	98 a9       	ldd	r25, Y+48	; 0x30
     7e0:	00 97       	sbiw	r24, 0x00	; 0
     7e2:	69 f7       	brne	.-38     	; 0x7be <lcd_set_4bit+0x66a>
     7e4:	14 c0       	rjmp	.+40     	; 0x80e <lcd_set_4bit+0x6ba>
			__ticks --;
		}
		return;
	}
	else
		__ticks = (uint16_t)__tmp;
     7e6:	69 a9       	ldd	r22, Y+49	; 0x31
     7e8:	7a a9       	ldd	r23, Y+50	; 0x32
     7ea:	8b a9       	ldd	r24, Y+51	; 0x33
     7ec:	9c a9       	ldd	r25, Y+52	; 0x34
     7ee:	0e 94 5a 1f 	call	0x3eb4	; 0x3eb4 <__fixunssfsi>
     7f2:	dc 01       	movw	r26, r24
     7f4:	cb 01       	movw	r24, r22
     7f6:	98 ab       	std	Y+48, r25	; 0x30
     7f8:	8f a7       	std	Y+47, r24	; 0x2f
     7fa:	8f a5       	ldd	r24, Y+47	; 0x2f
     7fc:	98 a9       	ldd	r25, Y+48	; 0x30
     7fe:	9c a7       	std	Y+44, r25	; 0x2c
     800:	8b a7       	std	Y+43, r24	; 0x2b
     802:	8b a5       	ldd	r24, Y+43	; 0x2b
     804:	9c a5       	ldd	r25, Y+44	; 0x2c
     806:	01 97       	sbiw	r24, 0x01	; 1
     808:	f1 f7       	brne	.-4      	; 0x806 <lcd_set_4bit+0x6b2>
     80a:	9c a7       	std	Y+44, r25	; 0x2c
     80c:	8b a7       	std	Y+43, r24	; 0x2b

	_delay_ms(1);

	cbit(lcd_port,RS);				//RS=0 --- Command Input
     80e:	a8 e2       	ldi	r26, 0x28	; 40
     810:	b0 e0       	ldi	r27, 0x00	; 0
     812:	e8 e2       	ldi	r30, 0x28	; 40
     814:	f0 e0       	ldi	r31, 0x00	; 0
     816:	80 81       	ld	r24, Z
     818:	8e 7f       	andi	r24, 0xFE	; 254
     81a:	8c 93       	st	X, r24
	cbit(lcd_port,RW);				//RW=0 --- Writing to LCD
     81c:	a8 e2       	ldi	r26, 0x28	; 40
     81e:	b0 e0       	ldi	r27, 0x00	; 0
     820:	e8 e2       	ldi	r30, 0x28	; 40
     822:	f0 e0       	ldi	r31, 0x00	; 0
     824:	80 81       	ld	r24, Z
     826:	8d 7f       	andi	r24, 0xFD	; 253
     828:	8c 93       	st	X, r24
	lcd_port = 0x30;				//Sending 3
     82a:	e8 e2       	ldi	r30, 0x28	; 40
     82c:	f0 e0       	ldi	r31, 0x00	; 0
     82e:	80 e3       	ldi	r24, 0x30	; 48
     830:	80 83       	st	Z, r24
	sbit(lcd_port,EN);				//Set Enable Pin
     832:	a8 e2       	ldi	r26, 0x28	; 40
     834:	b0 e0       	ldi	r27, 0x00	; 0
     836:	e8 e2       	ldi	r30, 0x28	; 40
     838:	f0 e0       	ldi	r31, 0x00	; 0
     83a:	80 81       	ld	r24, Z
     83c:	84 60       	ori	r24, 0x04	; 4
     83e:	8c 93       	st	X, r24
     840:	80 e0       	ldi	r24, 0x00	; 0
     842:	90 e0       	ldi	r25, 0x00	; 0
     844:	a0 ea       	ldi	r26, 0xA0	; 160
     846:	b0 e4       	ldi	r27, 0x40	; 64
     848:	8f a3       	std	Y+39, r24	; 0x27
     84a:	98 a7       	std	Y+40, r25	; 0x28
     84c:	a9 a7       	std	Y+41, r26	; 0x29
     84e:	ba a7       	std	Y+42, r27	; 0x2a
 */
void
_delay_ms(double __ms)
{
	uint16_t __ticks;
	double __tmp = ((F_CPU) / 4e3) * __ms;
     850:	6f a1       	ldd	r22, Y+39	; 0x27
     852:	78 a5       	ldd	r23, Y+40	; 0x28
     854:	89 a5       	ldd	r24, Y+41	; 0x29
     856:	9a a5       	ldd	r25, Y+42	; 0x2a
     858:	26 e6       	ldi	r18, 0x66	; 102
     85a:	36 e6       	ldi	r19, 0x66	; 102
     85c:	46 e6       	ldi	r20, 0x66	; 102
     85e:	55 e4       	ldi	r21, 0x45	; 69
     860:	0e 94 30 21 	call	0x4260	; 0x4260 <__mulsf3>
     864:	dc 01       	movw	r26, r24
     866:	cb 01       	movw	r24, r22
     868:	8b a3       	std	Y+35, r24	; 0x23
     86a:	9c a3       	std	Y+36, r25	; 0x24
     86c:	ad a3       	std	Y+37, r26	; 0x25
     86e:	be a3       	std	Y+38, r27	; 0x26
	if (__tmp < 1.0)
     870:	6b a1       	ldd	r22, Y+35	; 0x23
     872:	7c a1       	ldd	r23, Y+36	; 0x24
     874:	8d a1       	ldd	r24, Y+37	; 0x25
     876:	9e a1       	ldd	r25, Y+38	; 0x26
     878:	20 e0       	ldi	r18, 0x00	; 0
     87a:	30 e0       	ldi	r19, 0x00	; 0
     87c:	40 e8       	ldi	r20, 0x80	; 128
     87e:	5f e3       	ldi	r21, 0x3F	; 63
     880:	0e 94 36 23 	call	0x466c	; 0x466c <__ltsf2>
     884:	88 23       	and	r24, r24
     886:	2c f4       	brge	.+10     	; 0x892 <lcd_set_4bit+0x73e>
		__ticks = 1;
     888:	81 e0       	ldi	r24, 0x01	; 1
     88a:	90 e0       	ldi	r25, 0x00	; 0
     88c:	9a a3       	std	Y+34, r25	; 0x22
     88e:	89 a3       	std	Y+33, r24	; 0x21
     890:	3f c0       	rjmp	.+126    	; 0x910 <lcd_set_4bit+0x7bc>
	else if (__tmp > 65535)
     892:	6b a1       	ldd	r22, Y+35	; 0x23
     894:	7c a1       	ldd	r23, Y+36	; 0x24
     896:	8d a1       	ldd	r24, Y+37	; 0x25
     898:	9e a1       	ldd	r25, Y+38	; 0x26
     89a:	20 e0       	ldi	r18, 0x00	; 0
     89c:	3f ef       	ldi	r19, 0xFF	; 255
     89e:	4f e7       	ldi	r20, 0x7F	; 127
     8a0:	57 e4       	ldi	r21, 0x47	; 71
     8a2:	0e 94 d6 22 	call	0x45ac	; 0x45ac <__gtsf2>
     8a6:	18 16       	cp	r1, r24
     8a8:	4c f5       	brge	.+82     	; 0x8fc <lcd_set_4bit+0x7a8>
	{
		//	__ticks = requested delay in 1/10 ms
		__ticks = (uint16_t) (__ms * 10.0);
     8aa:	6f a1       	ldd	r22, Y+39	; 0x27
     8ac:	78 a5       	ldd	r23, Y+40	; 0x28
     8ae:	89 a5       	ldd	r24, Y+41	; 0x29
     8b0:	9a a5       	ldd	r25, Y+42	; 0x2a
     8b2:	20 e0       	ldi	r18, 0x00	; 0
     8b4:	30 e0       	ldi	r19, 0x00	; 0
     8b6:	40 e2       	ldi	r20, 0x20	; 32
     8b8:	51 e4       	ldi	r21, 0x41	; 65
     8ba:	0e 94 30 21 	call	0x4260	; 0x4260 <__mulsf3>
     8be:	dc 01       	movw	r26, r24
     8c0:	cb 01       	movw	r24, r22
     8c2:	bc 01       	movw	r22, r24
     8c4:	cd 01       	movw	r24, r26
     8c6:	0e 94 5a 1f 	call	0x3eb4	; 0x3eb4 <__fixunssfsi>
     8ca:	dc 01       	movw	r26, r24
     8cc:	cb 01       	movw	r24, r22
     8ce:	9a a3       	std	Y+34, r25	; 0x22
     8d0:	89 a3       	std	Y+33, r24	; 0x21
     8d2:	0f c0       	rjmp	.+30     	; 0x8f2 <lcd_set_4bit+0x79e>
     8d4:	80 e7       	ldi	r24, 0x70	; 112
     8d6:	91 e0       	ldi	r25, 0x01	; 1
     8d8:	98 a3       	std	Y+32, r25	; 0x20
     8da:	8f 8f       	std	Y+31, r24	; 0x1f
     8dc:	8f 8d       	ldd	r24, Y+31	; 0x1f
     8de:	98 a1       	ldd	r25, Y+32	; 0x20
     8e0:	01 97       	sbiw	r24, 0x01	; 1
     8e2:	f1 f7       	brne	.-4      	; 0x8e0 <lcd_set_4bit+0x78c>
     8e4:	98 a3       	std	Y+32, r25	; 0x20
     8e6:	8f 8f       	std	Y+31, r24	; 0x1f
		while(__ticks)
		{
			// wait 1/10 ms
			_delay_loop_2(((F_CPU) / 4e3) / 10);
			__ticks --;
     8e8:	89 a1       	ldd	r24, Y+33	; 0x21
     8ea:	9a a1       	ldd	r25, Y+34	; 0x22
     8ec:	01 97       	sbiw	r24, 0x01	; 1
     8ee:	9a a3       	std	Y+34, r25	; 0x22
     8f0:	89 a3       	std	Y+33, r24	; 0x21
		__ticks = 1;
	else if (__tmp > 65535)
	{
		//	__ticks = requested delay in 1/10 ms
		__ticks = (uint16_t) (__ms * 10.0);
		while(__ticks)
     8f2:	89 a1       	ldd	r24, Y+33	; 0x21
     8f4:	9a a1       	ldd	r25, Y+34	; 0x22
     8f6:	00 97       	sbiw	r24, 0x00	; 0
     8f8:	69 f7       	brne	.-38     	; 0x8d4 <lcd_set_4bit+0x780>
     8fa:	14 c0       	rjmp	.+40     	; 0x924 <lcd_set_4bit+0x7d0>
			__ticks --;
		}
		return;
	}
	else
		__ticks = (uint16_t)__tmp;
     8fc:	6b a1       	ldd	r22, Y+35	; 0x23
     8fe:	7c a1       	ldd	r23, Y+36	; 0x24
     900:	8d a1       	ldd	r24, Y+37	; 0x25
     902:	9e a1       	ldd	r25, Y+38	; 0x26
     904:	0e 94 5a 1f 	call	0x3eb4	; 0x3eb4 <__fixunssfsi>
     908:	dc 01       	movw	r26, r24
     90a:	cb 01       	movw	r24, r22
     90c:	9a a3       	std	Y+34, r25	; 0x22
     90e:	89 a3       	std	Y+33, r24	; 0x21
     910:	89 a1       	ldd	r24, Y+33	; 0x21
     912:	9a a1       	ldd	r25, Y+34	; 0x22
     914:	9e 8f       	std	Y+30, r25	; 0x1e
     916:	8d 8f       	std	Y+29, r24	; 0x1d
     918:	8d 8d       	ldd	r24, Y+29	; 0x1d
     91a:	9e 8d       	ldd	r25, Y+30	; 0x1e
     91c:	01 97       	sbiw	r24, 0x01	; 1
     91e:	f1 f7       	brne	.-4      	; 0x91c <lcd_set_4bit+0x7c8>
     920:	9e 8f       	std	Y+30, r25	; 0x1e
     922:	8d 8f       	std	Y+29, r24	; 0x1d
	_delay_ms(5);					//Delay
	cbit(lcd_port,EN);				//Clear Enable Pin
     924:	a8 e2       	ldi	r26, 0x28	; 40
     926:	b0 e0       	ldi	r27, 0x00	; 0
     928:	e8 e2       	ldi	r30, 0x28	; 40
     92a:	f0 e0       	ldi	r31, 0x00	; 0
     92c:	80 81       	ld	r24, Z
     92e:	8b 7f       	andi	r24, 0xFB	; 251
     930:	8c 93       	st	X, r24
     932:	80 e0       	ldi	r24, 0x00	; 0
     934:	90 e0       	ldi	r25, 0x00	; 0
     936:	a0 e8       	ldi	r26, 0x80	; 128
     938:	bf e3       	ldi	r27, 0x3F	; 63
     93a:	89 8f       	std	Y+25, r24	; 0x19
     93c:	9a 8f       	std	Y+26, r25	; 0x1a
     93e:	ab 8f       	std	Y+27, r26	; 0x1b
     940:	bc 8f       	std	Y+28, r27	; 0x1c
 */
void
_delay_ms(double __ms)
{
	uint16_t __ticks;
	double __tmp = ((F_CPU) / 4e3) * __ms;
     942:	69 8d       	ldd	r22, Y+25	; 0x19
     944:	7a 8d       	ldd	r23, Y+26	; 0x1a
     946:	8b 8d       	ldd	r24, Y+27	; 0x1b
     948:	9c 8d       	ldd	r25, Y+28	; 0x1c
     94a:	26 e6       	ldi	r18, 0x66	; 102
     94c:	36 e6       	ldi	r19, 0x66	; 102
     94e:	46 e6       	ldi	r20, 0x66	; 102
     950:	55 e4       	ldi	r21, 0x45	; 69
     952:	0e 94 30 21 	call	0x4260	; 0x4260 <__mulsf3>
     956:	dc 01       	movw	r26, r24
     958:	cb 01       	movw	r24, r22
     95a:	8d 8b       	std	Y+21, r24	; 0x15
     95c:	9e 8b       	std	Y+22, r25	; 0x16
     95e:	af 8b       	std	Y+23, r26	; 0x17
     960:	b8 8f       	std	Y+24, r27	; 0x18
	if (__tmp < 1.0)
     962:	6d 89       	ldd	r22, Y+21	; 0x15
     964:	7e 89       	ldd	r23, Y+22	; 0x16
     966:	8f 89       	ldd	r24, Y+23	; 0x17
     968:	98 8d       	ldd	r25, Y+24	; 0x18
     96a:	20 e0       	ldi	r18, 0x00	; 0
     96c:	30 e0       	ldi	r19, 0x00	; 0
     96e:	40 e8       	ldi	r20, 0x80	; 128
     970:	5f e3       	ldi	r21, 0x3F	; 63
     972:	0e 94 36 23 	call	0x466c	; 0x466c <__ltsf2>
     976:	88 23       	and	r24, r24
     978:	2c f4       	brge	.+10     	; 0x984 <lcd_set_4bit+0x830>
		__ticks = 1;
     97a:	81 e0       	ldi	r24, 0x01	; 1
     97c:	90 e0       	ldi	r25, 0x00	; 0
     97e:	9c 8b       	std	Y+20, r25	; 0x14
     980:	8b 8b       	std	Y+19, r24	; 0x13
     982:	3f c0       	rjmp	.+126    	; 0xa02 <lcd_set_4bit+0x8ae>
	else if (__tmp > 65535)
     984:	6d 89       	ldd	r22, Y+21	; 0x15
     986:	7e 89       	ldd	r23, Y+22	; 0x16
     988:	8f 89       	ldd	r24, Y+23	; 0x17
     98a:	98 8d       	ldd	r25, Y+24	; 0x18
     98c:	20 e0       	ldi	r18, 0x00	; 0
     98e:	3f ef       	ldi	r19, 0xFF	; 255
     990:	4f e7       	ldi	r20, 0x7F	; 127
     992:	57 e4       	ldi	r21, 0x47	; 71
     994:	0e 94 d6 22 	call	0x45ac	; 0x45ac <__gtsf2>
     998:	18 16       	cp	r1, r24
     99a:	4c f5       	brge	.+82     	; 0x9ee <lcd_set_4bit+0x89a>
	{
		//	__ticks = requested delay in 1/10 ms
		__ticks = (uint16_t) (__ms * 10.0);
     99c:	69 8d       	ldd	r22, Y+25	; 0x19
     99e:	7a 8d       	ldd	r23, Y+26	; 0x1a
     9a0:	8b 8d       	ldd	r24, Y+27	; 0x1b
     9a2:	9c 8d       	ldd	r25, Y+28	; 0x1c
     9a4:	20 e0       	ldi	r18, 0x00	; 0
     9a6:	30 e0       	ldi	r19, 0x00	; 0
     9a8:	40 e2       	ldi	r20, 0x20	; 32
     9aa:	51 e4       	ldi	r21, 0x41	; 65
     9ac:	0e 94 30 21 	call	0x4260	; 0x4260 <__mulsf3>
     9b0:	dc 01       	movw	r26, r24
     9b2:	cb 01       	movw	r24, r22
     9b4:	bc 01       	movw	r22, r24
     9b6:	cd 01       	movw	r24, r26
     9b8:	0e 94 5a 1f 	call	0x3eb4	; 0x3eb4 <__fixunssfsi>
     9bc:	dc 01       	movw	r26, r24
     9be:	cb 01       	movw	r24, r22
     9c0:	9c 8b       	std	Y+20, r25	; 0x14
     9c2:	8b 8b       	std	Y+19, r24	; 0x13
     9c4:	0f c0       	rjmp	.+30     	; 0x9e4 <lcd_set_4bit+0x890>
     9c6:	80 e7       	ldi	r24, 0x70	; 112
     9c8:	91 e0       	ldi	r25, 0x01	; 1
     9ca:	9a 8b       	std	Y+18, r25	; 0x12
     9cc:	89 8b       	std	Y+17, r24	; 0x11
     9ce:	89 89       	ldd	r24, Y+17	; 0x11
     9d0:	9a 89       	ldd	r25, Y+18	; 0x12
     9d2:	01 97       	sbiw	r24, 0x01	; 1
     9d4:	f1 f7       	brne	.-4      	; 0x9d2 <lcd_set_4bit+0x87e>
     9d6:	9a 8b       	std	Y+18, r25	; 0x12
     9d8:	89 8b       	std	Y+17, r24	; 0x11
		while(__ticks)
		{
			// wait 1/10 ms
			_delay_loop_2(((F_CPU) / 4e3) / 10);
			__ticks --;
     9da:	8b 89       	ldd	r24, Y+19	; 0x13
     9dc:	9c 89       	ldd	r25, Y+20	; 0x14
     9de:	01 97       	sbiw	r24, 0x01	; 1
     9e0:	9c 8b       	std	Y+20, r25	; 0x14
     9e2:	8b 8b       	std	Y+19, r24	; 0x13
		__ticks = 1;
	else if (__tmp > 65535)
	{
		//	__ticks = requested delay in 1/10 ms
		__ticks = (uint16_t) (__ms * 10.0);
		while(__ticks)
     9e4:	8b 89       	ldd	r24, Y+19	; 0x13
     9e6:	9c 89       	ldd	r25, Y+20	; 0x14
     9e8:	00 97       	sbiw	r24, 0x00	; 0
     9ea:	69 f7       	brne	.-38     	; 0x9c6 <lcd_set_4bit+0x872>
     9ec:	14 c0       	rjmp	.+40     	; 0xa16 <lcd_set_4bit+0x8c2>
			__ticks --;
		}
		return;
	}
	else
		__ticks = (uint16_t)__tmp;
     9ee:	6d 89       	ldd	r22, Y+21	; 0x15
     9f0:	7e 89       	ldd	r23, Y+22	; 0x16
     9f2:	8f 89       	ldd	r24, Y+23	; 0x17
     9f4:	98 8d       	ldd	r25, Y+24	; 0x18
     9f6:	0e 94 5a 1f 	call	0x3eb4	; 0x3eb4 <__fixunssfsi>
     9fa:	dc 01       	movw	r26, r24
     9fc:	cb 01       	movw	r24, r22
     9fe:	9c 8b       	std	Y+20, r25	; 0x14
     a00:	8b 8b       	std	Y+19, r24	; 0x13
     a02:	8b 89       	ldd	r24, Y+19	; 0x13
     a04:	9c 89       	ldd	r25, Y+20	; 0x14
     a06:	98 8b       	std	Y+16, r25	; 0x10
     a08:	8f 87       	std	Y+15, r24	; 0x0f
     a0a:	8f 85       	ldd	r24, Y+15	; 0x0f
     a0c:	98 89       	ldd	r25, Y+16	; 0x10
     a0e:	01 97       	sbiw	r24, 0x01	; 1
     a10:	f1 f7       	brne	.-4      	; 0xa0e <lcd_set_4bit+0x8ba>
     a12:	98 8b       	std	Y+16, r25	; 0x10
     a14:	8f 87       	std	Y+15, r24	; 0x0f

	_delay_ms(1);

	cbit(lcd_port,RS);				//RS=0 --- Command Input
     a16:	a8 e2       	ldi	r26, 0x28	; 40
     a18:	b0 e0       	ldi	r27, 0x00	; 0
     a1a:	e8 e2       	ldi	r30, 0x28	; 40
     a1c:	f0 e0       	ldi	r31, 0x00	; 0
     a1e:	80 81       	ld	r24, Z
     a20:	8e 7f       	andi	r24, 0xFE	; 254
     a22:	8c 93       	st	X, r24
	cbit(lcd_port,RW);				//RW=0 --- Writing to LCD
     a24:	a8 e2       	ldi	r26, 0x28	; 40
     a26:	b0 e0       	ldi	r27, 0x00	; 0
     a28:	e8 e2       	ldi	r30, 0x28	; 40
     a2a:	f0 e0       	ldi	r31, 0x00	; 0
     a2c:	80 81       	ld	r24, Z
     a2e:	8d 7f       	andi	r24, 0xFD	; 253
     a30:	8c 93       	st	X, r24
	lcd_port = 0x20;				//Sending 2 to initialise LCD 4-bit mode
     a32:	e8 e2       	ldi	r30, 0x28	; 40
     a34:	f0 e0       	ldi	r31, 0x00	; 0
     a36:	80 e2       	ldi	r24, 0x20	; 32
     a38:	80 83       	st	Z, r24
	sbit(lcd_port,EN);				//Set Enable Pin
     a3a:	a8 e2       	ldi	r26, 0x28	; 40
     a3c:	b0 e0       	ldi	r27, 0x00	; 0
     a3e:	e8 e2       	ldi	r30, 0x28	; 40
     a40:	f0 e0       	ldi	r31, 0x00	; 0
     a42:	80 81       	ld	r24, Z
     a44:	84 60       	ori	r24, 0x04	; 4
     a46:	8c 93       	st	X, r24
     a48:	80 e0       	ldi	r24, 0x00	; 0
     a4a:	90 e0       	ldi	r25, 0x00	; 0
     a4c:	a0 ea       	ldi	r26, 0xA0	; 160
     a4e:	b0 e4       	ldi	r27, 0x40	; 64
     a50:	8b 87       	std	Y+11, r24	; 0x0b
     a52:	9c 87       	std	Y+12, r25	; 0x0c
     a54:	ad 87       	std	Y+13, r26	; 0x0d
     a56:	be 87       	std	Y+14, r27	; 0x0e
 */
void
_delay_ms(double __ms)
{
	uint16_t __ticks;
	double __tmp = ((F_CPU) / 4e3) * __ms;
     a58:	6b 85       	ldd	r22, Y+11	; 0x0b
     a5a:	7c 85       	ldd	r23, Y+12	; 0x0c
     a5c:	8d 85       	ldd	r24, Y+13	; 0x0d
     a5e:	9e 85       	ldd	r25, Y+14	; 0x0e
     a60:	26 e6       	ldi	r18, 0x66	; 102
     a62:	36 e6       	ldi	r19, 0x66	; 102
     a64:	46 e6       	ldi	r20, 0x66	; 102
     a66:	55 e4       	ldi	r21, 0x45	; 69
     a68:	0e 94 30 21 	call	0x4260	; 0x4260 <__mulsf3>
     a6c:	dc 01       	movw	r26, r24
     a6e:	cb 01       	movw	r24, r22
     a70:	8f 83       	std	Y+7, r24	; 0x07
     a72:	98 87       	std	Y+8, r25	; 0x08
     a74:	a9 87       	std	Y+9, r26	; 0x09
     a76:	ba 87       	std	Y+10, r27	; 0x0a
	if (__tmp < 1.0)
     a78:	6f 81       	ldd	r22, Y+7	; 0x07
     a7a:	78 85       	ldd	r23, Y+8	; 0x08
     a7c:	89 85       	ldd	r24, Y+9	; 0x09
     a7e:	9a 85       	ldd	r25, Y+10	; 0x0a
     a80:	20 e0       	ldi	r18, 0x00	; 0
     a82:	30 e0       	ldi	r19, 0x00	; 0
     a84:	40 e8       	ldi	r20, 0x80	; 128
     a86:	5f e3       	ldi	r21, 0x3F	; 63
     a88:	0e 94 36 23 	call	0x466c	; 0x466c <__ltsf2>
     a8c:	88 23       	and	r24, r24
     a8e:	2c f4       	brge	.+10     	; 0xa9a <lcd_set_4bit+0x946>
		__ticks = 1;
     a90:	81 e0       	ldi	r24, 0x01	; 1
     a92:	90 e0       	ldi	r25, 0x00	; 0
     a94:	9e 83       	std	Y+6, r25	; 0x06
     a96:	8d 83       	std	Y+5, r24	; 0x05
     a98:	3f c0       	rjmp	.+126    	; 0xb18 <lcd_set_4bit+0x9c4>
	else if (__tmp > 65535)
     a9a:	6f 81       	ldd	r22, Y+7	; 0x07
     a9c:	78 85       	ldd	r23, Y+8	; 0x08
     a9e:	89 85       	ldd	r24, Y+9	; 0x09
     aa0:	9a 85       	ldd	r25, Y+10	; 0x0a
     aa2:	20 e0       	ldi	r18, 0x00	; 0
     aa4:	3f ef       	ldi	r19, 0xFF	; 255
     aa6:	4f e7       	ldi	r20, 0x7F	; 127
     aa8:	57 e4       	ldi	r21, 0x47	; 71
     aaa:	0e 94 d6 22 	call	0x45ac	; 0x45ac <__gtsf2>
     aae:	18 16       	cp	r1, r24
     ab0:	4c f5       	brge	.+82     	; 0xb04 <lcd_set_4bit+0x9b0>
	{
		//	__ticks = requested delay in 1/10 ms
		__ticks = (uint16_t) (__ms * 10.0);
     ab2:	6b 85       	ldd	r22, Y+11	; 0x0b
     ab4:	7c 85       	ldd	r23, Y+12	; 0x0c
     ab6:	8d 85       	ldd	r24, Y+13	; 0x0d
     ab8:	9e 85       	ldd	r25, Y+14	; 0x0e
     aba:	20 e0       	ldi	r18, 0x00	; 0
     abc:	30 e0       	ldi	r19, 0x00	; 0
     abe:	40 e2       	ldi	r20, 0x20	; 32
     ac0:	51 e4       	ldi	r21, 0x41	; 65
     ac2:	0e 94 30 21 	call	0x4260	; 0x4260 <__mulsf3>
     ac6:	dc 01       	movw	r26, r24
     ac8:	cb 01       	movw	r24, r22
     aca:	bc 01       	movw	r22, r24
     acc:	cd 01       	movw	r24, r26
     ace:	0e 94 5a 1f 	call	0x3eb4	; 0x3eb4 <__fixunssfsi>
     ad2:	dc 01       	movw	r26, r24
     ad4:	cb 01       	movw	r24, r22
     ad6:	9e 83       	std	Y+6, r25	; 0x06
     ad8:	8d 83       	std	Y+5, r24	; 0x05
     ada:	0f c0       	rjmp	.+30     	; 0xafa <lcd_set_4bit+0x9a6>
     adc:	80 e7       	ldi	r24, 0x70	; 112
     ade:	91 e0       	ldi	r25, 0x01	; 1
     ae0:	9c 83       	std	Y+4, r25	; 0x04
     ae2:	8b 83       	std	Y+3, r24	; 0x03
     ae4:	8b 81       	ldd	r24, Y+3	; 0x03
     ae6:	9c 81       	ldd	r25, Y+4	; 0x04
     ae8:	01 97       	sbiw	r24, 0x01	; 1
     aea:	f1 f7       	brne	.-4      	; 0xae8 <lcd_set_4bit+0x994>
     aec:	9c 83       	std	Y+4, r25	; 0x04
     aee:	8b 83       	std	Y+3, r24	; 0x03
		while(__ticks)
		{
			// wait 1/10 ms
			_delay_loop_2(((F_CPU) / 4e3) / 10);
			__ticks --;
     af0:	8d 81       	ldd	r24, Y+5	; 0x05
     af2:	9e 81       	ldd	r25, Y+6	; 0x06
     af4:	01 97       	sbiw	r24, 0x01	; 1
     af6:	9e 83       	std	Y+6, r25	; 0x06
     af8:	8d 83       	std	Y+5, r24	; 0x05
		__ticks = 1;
	else if (__tmp > 65535)
	{
		//	__ticks = requested delay in 1/10 ms
		__ticks = (uint16_t) (__ms * 10.0);
		while(__ticks)
     afa:	8d 81       	ldd	r24, Y+5	; 0x05
     afc:	9e 81       	ldd	r25, Y+6	; 0x06
     afe:	00 97       	sbiw	r24, 0x00	; 0
     b00:	69 f7       	brne	.-38     	; 0xadc <lcd_set_4bit+0x988>
     b02:	14 c0       	rjmp	.+40     	; 0xb2c <lcd_set_4bit+0x9d8>
			__ticks --;
		}
		return;
	}
	else
		__ticks = (uint16_t)__tmp;
     b04:	6f 81       	ldd	r22, Y+7	; 0x07
     b06:	78 85       	ldd	r23, Y+8	; 0x08
     b08:	89 85       	ldd	r24, Y+9	; 0x09
     b0a:	9a 85       	ldd	r25, Y+10	; 0x0a
     b0c:	0e 94 5a 1f 	call	0x3eb4	; 0x3eb4 <__fixunssfsi>
     b10:	dc 01       	movw	r26, r24
     b12:	cb 01       	movw	r24, r22
     b14:	9e 83       	std	Y+6, r25	; 0x06
     b16:	8d 83       	std	Y+5, r24	; 0x05
     b18:	8d 81       	ldd	r24, Y+5	; 0x05
     b1a:	9e 81       	ldd	r25, Y+6	; 0x06
     b1c:	9a 83       	std	Y+2, r25	; 0x02
     b1e:	89 83       	std	Y+1, r24	; 0x01
     b20:	89 81       	ldd	r24, Y+1	; 0x01
     b22:	9a 81       	ldd	r25, Y+2	; 0x02
     b24:	01 97       	sbiw	r24, 0x01	; 1
     b26:	f1 f7       	brne	.-4      	; 0xb24 <lcd_set_4bit+0x9d0>
     b28:	9a 83       	std	Y+2, r25	; 0x02
     b2a:	89 83       	std	Y+1, r24	; 0x01
	_delay_ms(5);					//Delay
	cbit(lcd_port,EN);				//Clear Enable Pin
     b2c:	a8 e2       	ldi	r26, 0x28	; 40
     b2e:	b0 e0       	ldi	r27, 0x00	; 0
     b30:	e8 e2       	ldi	r30, 0x28	; 40
     b32:	f0 e0       	ldi	r31, 0x00	; 0
     b34:	80 81       	ld	r24, Z
     b36:	8b 7f       	andi	r24, 0xFB	; 251
     b38:	8c 93       	st	X, r24

	
}
     b3a:	c0 59       	subi	r28, 0x90	; 144
     b3c:	df 4f       	sbci	r29, 0xFF	; 255
     b3e:	0f b6       	in	r0, 0x3f	; 63
     b40:	f8 94       	cli
     b42:	de bf       	out	0x3e, r29	; 62
     b44:	0f be       	out	0x3f, r0	; 63
     b46:	cd bf       	out	0x3d, r28	; 61
     b48:	cf 91       	pop	r28
     b4a:	df 91       	pop	r29
     b4c:	1f 91       	pop	r17
     b4e:	0f 91       	pop	r16
     b50:	08 95       	ret

00000b52 <lcd_init>:

//Function to Initialize LCD
void lcd_init()
{
     b52:	df 93       	push	r29
     b54:	cf 93       	push	r28
     b56:	cd b7       	in	r28, 0x3d	; 61
     b58:	de b7       	in	r29, 0x3e	; 62
     b5a:	2e 97       	sbiw	r28, 0x0e	; 14
     b5c:	0f b6       	in	r0, 0x3f	; 63
     b5e:	f8 94       	cli
     b60:	de bf       	out	0x3e, r29	; 62
     b62:	0f be       	out	0x3f, r0	; 63
     b64:	cd bf       	out	0x3d, r28	; 61
	lcd_set_4bit();
     b66:	0e 94 aa 00 	call	0x154	; 0x154 <lcd_set_4bit>
     b6a:	80 e0       	ldi	r24, 0x00	; 0
     b6c:	90 e0       	ldi	r25, 0x00	; 0
     b6e:	a0 e8       	ldi	r26, 0x80	; 128
     b70:	bf e3       	ldi	r27, 0x3F	; 63
     b72:	8b 87       	std	Y+11, r24	; 0x0b
     b74:	9c 87       	std	Y+12, r25	; 0x0c
     b76:	ad 87       	std	Y+13, r26	; 0x0d
     b78:	be 87       	std	Y+14, r27	; 0x0e
 */
void
_delay_ms(double __ms)
{
	uint16_t __ticks;
	double __tmp = ((F_CPU) / 4e3) * __ms;
     b7a:	6b 85       	ldd	r22, Y+11	; 0x0b
     b7c:	7c 85       	ldd	r23, Y+12	; 0x0c
     b7e:	8d 85       	ldd	r24, Y+13	; 0x0d
     b80:	9e 85       	ldd	r25, Y+14	; 0x0e
     b82:	26 e6       	ldi	r18, 0x66	; 102
     b84:	36 e6       	ldi	r19, 0x66	; 102
     b86:	46 e6       	ldi	r20, 0x66	; 102
     b88:	55 e4       	ldi	r21, 0x45	; 69
     b8a:	0e 94 30 21 	call	0x4260	; 0x4260 <__mulsf3>
     b8e:	dc 01       	movw	r26, r24
     b90:	cb 01       	movw	r24, r22
     b92:	8f 83       	std	Y+7, r24	; 0x07
     b94:	98 87       	std	Y+8, r25	; 0x08
     b96:	a9 87       	std	Y+9, r26	; 0x09
     b98:	ba 87       	std	Y+10, r27	; 0x0a
	if (__tmp < 1.0)
     b9a:	6f 81       	ldd	r22, Y+7	; 0x07
     b9c:	78 85       	ldd	r23, Y+8	; 0x08
     b9e:	89 85       	ldd	r24, Y+9	; 0x09
     ba0:	9a 85       	ldd	r25, Y+10	; 0x0a
     ba2:	20 e0       	ldi	r18, 0x00	; 0
     ba4:	30 e0       	ldi	r19, 0x00	; 0
     ba6:	40 e8       	ldi	r20, 0x80	; 128
     ba8:	5f e3       	ldi	r21, 0x3F	; 63
     baa:	0e 94 36 23 	call	0x466c	; 0x466c <__ltsf2>
     bae:	88 23       	and	r24, r24
     bb0:	2c f4       	brge	.+10     	; 0xbbc <lcd_init+0x6a>
		__ticks = 1;
     bb2:	81 e0       	ldi	r24, 0x01	; 1
     bb4:	90 e0       	ldi	r25, 0x00	; 0
     bb6:	9e 83       	std	Y+6, r25	; 0x06
     bb8:	8d 83       	std	Y+5, r24	; 0x05
     bba:	3f c0       	rjmp	.+126    	; 0xc3a <lcd_init+0xe8>
	else if (__tmp > 65535)
     bbc:	6f 81       	ldd	r22, Y+7	; 0x07
     bbe:	78 85       	ldd	r23, Y+8	; 0x08
     bc0:	89 85       	ldd	r24, Y+9	; 0x09
     bc2:	9a 85       	ldd	r25, Y+10	; 0x0a
     bc4:	20 e0       	ldi	r18, 0x00	; 0
     bc6:	3f ef       	ldi	r19, 0xFF	; 255
     bc8:	4f e7       	ldi	r20, 0x7F	; 127
     bca:	57 e4       	ldi	r21, 0x47	; 71
     bcc:	0e 94 d6 22 	call	0x45ac	; 0x45ac <__gtsf2>
     bd0:	18 16       	cp	r1, r24
     bd2:	4c f5       	brge	.+82     	; 0xc26 <lcd_init+0xd4>
	{
		//	__ticks = requested delay in 1/10 ms
		__ticks = (uint16_t) (__ms * 10.0);
     bd4:	6b 85       	ldd	r22, Y+11	; 0x0b
     bd6:	7c 85       	ldd	r23, Y+12	; 0x0c
     bd8:	8d 85       	ldd	r24, Y+13	; 0x0d
     bda:	9e 85       	ldd	r25, Y+14	; 0x0e
     bdc:	20 e0       	ldi	r18, 0x00	; 0
     bde:	30 e0       	ldi	r19, 0x00	; 0
     be0:	40 e2       	ldi	r20, 0x20	; 32
     be2:	51 e4       	ldi	r21, 0x41	; 65
     be4:	0e 94 30 21 	call	0x4260	; 0x4260 <__mulsf3>
     be8:	dc 01       	movw	r26, r24
     bea:	cb 01       	movw	r24, r22
     bec:	bc 01       	movw	r22, r24
     bee:	cd 01       	movw	r24, r26
     bf0:	0e 94 5a 1f 	call	0x3eb4	; 0x3eb4 <__fixunssfsi>
     bf4:	dc 01       	movw	r26, r24
     bf6:	cb 01       	movw	r24, r22
     bf8:	9e 83       	std	Y+6, r25	; 0x06
     bfa:	8d 83       	std	Y+5, r24	; 0x05
     bfc:	0f c0       	rjmp	.+30     	; 0xc1c <lcd_init+0xca>
     bfe:	80 e7       	ldi	r24, 0x70	; 112
     c00:	91 e0       	ldi	r25, 0x01	; 1
     c02:	9c 83       	std	Y+4, r25	; 0x04
     c04:	8b 83       	std	Y+3, r24	; 0x03
     c06:	8b 81       	ldd	r24, Y+3	; 0x03
     c08:	9c 81       	ldd	r25, Y+4	; 0x04
     c0a:	01 97       	sbiw	r24, 0x01	; 1
     c0c:	f1 f7       	brne	.-4      	; 0xc0a <lcd_init+0xb8>
     c0e:	9c 83       	std	Y+4, r25	; 0x04
     c10:	8b 83       	std	Y+3, r24	; 0x03
		while(__ticks)
		{
			// wait 1/10 ms
			_delay_loop_2(((F_CPU) / 4e3) / 10);
			__ticks --;
     c12:	8d 81       	ldd	r24, Y+5	; 0x05
     c14:	9e 81       	ldd	r25, Y+6	; 0x06
     c16:	01 97       	sbiw	r24, 0x01	; 1
     c18:	9e 83       	std	Y+6, r25	; 0x06
     c1a:	8d 83       	std	Y+5, r24	; 0x05
		__ticks = 1;
	else if (__tmp > 65535)
	{
		//	__ticks = requested delay in 1/10 ms
		__ticks = (uint16_t) (__ms * 10.0);
		while(__ticks)
     c1c:	8d 81       	ldd	r24, Y+5	; 0x05
     c1e:	9e 81       	ldd	r25, Y+6	; 0x06
     c20:	00 97       	sbiw	r24, 0x00	; 0
     c22:	69 f7       	brne	.-38     	; 0xbfe <lcd_init+0xac>
     c24:	14 c0       	rjmp	.+40     	; 0xc4e <lcd_init+0xfc>
			__ticks --;
		}
		return;
	}
	else
		__ticks = (uint16_t)__tmp;
     c26:	6f 81       	ldd	r22, Y+7	; 0x07
     c28:	78 85       	ldd	r23, Y+8	; 0x08
     c2a:	89 85       	ldd	r24, Y+9	; 0x09
     c2c:	9a 85       	ldd	r25, Y+10	; 0x0a
     c2e:	0e 94 5a 1f 	call	0x3eb4	; 0x3eb4 <__fixunssfsi>
     c32:	dc 01       	movw	r26, r24
     c34:	cb 01       	movw	r24, r22
     c36:	9e 83       	std	Y+6, r25	; 0x06
     c38:	8d 83       	std	Y+5, r24	; 0x05
     c3a:	8d 81       	ldd	r24, Y+5	; 0x05
     c3c:	9e 81       	ldd	r25, Y+6	; 0x06
     c3e:	9a 83       	std	Y+2, r25	; 0x02
     c40:	89 83       	std	Y+1, r24	; 0x01
     c42:	89 81       	ldd	r24, Y+1	; 0x01
     c44:	9a 81       	ldd	r25, Y+2	; 0x02
     c46:	01 97       	sbiw	r24, 0x01	; 1
     c48:	f1 f7       	brne	.-4      	; 0xc46 <lcd_init+0xf4>
     c4a:	9a 83       	std	Y+2, r25	; 0x02
     c4c:	89 83       	std	Y+1, r24	; 0x01
	_delay_ms(1);

	lcd_wr_command(0x28);			//LCD 4-bit mode and 2 lines.
     c4e:	88 e2       	ldi	r24, 0x28	; 40
     c50:	0e 94 3f 06 	call	0xc7e	; 0xc7e <lcd_wr_command>
	lcd_wr_command(0x01);
     c54:	81 e0       	ldi	r24, 0x01	; 1
     c56:	0e 94 3f 06 	call	0xc7e	; 0xc7e <lcd_wr_command>
	lcd_wr_command(0x06);
     c5a:	86 e0       	ldi	r24, 0x06	; 6
     c5c:	0e 94 3f 06 	call	0xc7e	; 0xc7e <lcd_wr_command>
	lcd_wr_command(0x0E);
     c60:	8e e0       	ldi	r24, 0x0E	; 14
     c62:	0e 94 3f 06 	call	0xc7e	; 0xc7e <lcd_wr_command>
	lcd_wr_command(0x80);
     c66:	80 e8       	ldi	r24, 0x80	; 128
     c68:	0e 94 3f 06 	call	0xc7e	; 0xc7e <lcd_wr_command>
		
}
     c6c:	2e 96       	adiw	r28, 0x0e	; 14
     c6e:	0f b6       	in	r0, 0x3f	; 63
     c70:	f8 94       	cli
     c72:	de bf       	out	0x3e, r29	; 62
     c74:	0f be       	out	0x3f, r0	; 63
     c76:	cd bf       	out	0x3d, r28	; 61
     c78:	cf 91       	pop	r28
     c7a:	df 91       	pop	r29
     c7c:	08 95       	ret

00000c7e <lcd_wr_command>:

	 
//Function to Write Command on LCD
void lcd_wr_command(unsigned char cmd)
{
     c7e:	df 93       	push	r29
     c80:	cf 93       	push	r28
     c82:	cd b7       	in	r28, 0x3d	; 61
     c84:	de b7       	in	r29, 0x3e	; 62
     c86:	6e 97       	sbiw	r28, 0x1e	; 30
     c88:	0f b6       	in	r0, 0x3f	; 63
     c8a:	f8 94       	cli
     c8c:	de bf       	out	0x3e, r29	; 62
     c8e:	0f be       	out	0x3f, r0	; 63
     c90:	cd bf       	out	0x3d, r28	; 61
     c92:	8e 8f       	std	Y+30, r24	; 0x1e
	unsigned char temp;
	temp = cmd;
     c94:	8e 8d       	ldd	r24, Y+30	; 0x1e
     c96:	8d 8f       	std	Y+29, r24	; 0x1d
	temp = temp & 0xF0;
     c98:	8d 8d       	ldd	r24, Y+29	; 0x1d
     c9a:	80 7f       	andi	r24, 0xF0	; 240
     c9c:	8d 8f       	std	Y+29, r24	; 0x1d
	lcd_port &= 0x0F;
     c9e:	a8 e2       	ldi	r26, 0x28	; 40
     ca0:	b0 e0       	ldi	r27, 0x00	; 0
     ca2:	e8 e2       	ldi	r30, 0x28	; 40
     ca4:	f0 e0       	ldi	r31, 0x00	; 0
     ca6:	80 81       	ld	r24, Z
     ca8:	8f 70       	andi	r24, 0x0F	; 15
     caa:	8c 93       	st	X, r24
	lcd_port |= temp;
     cac:	a8 e2       	ldi	r26, 0x28	; 40
     cae:	b0 e0       	ldi	r27, 0x00	; 0
     cb0:	e8 e2       	ldi	r30, 0x28	; 40
     cb2:	f0 e0       	ldi	r31, 0x00	; 0
     cb4:	90 81       	ld	r25, Z
     cb6:	8d 8d       	ldd	r24, Y+29	; 0x1d
     cb8:	89 2b       	or	r24, r25
     cba:	8c 93       	st	X, r24
	cbit(lcd_port,RS);
     cbc:	a8 e2       	ldi	r26, 0x28	; 40
     cbe:	b0 e0       	ldi	r27, 0x00	; 0
     cc0:	e8 e2       	ldi	r30, 0x28	; 40
     cc2:	f0 e0       	ldi	r31, 0x00	; 0
     cc4:	80 81       	ld	r24, Z
     cc6:	8e 7f       	andi	r24, 0xFE	; 254
     cc8:	8c 93       	st	X, r24
	cbit(lcd_port,RW);
     cca:	a8 e2       	ldi	r26, 0x28	; 40
     ccc:	b0 e0       	ldi	r27, 0x00	; 0
     cce:	e8 e2       	ldi	r30, 0x28	; 40
     cd0:	f0 e0       	ldi	r31, 0x00	; 0
     cd2:	80 81       	ld	r24, Z
     cd4:	8d 7f       	andi	r24, 0xFD	; 253
     cd6:	8c 93       	st	X, r24
	sbit(lcd_port,EN);
     cd8:	a8 e2       	ldi	r26, 0x28	; 40
     cda:	b0 e0       	ldi	r27, 0x00	; 0
     cdc:	e8 e2       	ldi	r30, 0x28	; 40
     cde:	f0 e0       	ldi	r31, 0x00	; 0
     ce0:	80 81       	ld	r24, Z
     ce2:	84 60       	ori	r24, 0x04	; 4
     ce4:	8c 93       	st	X, r24
     ce6:	80 e0       	ldi	r24, 0x00	; 0
     ce8:	90 e0       	ldi	r25, 0x00	; 0
     cea:	a0 ea       	ldi	r26, 0xA0	; 160
     cec:	b0 e4       	ldi	r27, 0x40	; 64
     cee:	89 8f       	std	Y+25, r24	; 0x19
     cf0:	9a 8f       	std	Y+26, r25	; 0x1a
     cf2:	ab 8f       	std	Y+27, r26	; 0x1b
     cf4:	bc 8f       	std	Y+28, r27	; 0x1c
 */
void
_delay_ms(double __ms)
{
	uint16_t __ticks;
	double __tmp = ((F_CPU) / 4e3) * __ms;
     cf6:	69 8d       	ldd	r22, Y+25	; 0x19
     cf8:	7a 8d       	ldd	r23, Y+26	; 0x1a
     cfa:	8b 8d       	ldd	r24, Y+27	; 0x1b
     cfc:	9c 8d       	ldd	r25, Y+28	; 0x1c
     cfe:	26 e6       	ldi	r18, 0x66	; 102
     d00:	36 e6       	ldi	r19, 0x66	; 102
     d02:	46 e6       	ldi	r20, 0x66	; 102
     d04:	55 e4       	ldi	r21, 0x45	; 69
     d06:	0e 94 30 21 	call	0x4260	; 0x4260 <__mulsf3>
     d0a:	dc 01       	movw	r26, r24
     d0c:	cb 01       	movw	r24, r22
     d0e:	8d 8b       	std	Y+21, r24	; 0x15
     d10:	9e 8b       	std	Y+22, r25	; 0x16
     d12:	af 8b       	std	Y+23, r26	; 0x17
     d14:	b8 8f       	std	Y+24, r27	; 0x18
	if (__tmp < 1.0)
     d16:	6d 89       	ldd	r22, Y+21	; 0x15
     d18:	7e 89       	ldd	r23, Y+22	; 0x16
     d1a:	8f 89       	ldd	r24, Y+23	; 0x17
     d1c:	98 8d       	ldd	r25, Y+24	; 0x18
     d1e:	20 e0       	ldi	r18, 0x00	; 0
     d20:	30 e0       	ldi	r19, 0x00	; 0
     d22:	40 e8       	ldi	r20, 0x80	; 128
     d24:	5f e3       	ldi	r21, 0x3F	; 63
     d26:	0e 94 36 23 	call	0x466c	; 0x466c <__ltsf2>
     d2a:	88 23       	and	r24, r24
     d2c:	2c f4       	brge	.+10     	; 0xd38 <lcd_wr_command+0xba>
		__ticks = 1;
     d2e:	81 e0       	ldi	r24, 0x01	; 1
     d30:	90 e0       	ldi	r25, 0x00	; 0
     d32:	9c 8b       	std	Y+20, r25	; 0x14
     d34:	8b 8b       	std	Y+19, r24	; 0x13
     d36:	3f c0       	rjmp	.+126    	; 0xdb6 <lcd_wr_command+0x138>
	else if (__tmp > 65535)
     d38:	6d 89       	ldd	r22, Y+21	; 0x15
     d3a:	7e 89       	ldd	r23, Y+22	; 0x16
     d3c:	8f 89       	ldd	r24, Y+23	; 0x17
     d3e:	98 8d       	ldd	r25, Y+24	; 0x18
     d40:	20 e0       	ldi	r18, 0x00	; 0
     d42:	3f ef       	ldi	r19, 0xFF	; 255
     d44:	4f e7       	ldi	r20, 0x7F	; 127
     d46:	57 e4       	ldi	r21, 0x47	; 71
     d48:	0e 94 d6 22 	call	0x45ac	; 0x45ac <__gtsf2>
     d4c:	18 16       	cp	r1, r24
     d4e:	4c f5       	brge	.+82     	; 0xda2 <lcd_wr_command+0x124>
	{
		//	__ticks = requested delay in 1/10 ms
		__ticks = (uint16_t) (__ms * 10.0);
     d50:	69 8d       	ldd	r22, Y+25	; 0x19
     d52:	7a 8d       	ldd	r23, Y+26	; 0x1a
     d54:	8b 8d       	ldd	r24, Y+27	; 0x1b
     d56:	9c 8d       	ldd	r25, Y+28	; 0x1c
     d58:	20 e0       	ldi	r18, 0x00	; 0
     d5a:	30 e0       	ldi	r19, 0x00	; 0
     d5c:	40 e2       	ldi	r20, 0x20	; 32
     d5e:	51 e4       	ldi	r21, 0x41	; 65
     d60:	0e 94 30 21 	call	0x4260	; 0x4260 <__mulsf3>
     d64:	dc 01       	movw	r26, r24
     d66:	cb 01       	movw	r24, r22
     d68:	bc 01       	movw	r22, r24
     d6a:	cd 01       	movw	r24, r26
     d6c:	0e 94 5a 1f 	call	0x3eb4	; 0x3eb4 <__fixunssfsi>
     d70:	dc 01       	movw	r26, r24
     d72:	cb 01       	movw	r24, r22
     d74:	9c 8b       	std	Y+20, r25	; 0x14
     d76:	8b 8b       	std	Y+19, r24	; 0x13
     d78:	0f c0       	rjmp	.+30     	; 0xd98 <lcd_wr_command+0x11a>
     d7a:	80 e7       	ldi	r24, 0x70	; 112
     d7c:	91 e0       	ldi	r25, 0x01	; 1
     d7e:	9a 8b       	std	Y+18, r25	; 0x12
     d80:	89 8b       	std	Y+17, r24	; 0x11
     d82:	89 89       	ldd	r24, Y+17	; 0x11
     d84:	9a 89       	ldd	r25, Y+18	; 0x12
     d86:	01 97       	sbiw	r24, 0x01	; 1
     d88:	f1 f7       	brne	.-4      	; 0xd86 <lcd_wr_command+0x108>
     d8a:	9a 8b       	std	Y+18, r25	; 0x12
     d8c:	89 8b       	std	Y+17, r24	; 0x11
		while(__ticks)
		{
			// wait 1/10 ms
			_delay_loop_2(((F_CPU) / 4e3) / 10);
			__ticks --;
     d8e:	8b 89       	ldd	r24, Y+19	; 0x13
     d90:	9c 89       	ldd	r25, Y+20	; 0x14
     d92:	01 97       	sbiw	r24, 0x01	; 1
     d94:	9c 8b       	std	Y+20, r25	; 0x14
     d96:	8b 8b       	std	Y+19, r24	; 0x13
		__ticks = 1;
	else if (__tmp > 65535)
	{
		//	__ticks = requested delay in 1/10 ms
		__ticks = (uint16_t) (__ms * 10.0);
		while(__ticks)
     d98:	8b 89       	ldd	r24, Y+19	; 0x13
     d9a:	9c 89       	ldd	r25, Y+20	; 0x14
     d9c:	00 97       	sbiw	r24, 0x00	; 0
     d9e:	69 f7       	brne	.-38     	; 0xd7a <lcd_wr_command+0xfc>
     da0:	14 c0       	rjmp	.+40     	; 0xdca <lcd_wr_command+0x14c>
			__ticks --;
		}
		return;
	}
	else
		__ticks = (uint16_t)__tmp;
     da2:	6d 89       	ldd	r22, Y+21	; 0x15
     da4:	7e 89       	ldd	r23, Y+22	; 0x16
     da6:	8f 89       	ldd	r24, Y+23	; 0x17
     da8:	98 8d       	ldd	r25, Y+24	; 0x18
     daa:	0e 94 5a 1f 	call	0x3eb4	; 0x3eb4 <__fixunssfsi>
     dae:	dc 01       	movw	r26, r24
     db0:	cb 01       	movw	r24, r22
     db2:	9c 8b       	std	Y+20, r25	; 0x14
     db4:	8b 8b       	std	Y+19, r24	; 0x13
     db6:	8b 89       	ldd	r24, Y+19	; 0x13
     db8:	9c 89       	ldd	r25, Y+20	; 0x14
     dba:	98 8b       	std	Y+16, r25	; 0x10
     dbc:	8f 87       	std	Y+15, r24	; 0x0f
     dbe:	8f 85       	ldd	r24, Y+15	; 0x0f
     dc0:	98 89       	ldd	r25, Y+16	; 0x10
     dc2:	01 97       	sbiw	r24, 0x01	; 1
     dc4:	f1 f7       	brne	.-4      	; 0xdc2 <lcd_wr_command+0x144>
     dc6:	98 8b       	std	Y+16, r25	; 0x10
     dc8:	8f 87       	std	Y+15, r24	; 0x0f
	_delay_ms(5);
	cbit(lcd_port,EN);
     dca:	a8 e2       	ldi	r26, 0x28	; 40
     dcc:	b0 e0       	ldi	r27, 0x00	; 0
     dce:	e8 e2       	ldi	r30, 0x28	; 40
     dd0:	f0 e0       	ldi	r31, 0x00	; 0
     dd2:	80 81       	ld	r24, Z
     dd4:	8b 7f       	andi	r24, 0xFB	; 251
     dd6:	8c 93       	st	X, r24
	
	cmd = cmd & 0x0F;
     dd8:	8e 8d       	ldd	r24, Y+30	; 0x1e
     dda:	8f 70       	andi	r24, 0x0F	; 15
     ddc:	8e 8f       	std	Y+30, r24	; 0x1e
	cmd = cmd<<4;
     dde:	8e 8d       	ldd	r24, Y+30	; 0x1e
     de0:	82 95       	swap	r24
     de2:	80 7f       	andi	r24, 0xF0	; 240
     de4:	8e 8f       	std	Y+30, r24	; 0x1e
	lcd_port &= 0x0F;
     de6:	a8 e2       	ldi	r26, 0x28	; 40
     de8:	b0 e0       	ldi	r27, 0x00	; 0
     dea:	e8 e2       	ldi	r30, 0x28	; 40
     dec:	f0 e0       	ldi	r31, 0x00	; 0
     dee:	80 81       	ld	r24, Z
     df0:	8f 70       	andi	r24, 0x0F	; 15
     df2:	8c 93       	st	X, r24
	lcd_port |= cmd;
     df4:	a8 e2       	ldi	r26, 0x28	; 40
     df6:	b0 e0       	ldi	r27, 0x00	; 0
     df8:	e8 e2       	ldi	r30, 0x28	; 40
     dfa:	f0 e0       	ldi	r31, 0x00	; 0
     dfc:	90 81       	ld	r25, Z
     dfe:	8e 8d       	ldd	r24, Y+30	; 0x1e
     e00:	89 2b       	or	r24, r25
     e02:	8c 93       	st	X, r24
	cbit(lcd_port,RS);
     e04:	a8 e2       	ldi	r26, 0x28	; 40
     e06:	b0 e0       	ldi	r27, 0x00	; 0
     e08:	e8 e2       	ldi	r30, 0x28	; 40
     e0a:	f0 e0       	ldi	r31, 0x00	; 0
     e0c:	80 81       	ld	r24, Z
     e0e:	8e 7f       	andi	r24, 0xFE	; 254
     e10:	8c 93       	st	X, r24
	cbit(lcd_port,RW);
     e12:	a8 e2       	ldi	r26, 0x28	; 40
     e14:	b0 e0       	ldi	r27, 0x00	; 0
     e16:	e8 e2       	ldi	r30, 0x28	; 40
     e18:	f0 e0       	ldi	r31, 0x00	; 0
     e1a:	80 81       	ld	r24, Z
     e1c:	8d 7f       	andi	r24, 0xFD	; 253
     e1e:	8c 93       	st	X, r24
	sbit(lcd_port,EN);
     e20:	a8 e2       	ldi	r26, 0x28	; 40
     e22:	b0 e0       	ldi	r27, 0x00	; 0
     e24:	e8 e2       	ldi	r30, 0x28	; 40
     e26:	f0 e0       	ldi	r31, 0x00	; 0
     e28:	80 81       	ld	r24, Z
     e2a:	84 60       	ori	r24, 0x04	; 4
     e2c:	8c 93       	st	X, r24
     e2e:	80 e0       	ldi	r24, 0x00	; 0
     e30:	90 e0       	ldi	r25, 0x00	; 0
     e32:	a0 ea       	ldi	r26, 0xA0	; 160
     e34:	b0 e4       	ldi	r27, 0x40	; 64
     e36:	8b 87       	std	Y+11, r24	; 0x0b
     e38:	9c 87       	std	Y+12, r25	; 0x0c
     e3a:	ad 87       	std	Y+13, r26	; 0x0d
     e3c:	be 87       	std	Y+14, r27	; 0x0e
 */
void
_delay_ms(double __ms)
{
	uint16_t __ticks;
	double __tmp = ((F_CPU) / 4e3) * __ms;
     e3e:	6b 85       	ldd	r22, Y+11	; 0x0b
     e40:	7c 85       	ldd	r23, Y+12	; 0x0c
     e42:	8d 85       	ldd	r24, Y+13	; 0x0d
     e44:	9e 85       	ldd	r25, Y+14	; 0x0e
     e46:	26 e6       	ldi	r18, 0x66	; 102
     e48:	36 e6       	ldi	r19, 0x66	; 102
     e4a:	46 e6       	ldi	r20, 0x66	; 102
     e4c:	55 e4       	ldi	r21, 0x45	; 69
     e4e:	0e 94 30 21 	call	0x4260	; 0x4260 <__mulsf3>
     e52:	dc 01       	movw	r26, r24
     e54:	cb 01       	movw	r24, r22
     e56:	8f 83       	std	Y+7, r24	; 0x07
     e58:	98 87       	std	Y+8, r25	; 0x08
     e5a:	a9 87       	std	Y+9, r26	; 0x09
     e5c:	ba 87       	std	Y+10, r27	; 0x0a
	if (__tmp < 1.0)
     e5e:	6f 81       	ldd	r22, Y+7	; 0x07
     e60:	78 85       	ldd	r23, Y+8	; 0x08
     e62:	89 85       	ldd	r24, Y+9	; 0x09
     e64:	9a 85       	ldd	r25, Y+10	; 0x0a
     e66:	20 e0       	ldi	r18, 0x00	; 0
     e68:	30 e0       	ldi	r19, 0x00	; 0
     e6a:	40 e8       	ldi	r20, 0x80	; 128
     e6c:	5f e3       	ldi	r21, 0x3F	; 63
     e6e:	0e 94 36 23 	call	0x466c	; 0x466c <__ltsf2>
     e72:	88 23       	and	r24, r24
     e74:	2c f4       	brge	.+10     	; 0xe80 <lcd_wr_command+0x202>
		__ticks = 1;
     e76:	81 e0       	ldi	r24, 0x01	; 1
     e78:	90 e0       	ldi	r25, 0x00	; 0
     e7a:	9e 83       	std	Y+6, r25	; 0x06
     e7c:	8d 83       	std	Y+5, r24	; 0x05
     e7e:	3f c0       	rjmp	.+126    	; 0xefe <lcd_wr_command+0x280>
	else if (__tmp > 65535)
     e80:	6f 81       	ldd	r22, Y+7	; 0x07
     e82:	78 85       	ldd	r23, Y+8	; 0x08
     e84:	89 85       	ldd	r24, Y+9	; 0x09
     e86:	9a 85       	ldd	r25, Y+10	; 0x0a
     e88:	20 e0       	ldi	r18, 0x00	; 0
     e8a:	3f ef       	ldi	r19, 0xFF	; 255
     e8c:	4f e7       	ldi	r20, 0x7F	; 127
     e8e:	57 e4       	ldi	r21, 0x47	; 71
     e90:	0e 94 d6 22 	call	0x45ac	; 0x45ac <__gtsf2>
     e94:	18 16       	cp	r1, r24
     e96:	4c f5       	brge	.+82     	; 0xeea <lcd_wr_command+0x26c>
	{
		//	__ticks = requested delay in 1/10 ms
		__ticks = (uint16_t) (__ms * 10.0);
     e98:	6b 85       	ldd	r22, Y+11	; 0x0b
     e9a:	7c 85       	ldd	r23, Y+12	; 0x0c
     e9c:	8d 85       	ldd	r24, Y+13	; 0x0d
     e9e:	9e 85       	ldd	r25, Y+14	; 0x0e
     ea0:	20 e0       	ldi	r18, 0x00	; 0
     ea2:	30 e0       	ldi	r19, 0x00	; 0
     ea4:	40 e2       	ldi	r20, 0x20	; 32
     ea6:	51 e4       	ldi	r21, 0x41	; 65
     ea8:	0e 94 30 21 	call	0x4260	; 0x4260 <__mulsf3>
     eac:	dc 01       	movw	r26, r24
     eae:	cb 01       	movw	r24, r22
     eb0:	bc 01       	movw	r22, r24
     eb2:	cd 01       	movw	r24, r26
     eb4:	0e 94 5a 1f 	call	0x3eb4	; 0x3eb4 <__fixunssfsi>
     eb8:	dc 01       	movw	r26, r24
     eba:	cb 01       	movw	r24, r22
     ebc:	9e 83       	std	Y+6, r25	; 0x06
     ebe:	8d 83       	std	Y+5, r24	; 0x05
     ec0:	0f c0       	rjmp	.+30     	; 0xee0 <lcd_wr_command+0x262>
     ec2:	80 e7       	ldi	r24, 0x70	; 112
     ec4:	91 e0       	ldi	r25, 0x01	; 1
     ec6:	9c 83       	std	Y+4, r25	; 0x04
     ec8:	8b 83       	std	Y+3, r24	; 0x03
     eca:	8b 81       	ldd	r24, Y+3	; 0x03
     ecc:	9c 81       	ldd	r25, Y+4	; 0x04
     ece:	01 97       	sbiw	r24, 0x01	; 1
     ed0:	f1 f7       	brne	.-4      	; 0xece <lcd_wr_command+0x250>
     ed2:	9c 83       	std	Y+4, r25	; 0x04
     ed4:	8b 83       	std	Y+3, r24	; 0x03
		while(__ticks)
		{
			// wait 1/10 ms
			_delay_loop_2(((F_CPU) / 4e3) / 10);
			__ticks --;
     ed6:	8d 81       	ldd	r24, Y+5	; 0x05
     ed8:	9e 81       	ldd	r25, Y+6	; 0x06
     eda:	01 97       	sbiw	r24, 0x01	; 1
     edc:	9e 83       	std	Y+6, r25	; 0x06
     ede:	8d 83       	std	Y+5, r24	; 0x05
		__ticks = 1;
	else if (__tmp > 65535)
	{
		//	__ticks = requested delay in 1/10 ms
		__ticks = (uint16_t) (__ms * 10.0);
		while(__ticks)
     ee0:	8d 81       	ldd	r24, Y+5	; 0x05
     ee2:	9e 81       	ldd	r25, Y+6	; 0x06
     ee4:	00 97       	sbiw	r24, 0x00	; 0
     ee6:	69 f7       	brne	.-38     	; 0xec2 <lcd_wr_command+0x244>
     ee8:	14 c0       	rjmp	.+40     	; 0xf12 <lcd_wr_command+0x294>
			__ticks --;
		}
		return;
	}
	else
		__ticks = (uint16_t)__tmp;
     eea:	6f 81       	ldd	r22, Y+7	; 0x07
     eec:	78 85       	ldd	r23, Y+8	; 0x08
     eee:	89 85       	ldd	r24, Y+9	; 0x09
     ef0:	9a 85       	ldd	r25, Y+10	; 0x0a
     ef2:	0e 94 5a 1f 	call	0x3eb4	; 0x3eb4 <__fixunssfsi>
     ef6:	dc 01       	movw	r26, r24
     ef8:	cb 01       	movw	r24, r22
     efa:	9e 83       	std	Y+6, r25	; 0x06
     efc:	8d 83       	std	Y+5, r24	; 0x05
     efe:	8d 81       	ldd	r24, Y+5	; 0x05
     f00:	9e 81       	ldd	r25, Y+6	; 0x06
     f02:	9a 83       	std	Y+2, r25	; 0x02
     f04:	89 83       	std	Y+1, r24	; 0x01
     f06:	89 81       	ldd	r24, Y+1	; 0x01
     f08:	9a 81       	ldd	r25, Y+2	; 0x02
     f0a:	01 97       	sbiw	r24, 0x01	; 1
     f0c:	f1 f7       	brne	.-4      	; 0xf0a <lcd_wr_command+0x28c>
     f0e:	9a 83       	std	Y+2, r25	; 0x02
     f10:	89 83       	std	Y+1, r24	; 0x01
	_delay_ms(5);
	cbit(lcd_port,EN);
     f12:	a8 e2       	ldi	r26, 0x28	; 40
     f14:	b0 e0       	ldi	r27, 0x00	; 0
     f16:	e8 e2       	ldi	r30, 0x28	; 40
     f18:	f0 e0       	ldi	r31, 0x00	; 0
     f1a:	80 81       	ld	r24, Z
     f1c:	8b 7f       	andi	r24, 0xFB	; 251
     f1e:	8c 93       	st	X, r24
}
     f20:	6e 96       	adiw	r28, 0x1e	; 30
     f22:	0f b6       	in	r0, 0x3f	; 63
     f24:	f8 94       	cli
     f26:	de bf       	out	0x3e, r29	; 62
     f28:	0f be       	out	0x3f, r0	; 63
     f2a:	cd bf       	out	0x3d, r28	; 61
     f2c:	cf 91       	pop	r28
     f2e:	df 91       	pop	r29
     f30:	08 95       	ret

00000f32 <lcd_wr_char>:

//Function to Write Data on LCD
void lcd_wr_char(char letter)
{
     f32:	df 93       	push	r29
     f34:	cf 93       	push	r28
     f36:	cd b7       	in	r28, 0x3d	; 61
     f38:	de b7       	in	r29, 0x3e	; 62
     f3a:	6e 97       	sbiw	r28, 0x1e	; 30
     f3c:	0f b6       	in	r0, 0x3f	; 63
     f3e:	f8 94       	cli
     f40:	de bf       	out	0x3e, r29	; 62
     f42:	0f be       	out	0x3f, r0	; 63
     f44:	cd bf       	out	0x3d, r28	; 61
     f46:	8e 8f       	std	Y+30, r24	; 0x1e
	char temp;
	temp = letter;
     f48:	8e 8d       	ldd	r24, Y+30	; 0x1e
     f4a:	8d 8f       	std	Y+29, r24	; 0x1d
	temp = (temp & 0xF0);
     f4c:	8d 8d       	ldd	r24, Y+29	; 0x1d
     f4e:	80 7f       	andi	r24, 0xF0	; 240
     f50:	8d 8f       	std	Y+29, r24	; 0x1d
	lcd_port &= 0x0F;
     f52:	a8 e2       	ldi	r26, 0x28	; 40
     f54:	b0 e0       	ldi	r27, 0x00	; 0
     f56:	e8 e2       	ldi	r30, 0x28	; 40
     f58:	f0 e0       	ldi	r31, 0x00	; 0
     f5a:	80 81       	ld	r24, Z
     f5c:	8f 70       	andi	r24, 0x0F	; 15
     f5e:	8c 93       	st	X, r24
	lcd_port |= temp;
     f60:	a8 e2       	ldi	r26, 0x28	; 40
     f62:	b0 e0       	ldi	r27, 0x00	; 0
     f64:	e8 e2       	ldi	r30, 0x28	; 40
     f66:	f0 e0       	ldi	r31, 0x00	; 0
     f68:	90 81       	ld	r25, Z
     f6a:	8d 8d       	ldd	r24, Y+29	; 0x1d
     f6c:	89 2b       	or	r24, r25
     f6e:	8c 93       	st	X, r24
	sbit(lcd_port,RS);
     f70:	a8 e2       	ldi	r26, 0x28	; 40
     f72:	b0 e0       	ldi	r27, 0x00	; 0
     f74:	e8 e2       	ldi	r30, 0x28	; 40
     f76:	f0 e0       	ldi	r31, 0x00	; 0
     f78:	80 81       	ld	r24, Z
     f7a:	81 60       	ori	r24, 0x01	; 1
     f7c:	8c 93       	st	X, r24
	cbit(lcd_port,RW);
     f7e:	a8 e2       	ldi	r26, 0x28	; 40
     f80:	b0 e0       	ldi	r27, 0x00	; 0
     f82:	e8 e2       	ldi	r30, 0x28	; 40
     f84:	f0 e0       	ldi	r31, 0x00	; 0
     f86:	80 81       	ld	r24, Z
     f88:	8d 7f       	andi	r24, 0xFD	; 253
     f8a:	8c 93       	st	X, r24
	sbit(lcd_port,EN);
     f8c:	a8 e2       	ldi	r26, 0x28	; 40
     f8e:	b0 e0       	ldi	r27, 0x00	; 0
     f90:	e8 e2       	ldi	r30, 0x28	; 40
     f92:	f0 e0       	ldi	r31, 0x00	; 0
     f94:	80 81       	ld	r24, Z
     f96:	84 60       	ori	r24, 0x04	; 4
     f98:	8c 93       	st	X, r24
     f9a:	80 e0       	ldi	r24, 0x00	; 0
     f9c:	90 e0       	ldi	r25, 0x00	; 0
     f9e:	a0 ea       	ldi	r26, 0xA0	; 160
     fa0:	b0 e4       	ldi	r27, 0x40	; 64
     fa2:	89 8f       	std	Y+25, r24	; 0x19
     fa4:	9a 8f       	std	Y+26, r25	; 0x1a
     fa6:	ab 8f       	std	Y+27, r26	; 0x1b
     fa8:	bc 8f       	std	Y+28, r27	; 0x1c
 */
void
_delay_ms(double __ms)
{
	uint16_t __ticks;
	double __tmp = ((F_CPU) / 4e3) * __ms;
     faa:	69 8d       	ldd	r22, Y+25	; 0x19
     fac:	7a 8d       	ldd	r23, Y+26	; 0x1a
     fae:	8b 8d       	ldd	r24, Y+27	; 0x1b
     fb0:	9c 8d       	ldd	r25, Y+28	; 0x1c
     fb2:	26 e6       	ldi	r18, 0x66	; 102
     fb4:	36 e6       	ldi	r19, 0x66	; 102
     fb6:	46 e6       	ldi	r20, 0x66	; 102
     fb8:	55 e4       	ldi	r21, 0x45	; 69
     fba:	0e 94 30 21 	call	0x4260	; 0x4260 <__mulsf3>
     fbe:	dc 01       	movw	r26, r24
     fc0:	cb 01       	movw	r24, r22
     fc2:	8d 8b       	std	Y+21, r24	; 0x15
     fc4:	9e 8b       	std	Y+22, r25	; 0x16
     fc6:	af 8b       	std	Y+23, r26	; 0x17
     fc8:	b8 8f       	std	Y+24, r27	; 0x18
	if (__tmp < 1.0)
     fca:	6d 89       	ldd	r22, Y+21	; 0x15
     fcc:	7e 89       	ldd	r23, Y+22	; 0x16
     fce:	8f 89       	ldd	r24, Y+23	; 0x17
     fd0:	98 8d       	ldd	r25, Y+24	; 0x18
     fd2:	20 e0       	ldi	r18, 0x00	; 0
     fd4:	30 e0       	ldi	r19, 0x00	; 0
     fd6:	40 e8       	ldi	r20, 0x80	; 128
     fd8:	5f e3       	ldi	r21, 0x3F	; 63
     fda:	0e 94 36 23 	call	0x466c	; 0x466c <__ltsf2>
     fde:	88 23       	and	r24, r24
     fe0:	2c f4       	brge	.+10     	; 0xfec <lcd_wr_char+0xba>
		__ticks = 1;
     fe2:	81 e0       	ldi	r24, 0x01	; 1
     fe4:	90 e0       	ldi	r25, 0x00	; 0
     fe6:	9c 8b       	std	Y+20, r25	; 0x14
     fe8:	8b 8b       	std	Y+19, r24	; 0x13
     fea:	3f c0       	rjmp	.+126    	; 0x106a <lcd_wr_char+0x138>
	else if (__tmp > 65535)
     fec:	6d 89       	ldd	r22, Y+21	; 0x15
     fee:	7e 89       	ldd	r23, Y+22	; 0x16
     ff0:	8f 89       	ldd	r24, Y+23	; 0x17
     ff2:	98 8d       	ldd	r25, Y+24	; 0x18
     ff4:	20 e0       	ldi	r18, 0x00	; 0
     ff6:	3f ef       	ldi	r19, 0xFF	; 255
     ff8:	4f e7       	ldi	r20, 0x7F	; 127
     ffa:	57 e4       	ldi	r21, 0x47	; 71
     ffc:	0e 94 d6 22 	call	0x45ac	; 0x45ac <__gtsf2>
    1000:	18 16       	cp	r1, r24
    1002:	4c f5       	brge	.+82     	; 0x1056 <lcd_wr_char+0x124>
	{
		//	__ticks = requested delay in 1/10 ms
		__ticks = (uint16_t) (__ms * 10.0);
    1004:	69 8d       	ldd	r22, Y+25	; 0x19
    1006:	7a 8d       	ldd	r23, Y+26	; 0x1a
    1008:	8b 8d       	ldd	r24, Y+27	; 0x1b
    100a:	9c 8d       	ldd	r25, Y+28	; 0x1c
    100c:	20 e0       	ldi	r18, 0x00	; 0
    100e:	30 e0       	ldi	r19, 0x00	; 0
    1010:	40 e2       	ldi	r20, 0x20	; 32
    1012:	51 e4       	ldi	r21, 0x41	; 65
    1014:	0e 94 30 21 	call	0x4260	; 0x4260 <__mulsf3>
    1018:	dc 01       	movw	r26, r24
    101a:	cb 01       	movw	r24, r22
    101c:	bc 01       	movw	r22, r24
    101e:	cd 01       	movw	r24, r26
    1020:	0e 94 5a 1f 	call	0x3eb4	; 0x3eb4 <__fixunssfsi>
    1024:	dc 01       	movw	r26, r24
    1026:	cb 01       	movw	r24, r22
    1028:	9c 8b       	std	Y+20, r25	; 0x14
    102a:	8b 8b       	std	Y+19, r24	; 0x13
    102c:	0f c0       	rjmp	.+30     	; 0x104c <lcd_wr_char+0x11a>
    102e:	80 e7       	ldi	r24, 0x70	; 112
    1030:	91 e0       	ldi	r25, 0x01	; 1
    1032:	9a 8b       	std	Y+18, r25	; 0x12
    1034:	89 8b       	std	Y+17, r24	; 0x11
    1036:	89 89       	ldd	r24, Y+17	; 0x11
    1038:	9a 89       	ldd	r25, Y+18	; 0x12
    103a:	01 97       	sbiw	r24, 0x01	; 1
    103c:	f1 f7       	brne	.-4      	; 0x103a <lcd_wr_char+0x108>
    103e:	9a 8b       	std	Y+18, r25	; 0x12
    1040:	89 8b       	std	Y+17, r24	; 0x11
		while(__ticks)
		{
			// wait 1/10 ms
			_delay_loop_2(((F_CPU) / 4e3) / 10);
			__ticks --;
    1042:	8b 89       	ldd	r24, Y+19	; 0x13
    1044:	9c 89       	ldd	r25, Y+20	; 0x14
    1046:	01 97       	sbiw	r24, 0x01	; 1
    1048:	9c 8b       	std	Y+20, r25	; 0x14
    104a:	8b 8b       	std	Y+19, r24	; 0x13
		__ticks = 1;
	else if (__tmp > 65535)
	{
		//	__ticks = requested delay in 1/10 ms
		__ticks = (uint16_t) (__ms * 10.0);
		while(__ticks)
    104c:	8b 89       	ldd	r24, Y+19	; 0x13
    104e:	9c 89       	ldd	r25, Y+20	; 0x14
    1050:	00 97       	sbiw	r24, 0x00	; 0
    1052:	69 f7       	brne	.-38     	; 0x102e <lcd_wr_char+0xfc>
    1054:	14 c0       	rjmp	.+40     	; 0x107e <lcd_wr_char+0x14c>
			__ticks --;
		}
		return;
	}
	else
		__ticks = (uint16_t)__tmp;
    1056:	6d 89       	ldd	r22, Y+21	; 0x15
    1058:	7e 89       	ldd	r23, Y+22	; 0x16
    105a:	8f 89       	ldd	r24, Y+23	; 0x17
    105c:	98 8d       	ldd	r25, Y+24	; 0x18
    105e:	0e 94 5a 1f 	call	0x3eb4	; 0x3eb4 <__fixunssfsi>
    1062:	dc 01       	movw	r26, r24
    1064:	cb 01       	movw	r24, r22
    1066:	9c 8b       	std	Y+20, r25	; 0x14
    1068:	8b 8b       	std	Y+19, r24	; 0x13
    106a:	8b 89       	ldd	r24, Y+19	; 0x13
    106c:	9c 89       	ldd	r25, Y+20	; 0x14
    106e:	98 8b       	std	Y+16, r25	; 0x10
    1070:	8f 87       	std	Y+15, r24	; 0x0f
    1072:	8f 85       	ldd	r24, Y+15	; 0x0f
    1074:	98 89       	ldd	r25, Y+16	; 0x10
    1076:	01 97       	sbiw	r24, 0x01	; 1
    1078:	f1 f7       	brne	.-4      	; 0x1076 <lcd_wr_char+0x144>
    107a:	98 8b       	std	Y+16, r25	; 0x10
    107c:	8f 87       	std	Y+15, r24	; 0x0f
	_delay_ms(5);
	cbit(lcd_port,EN);
    107e:	a8 e2       	ldi	r26, 0x28	; 40
    1080:	b0 e0       	ldi	r27, 0x00	; 0
    1082:	e8 e2       	ldi	r30, 0x28	; 40
    1084:	f0 e0       	ldi	r31, 0x00	; 0
    1086:	80 81       	ld	r24, Z
    1088:	8b 7f       	andi	r24, 0xFB	; 251
    108a:	8c 93       	st	X, r24

	letter = letter & 0x0F;
    108c:	8e 8d       	ldd	r24, Y+30	; 0x1e
    108e:	8f 70       	andi	r24, 0x0F	; 15
    1090:	8e 8f       	std	Y+30, r24	; 0x1e
	letter = letter<<4;
    1092:	8e 8d       	ldd	r24, Y+30	; 0x1e
    1094:	82 95       	swap	r24
    1096:	80 7f       	andi	r24, 0xF0	; 240
    1098:	8e 8f       	std	Y+30, r24	; 0x1e
	lcd_port &= 0x0F;
    109a:	a8 e2       	ldi	r26, 0x28	; 40
    109c:	b0 e0       	ldi	r27, 0x00	; 0
    109e:	e8 e2       	ldi	r30, 0x28	; 40
    10a0:	f0 e0       	ldi	r31, 0x00	; 0
    10a2:	80 81       	ld	r24, Z
    10a4:	8f 70       	andi	r24, 0x0F	; 15
    10a6:	8c 93       	st	X, r24
	lcd_port |= letter;
    10a8:	a8 e2       	ldi	r26, 0x28	; 40
    10aa:	b0 e0       	ldi	r27, 0x00	; 0
    10ac:	e8 e2       	ldi	r30, 0x28	; 40
    10ae:	f0 e0       	ldi	r31, 0x00	; 0
    10b0:	90 81       	ld	r25, Z
    10b2:	8e 8d       	ldd	r24, Y+30	; 0x1e
    10b4:	89 2b       	or	r24, r25
    10b6:	8c 93       	st	X, r24
	sbit(lcd_port,RS);
    10b8:	a8 e2       	ldi	r26, 0x28	; 40
    10ba:	b0 e0       	ldi	r27, 0x00	; 0
    10bc:	e8 e2       	ldi	r30, 0x28	; 40
    10be:	f0 e0       	ldi	r31, 0x00	; 0
    10c0:	80 81       	ld	r24, Z
    10c2:	81 60       	ori	r24, 0x01	; 1
    10c4:	8c 93       	st	X, r24
	cbit(lcd_port,RW);
    10c6:	a8 e2       	ldi	r26, 0x28	; 40
    10c8:	b0 e0       	ldi	r27, 0x00	; 0
    10ca:	e8 e2       	ldi	r30, 0x28	; 40
    10cc:	f0 e0       	ldi	r31, 0x00	; 0
    10ce:	80 81       	ld	r24, Z
    10d0:	8d 7f       	andi	r24, 0xFD	; 253
    10d2:	8c 93       	st	X, r24
	sbit(lcd_port,EN);
    10d4:	a8 e2       	ldi	r26, 0x28	; 40
    10d6:	b0 e0       	ldi	r27, 0x00	; 0
    10d8:	e8 e2       	ldi	r30, 0x28	; 40
    10da:	f0 e0       	ldi	r31, 0x00	; 0
    10dc:	80 81       	ld	r24, Z
    10de:	84 60       	ori	r24, 0x04	; 4
    10e0:	8c 93       	st	X, r24
    10e2:	80 e0       	ldi	r24, 0x00	; 0
    10e4:	90 e0       	ldi	r25, 0x00	; 0
    10e6:	a0 ea       	ldi	r26, 0xA0	; 160
    10e8:	b0 e4       	ldi	r27, 0x40	; 64
    10ea:	8b 87       	std	Y+11, r24	; 0x0b
    10ec:	9c 87       	std	Y+12, r25	; 0x0c
    10ee:	ad 87       	std	Y+13, r26	; 0x0d
    10f0:	be 87       	std	Y+14, r27	; 0x0e
 */
void
_delay_ms(double __ms)
{
	uint16_t __ticks;
	double __tmp = ((F_CPU) / 4e3) * __ms;
    10f2:	6b 85       	ldd	r22, Y+11	; 0x0b
    10f4:	7c 85       	ldd	r23, Y+12	; 0x0c
    10f6:	8d 85       	ldd	r24, Y+13	; 0x0d
    10f8:	9e 85       	ldd	r25, Y+14	; 0x0e
    10fa:	26 e6       	ldi	r18, 0x66	; 102
    10fc:	36 e6       	ldi	r19, 0x66	; 102
    10fe:	46 e6       	ldi	r20, 0x66	; 102
    1100:	55 e4       	ldi	r21, 0x45	; 69
    1102:	0e 94 30 21 	call	0x4260	; 0x4260 <__mulsf3>
    1106:	dc 01       	movw	r26, r24
    1108:	cb 01       	movw	r24, r22
    110a:	8f 83       	std	Y+7, r24	; 0x07
    110c:	98 87       	std	Y+8, r25	; 0x08
    110e:	a9 87       	std	Y+9, r26	; 0x09
    1110:	ba 87       	std	Y+10, r27	; 0x0a
	if (__tmp < 1.0)
    1112:	6f 81       	ldd	r22, Y+7	; 0x07
    1114:	78 85       	ldd	r23, Y+8	; 0x08
    1116:	89 85       	ldd	r24, Y+9	; 0x09
    1118:	9a 85       	ldd	r25, Y+10	; 0x0a
    111a:	20 e0       	ldi	r18, 0x00	; 0
    111c:	30 e0       	ldi	r19, 0x00	; 0
    111e:	40 e8       	ldi	r20, 0x80	; 128
    1120:	5f e3       	ldi	r21, 0x3F	; 63
    1122:	0e 94 36 23 	call	0x466c	; 0x466c <__ltsf2>
    1126:	88 23       	and	r24, r24
    1128:	2c f4       	brge	.+10     	; 0x1134 <lcd_wr_char+0x202>
		__ticks = 1;
    112a:	81 e0       	ldi	r24, 0x01	; 1
    112c:	90 e0       	ldi	r25, 0x00	; 0
    112e:	9e 83       	std	Y+6, r25	; 0x06
    1130:	8d 83       	std	Y+5, r24	; 0x05
    1132:	3f c0       	rjmp	.+126    	; 0x11b2 <lcd_wr_char+0x280>
	else if (__tmp > 65535)
    1134:	6f 81       	ldd	r22, Y+7	; 0x07
    1136:	78 85       	ldd	r23, Y+8	; 0x08
    1138:	89 85       	ldd	r24, Y+9	; 0x09
    113a:	9a 85       	ldd	r25, Y+10	; 0x0a
    113c:	20 e0       	ldi	r18, 0x00	; 0
    113e:	3f ef       	ldi	r19, 0xFF	; 255
    1140:	4f e7       	ldi	r20, 0x7F	; 127
    1142:	57 e4       	ldi	r21, 0x47	; 71
    1144:	0e 94 d6 22 	call	0x45ac	; 0x45ac <__gtsf2>
    1148:	18 16       	cp	r1, r24
    114a:	4c f5       	brge	.+82     	; 0x119e <lcd_wr_char+0x26c>
	{
		//	__ticks = requested delay in 1/10 ms
		__ticks = (uint16_t) (__ms * 10.0);
    114c:	6b 85       	ldd	r22, Y+11	; 0x0b
    114e:	7c 85       	ldd	r23, Y+12	; 0x0c
    1150:	8d 85       	ldd	r24, Y+13	; 0x0d
    1152:	9e 85       	ldd	r25, Y+14	; 0x0e
    1154:	20 e0       	ldi	r18, 0x00	; 0
    1156:	30 e0       	ldi	r19, 0x00	; 0
    1158:	40 e2       	ldi	r20, 0x20	; 32
    115a:	51 e4       	ldi	r21, 0x41	; 65
    115c:	0e 94 30 21 	call	0x4260	; 0x4260 <__mulsf3>
    1160:	dc 01       	movw	r26, r24
    1162:	cb 01       	movw	r24, r22
    1164:	bc 01       	movw	r22, r24
    1166:	cd 01       	movw	r24, r26
    1168:	0e 94 5a 1f 	call	0x3eb4	; 0x3eb4 <__fixunssfsi>
    116c:	dc 01       	movw	r26, r24
    116e:	cb 01       	movw	r24, r22
    1170:	9e 83       	std	Y+6, r25	; 0x06
    1172:	8d 83       	std	Y+5, r24	; 0x05
    1174:	0f c0       	rjmp	.+30     	; 0x1194 <lcd_wr_char+0x262>
    1176:	80 e7       	ldi	r24, 0x70	; 112
    1178:	91 e0       	ldi	r25, 0x01	; 1
    117a:	9c 83       	std	Y+4, r25	; 0x04
    117c:	8b 83       	std	Y+3, r24	; 0x03
    117e:	8b 81       	ldd	r24, Y+3	; 0x03
    1180:	9c 81       	ldd	r25, Y+4	; 0x04
    1182:	01 97       	sbiw	r24, 0x01	; 1
    1184:	f1 f7       	brne	.-4      	; 0x1182 <lcd_wr_char+0x250>
    1186:	9c 83       	std	Y+4, r25	; 0x04
    1188:	8b 83       	std	Y+3, r24	; 0x03
		while(__ticks)
		{
			// wait 1/10 ms
			_delay_loop_2(((F_CPU) / 4e3) / 10);
			__ticks --;
    118a:	8d 81       	ldd	r24, Y+5	; 0x05
    118c:	9e 81       	ldd	r25, Y+6	; 0x06
    118e:	01 97       	sbiw	r24, 0x01	; 1
    1190:	9e 83       	std	Y+6, r25	; 0x06
    1192:	8d 83       	std	Y+5, r24	; 0x05
		__ticks = 1;
	else if (__tmp > 65535)
	{
		//	__ticks = requested delay in 1/10 ms
		__ticks = (uint16_t) (__ms * 10.0);
		while(__ticks)
    1194:	8d 81       	ldd	r24, Y+5	; 0x05
    1196:	9e 81       	ldd	r25, Y+6	; 0x06
    1198:	00 97       	sbiw	r24, 0x00	; 0
    119a:	69 f7       	brne	.-38     	; 0x1176 <lcd_wr_char+0x244>
    119c:	14 c0       	rjmp	.+40     	; 0x11c6 <lcd_wr_char+0x294>
			__ticks --;
		}
		return;
	}
	else
		__ticks = (uint16_t)__tmp;
    119e:	6f 81       	ldd	r22, Y+7	; 0x07
    11a0:	78 85       	ldd	r23, Y+8	; 0x08
    11a2:	89 85       	ldd	r24, Y+9	; 0x09
    11a4:	9a 85       	ldd	r25, Y+10	; 0x0a
    11a6:	0e 94 5a 1f 	call	0x3eb4	; 0x3eb4 <__fixunssfsi>
    11aa:	dc 01       	movw	r26, r24
    11ac:	cb 01       	movw	r24, r22
    11ae:	9e 83       	std	Y+6, r25	; 0x06
    11b0:	8d 83       	std	Y+5, r24	; 0x05
    11b2:	8d 81       	ldd	r24, Y+5	; 0x05
    11b4:	9e 81       	ldd	r25, Y+6	; 0x06
    11b6:	9a 83       	std	Y+2, r25	; 0x02
    11b8:	89 83       	std	Y+1, r24	; 0x01
    11ba:	89 81       	ldd	r24, Y+1	; 0x01
    11bc:	9a 81       	ldd	r25, Y+2	; 0x02
    11be:	01 97       	sbiw	r24, 0x01	; 1
    11c0:	f1 f7       	brne	.-4      	; 0x11be <lcd_wr_char+0x28c>
    11c2:	9a 83       	std	Y+2, r25	; 0x02
    11c4:	89 83       	std	Y+1, r24	; 0x01
	_delay_ms(5);
	cbit(lcd_port,EN);
    11c6:	a8 e2       	ldi	r26, 0x28	; 40
    11c8:	b0 e0       	ldi	r27, 0x00	; 0
    11ca:	e8 e2       	ldi	r30, 0x28	; 40
    11cc:	f0 e0       	ldi	r31, 0x00	; 0
    11ce:	80 81       	ld	r24, Z
    11d0:	8b 7f       	andi	r24, 0xFB	; 251
    11d2:	8c 93       	st	X, r24
}
    11d4:	6e 96       	adiw	r28, 0x1e	; 30
    11d6:	0f b6       	in	r0, 0x3f	; 63
    11d8:	f8 94       	cli
    11da:	de bf       	out	0x3e, r29	; 62
    11dc:	0f be       	out	0x3f, r0	; 63
    11de:	cd bf       	out	0x3d, r28	; 61
    11e0:	cf 91       	pop	r28
    11e2:	df 91       	pop	r29
    11e4:	08 95       	ret

000011e6 <lcd_home>:


//Function to bring cursor at home position
void lcd_home()
{
    11e6:	df 93       	push	r29
    11e8:	cf 93       	push	r28
    11ea:	cd b7       	in	r28, 0x3d	; 61
    11ec:	de b7       	in	r29, 0x3e	; 62
	lcd_wr_command(0x80);
    11ee:	80 e8       	ldi	r24, 0x80	; 128
    11f0:	0e 94 3f 06 	call	0xc7e	; 0xc7e <lcd_wr_command>
}
    11f4:	cf 91       	pop	r28
    11f6:	df 91       	pop	r29
    11f8:	08 95       	ret

000011fa <lcd_string>:


//Function to Print String on LCD
void lcd_string(char *str)
{
    11fa:	df 93       	push	r29
    11fc:	cf 93       	push	r28
    11fe:	0f 92       	push	r0
    1200:	0f 92       	push	r0
    1202:	cd b7       	in	r28, 0x3d	; 61
    1204:	de b7       	in	r29, 0x3e	; 62
    1206:	9a 83       	std	Y+2, r25	; 0x02
    1208:	89 83       	std	Y+1, r24	; 0x01
    120a:	0a c0       	rjmp	.+20     	; 0x1220 <lcd_string+0x26>
	while(*str != '\0')
	{
		lcd_wr_char(*str);
    120c:	e9 81       	ldd	r30, Y+1	; 0x01
    120e:	fa 81       	ldd	r31, Y+2	; 0x02
    1210:	80 81       	ld	r24, Z
    1212:	0e 94 99 07 	call	0xf32	; 0xf32 <lcd_wr_char>
		str++;
    1216:	89 81       	ldd	r24, Y+1	; 0x01
    1218:	9a 81       	ldd	r25, Y+2	; 0x02
    121a:	01 96       	adiw	r24, 0x01	; 1
    121c:	9a 83       	std	Y+2, r25	; 0x02
    121e:	89 83       	std	Y+1, r24	; 0x01


//Function to Print String on LCD
void lcd_string(char *str)
{
	while(*str != '\0')
    1220:	e9 81       	ldd	r30, Y+1	; 0x01
    1222:	fa 81       	ldd	r31, Y+2	; 0x02
    1224:	80 81       	ld	r24, Z
    1226:	88 23       	and	r24, r24
    1228:	89 f7       	brne	.-30     	; 0x120c <lcd_string+0x12>
	{
		lcd_wr_char(*str);
		str++;
	}
}
    122a:	0f 90       	pop	r0
    122c:	0f 90       	pop	r0
    122e:	cf 91       	pop	r28
    1230:	df 91       	pop	r29
    1232:	08 95       	ret

00001234 <lcd_cursor>:

//Position the LCD cursor at "row", "column".

void lcd_cursor (char row, char column)
{
    1234:	df 93       	push	r29
    1236:	cf 93       	push	r28
    1238:	00 d0       	rcall	.+0      	; 0x123a <lcd_cursor+0x6>
    123a:	0f 92       	push	r0
    123c:	cd b7       	in	r28, 0x3d	; 61
    123e:	de b7       	in	r29, 0x3e	; 62
    1240:	89 83       	std	Y+1, r24	; 0x01
    1242:	6a 83       	std	Y+2, r22	; 0x02
	switch (row) {
    1244:	89 81       	ldd	r24, Y+1	; 0x01
    1246:	28 2f       	mov	r18, r24
    1248:	30 e0       	ldi	r19, 0x00	; 0
    124a:	3c 83       	std	Y+4, r19	; 0x04
    124c:	2b 83       	std	Y+3, r18	; 0x03
    124e:	8b 81       	ldd	r24, Y+3	; 0x03
    1250:	9c 81       	ldd	r25, Y+4	; 0x04
    1252:	82 30       	cpi	r24, 0x02	; 2
    1254:	91 05       	cpc	r25, r1
    1256:	d9 f0       	breq	.+54     	; 0x128e <lcd_cursor+0x5a>
    1258:	2b 81       	ldd	r18, Y+3	; 0x03
    125a:	3c 81       	ldd	r19, Y+4	; 0x04
    125c:	23 30       	cpi	r18, 0x03	; 3
    125e:	31 05       	cpc	r19, r1
    1260:	34 f4       	brge	.+12     	; 0x126e <lcd_cursor+0x3a>
    1262:	8b 81       	ldd	r24, Y+3	; 0x03
    1264:	9c 81       	ldd	r25, Y+4	; 0x04
    1266:	81 30       	cpi	r24, 0x01	; 1
    1268:	91 05       	cpc	r25, r1
    126a:	61 f0       	breq	.+24     	; 0x1284 <lcd_cursor+0x50>
    126c:	1e c0       	rjmp	.+60     	; 0x12aa <lcd_cursor+0x76>
    126e:	2b 81       	ldd	r18, Y+3	; 0x03
    1270:	3c 81       	ldd	r19, Y+4	; 0x04
    1272:	23 30       	cpi	r18, 0x03	; 3
    1274:	31 05       	cpc	r19, r1
    1276:	81 f0       	breq	.+32     	; 0x1298 <lcd_cursor+0x64>
    1278:	8b 81       	ldd	r24, Y+3	; 0x03
    127a:	9c 81       	ldd	r25, Y+4	; 0x04
    127c:	84 30       	cpi	r24, 0x04	; 4
    127e:	91 05       	cpc	r25, r1
    1280:	81 f0       	breq	.+32     	; 0x12a2 <lcd_cursor+0x6e>
    1282:	13 c0       	rjmp	.+38     	; 0x12aa <lcd_cursor+0x76>
		case 1: lcd_wr_command (0x80 + column - 1); break;
    1284:	8a 81       	ldd	r24, Y+2	; 0x02
    1286:	81 58       	subi	r24, 0x81	; 129
    1288:	0e 94 3f 06 	call	0xc7e	; 0xc7e <lcd_wr_command>
    128c:	0e c0       	rjmp	.+28     	; 0x12aa <lcd_cursor+0x76>
		case 2: lcd_wr_command (0xc0 + column - 1); break;
    128e:	8a 81       	ldd	r24, Y+2	; 0x02
    1290:	81 54       	subi	r24, 0x41	; 65
    1292:	0e 94 3f 06 	call	0xc7e	; 0xc7e <lcd_wr_command>
    1296:	09 c0       	rjmp	.+18     	; 0x12aa <lcd_cursor+0x76>
		case 3: lcd_wr_command (0x94 + column - 1); break;
    1298:	8a 81       	ldd	r24, Y+2	; 0x02
    129a:	8d 56       	subi	r24, 0x6D	; 109
    129c:	0e 94 3f 06 	call	0xc7e	; 0xc7e <lcd_wr_command>
    12a0:	04 c0       	rjmp	.+8      	; 0x12aa <lcd_cursor+0x76>
		case 4: lcd_wr_command (0xd4 + column - 1); break;
    12a2:	8a 81       	ldd	r24, Y+2	; 0x02
    12a4:	8d 52       	subi	r24, 0x2D	; 45
    12a6:	0e 94 3f 06 	call	0xc7e	; 0xc7e <lcd_wr_command>
		default: break;
	}
}
    12aa:	0f 90       	pop	r0
    12ac:	0f 90       	pop	r0
    12ae:	0f 90       	pop	r0
    12b0:	0f 90       	pop	r0
    12b2:	cf 91       	pop	r28
    12b4:	df 91       	pop	r29
    12b6:	08 95       	ret

000012b8 <lcd_print>:

//Function To Print Any input value upto the desired digit on LCD
void lcd_print (char row, char coloumn, unsigned int value, int digits)
{
    12b8:	df 93       	push	r29
    12ba:	cf 93       	push	r28
    12bc:	cd b7       	in	r28, 0x3d	; 61
    12be:	de b7       	in	r29, 0x3e	; 62
    12c0:	27 97       	sbiw	r28, 0x07	; 7
    12c2:	0f b6       	in	r0, 0x3f	; 63
    12c4:	f8 94       	cli
    12c6:	de bf       	out	0x3e, r29	; 62
    12c8:	0f be       	out	0x3f, r0	; 63
    12ca:	cd bf       	out	0x3d, r28	; 61
    12cc:	8a 83       	std	Y+2, r24	; 0x02
    12ce:	6b 83       	std	Y+3, r22	; 0x03
    12d0:	5d 83       	std	Y+5, r21	; 0x05
    12d2:	4c 83       	std	Y+4, r20	; 0x04
    12d4:	3f 83       	std	Y+7, r19	; 0x07
    12d6:	2e 83       	std	Y+6, r18	; 0x06
	unsigned char flag=0;
    12d8:	19 82       	std	Y+1, r1	; 0x01
	if(row==0||coloumn==0)
    12da:	8a 81       	ldd	r24, Y+2	; 0x02
    12dc:	88 23       	and	r24, r24
    12de:	19 f0       	breq	.+6      	; 0x12e6 <lcd_print+0x2e>
    12e0:	8b 81       	ldd	r24, Y+3	; 0x03
    12e2:	88 23       	and	r24, r24
    12e4:	19 f4       	brne	.+6      	; 0x12ec <lcd_print+0x34>
	{
		lcd_home();
    12e6:	0e 94 f3 08 	call	0x11e6	; 0x11e6 <lcd_home>
    12ea:	04 c0       	rjmp	.+8      	; 0x12f4 <lcd_print+0x3c>
	}
	else
	{
		lcd_cursor(row,coloumn);
    12ec:	8a 81       	ldd	r24, Y+2	; 0x02
    12ee:	6b 81       	ldd	r22, Y+3	; 0x03
    12f0:	0e 94 1a 09 	call	0x1234	; 0x1234 <lcd_cursor>
	}
	if(digits==5 || flag==1)
    12f4:	8e 81       	ldd	r24, Y+6	; 0x06
    12f6:	9f 81       	ldd	r25, Y+7	; 0x07
    12f8:	85 30       	cpi	r24, 0x05	; 5
    12fa:	91 05       	cpc	r25, r1
    12fc:	19 f0       	breq	.+6      	; 0x1304 <lcd_print+0x4c>
    12fe:	89 81       	ldd	r24, Y+1	; 0x01
    1300:	81 30       	cpi	r24, 0x01	; 1
    1302:	a9 f4       	brne	.+42     	; 0x132e <lcd_print+0x76>
	{
		million=value/10000+48;
    1304:	8c 81       	ldd	r24, Y+4	; 0x04
    1306:	9d 81       	ldd	r25, Y+5	; 0x05
    1308:	20 e1       	ldi	r18, 0x10	; 16
    130a:	37 e2       	ldi	r19, 0x27	; 39
    130c:	b9 01       	movw	r22, r18
    130e:	0e 94 28 26 	call	0x4c50	; 0x4c50 <__udivmodhi4>
    1312:	cb 01       	movw	r24, r22
    1314:	c0 96       	adiw	r24, 0x30	; 48
    1316:	90 93 4d 04 	sts	0x044D, r25
    131a:	80 93 4c 04 	sts	0x044C, r24
		lcd_wr_char(million);
    131e:	80 91 4c 04 	lds	r24, 0x044C
    1322:	90 91 4d 04 	lds	r25, 0x044D
    1326:	0e 94 99 07 	call	0xf32	; 0xf32 <lcd_wr_char>
		flag=1;
    132a:	81 e0       	ldi	r24, 0x01	; 1
    132c:	89 83       	std	Y+1, r24	; 0x01
	}
	if(digits==4 || flag==1)
    132e:	8e 81       	ldd	r24, Y+6	; 0x06
    1330:	9f 81       	ldd	r25, Y+7	; 0x07
    1332:	84 30       	cpi	r24, 0x04	; 4
    1334:	91 05       	cpc	r25, r1
    1336:	19 f0       	breq	.+6      	; 0x133e <lcd_print+0x86>
    1338:	89 81       	ldd	r24, Y+1	; 0x01
    133a:	81 30       	cpi	r24, 0x01	; 1
    133c:	11 f5       	brne	.+68     	; 0x1382 <lcd_print+0xca>
	{
		temp = value/1000;
    133e:	8c 81       	ldd	r24, Y+4	; 0x04
    1340:	9d 81       	ldd	r25, Y+5	; 0x05
    1342:	28 ee       	ldi	r18, 0xE8	; 232
    1344:	33 e0       	ldi	r19, 0x03	; 3
    1346:	b9 01       	movw	r22, r18
    1348:	0e 94 28 26 	call	0x4c50	; 0x4c50 <__udivmodhi4>
    134c:	cb 01       	movw	r24, r22
    134e:	90 93 51 04 	sts	0x0451, r25
    1352:	80 93 50 04 	sts	0x0450, r24
		thousand = temp%10 + 48;
    1356:	80 91 50 04 	lds	r24, 0x0450
    135a:	90 91 51 04 	lds	r25, 0x0451
    135e:	2a e0       	ldi	r18, 0x0A	; 10
    1360:	30 e0       	ldi	r19, 0x00	; 0
    1362:	b9 01       	movw	r22, r18
    1364:	0e 94 28 26 	call	0x4c50	; 0x4c50 <__udivmodhi4>
    1368:	c0 96       	adiw	r24, 0x30	; 48
    136a:	90 93 61 04 	sts	0x0461, r25
    136e:	80 93 60 04 	sts	0x0460, r24
		lcd_wr_char(thousand);
    1372:	80 91 60 04 	lds	r24, 0x0460
    1376:	90 91 61 04 	lds	r25, 0x0461
    137a:	0e 94 99 07 	call	0xf32	; 0xf32 <lcd_wr_char>
		flag=1;
    137e:	81 e0       	ldi	r24, 0x01	; 1
    1380:	89 83       	std	Y+1, r24	; 0x01
	}
	if(digits==3 || flag==1)
    1382:	8e 81       	ldd	r24, Y+6	; 0x06
    1384:	9f 81       	ldd	r25, Y+7	; 0x07
    1386:	83 30       	cpi	r24, 0x03	; 3
    1388:	91 05       	cpc	r25, r1
    138a:	19 f0       	breq	.+6      	; 0x1392 <lcd_print+0xda>
    138c:	89 81       	ldd	r24, Y+1	; 0x01
    138e:	81 30       	cpi	r24, 0x01	; 1
    1390:	11 f5       	brne	.+68     	; 0x13d6 <lcd_print+0x11e>
	{
		temp = value/100;
    1392:	8c 81       	ldd	r24, Y+4	; 0x04
    1394:	9d 81       	ldd	r25, Y+5	; 0x05
    1396:	24 e6       	ldi	r18, 0x64	; 100
    1398:	30 e0       	ldi	r19, 0x00	; 0
    139a:	b9 01       	movw	r22, r18
    139c:	0e 94 28 26 	call	0x4c50	; 0x4c50 <__udivmodhi4>
    13a0:	cb 01       	movw	r24, r22
    13a2:	90 93 51 04 	sts	0x0451, r25
    13a6:	80 93 50 04 	sts	0x0450, r24
		hundred = temp%10 + 48;
    13aa:	80 91 50 04 	lds	r24, 0x0450
    13ae:	90 91 51 04 	lds	r25, 0x0451
    13b2:	2a e0       	ldi	r18, 0x0A	; 10
    13b4:	30 e0       	ldi	r19, 0x00	; 0
    13b6:	b9 01       	movw	r22, r18
    13b8:	0e 94 28 26 	call	0x4c50	; 0x4c50 <__udivmodhi4>
    13bc:	c0 96       	adiw	r24, 0x30	; 48
    13be:	90 93 5d 04 	sts	0x045D, r25
    13c2:	80 93 5c 04 	sts	0x045C, r24
		lcd_wr_char(hundred);
    13c6:	80 91 5c 04 	lds	r24, 0x045C
    13ca:	90 91 5d 04 	lds	r25, 0x045D
    13ce:	0e 94 99 07 	call	0xf32	; 0xf32 <lcd_wr_char>
		flag=1;
    13d2:	81 e0       	ldi	r24, 0x01	; 1
    13d4:	89 83       	std	Y+1, r24	; 0x01
	}
	if(digits==2 || flag==1)
    13d6:	8e 81       	ldd	r24, Y+6	; 0x06
    13d8:	9f 81       	ldd	r25, Y+7	; 0x07
    13da:	82 30       	cpi	r24, 0x02	; 2
    13dc:	91 05       	cpc	r25, r1
    13de:	19 f0       	breq	.+6      	; 0x13e6 <lcd_print+0x12e>
    13e0:	89 81       	ldd	r24, Y+1	; 0x01
    13e2:	81 30       	cpi	r24, 0x01	; 1
    13e4:	11 f5       	brne	.+68     	; 0x142a <lcd_print+0x172>
	{
		temp = value/10;
    13e6:	8c 81       	ldd	r24, Y+4	; 0x04
    13e8:	9d 81       	ldd	r25, Y+5	; 0x05
    13ea:	2a e0       	ldi	r18, 0x0A	; 10
    13ec:	30 e0       	ldi	r19, 0x00	; 0
    13ee:	b9 01       	movw	r22, r18
    13f0:	0e 94 28 26 	call	0x4c50	; 0x4c50 <__udivmodhi4>
    13f4:	cb 01       	movw	r24, r22
    13f6:	90 93 51 04 	sts	0x0451, r25
    13fa:	80 93 50 04 	sts	0x0450, r24
		tens = temp%10 + 48;
    13fe:	80 91 50 04 	lds	r24, 0x0450
    1402:	90 91 51 04 	lds	r25, 0x0451
    1406:	2a e0       	ldi	r18, 0x0A	; 10
    1408:	30 e0       	ldi	r19, 0x00	; 0
    140a:	b9 01       	movw	r22, r18
    140c:	0e 94 28 26 	call	0x4c50	; 0x4c50 <__udivmodhi4>
    1410:	c0 96       	adiw	r24, 0x30	; 48
    1412:	90 93 54 04 	sts	0x0454, r25
    1416:	80 93 53 04 	sts	0x0453, r24
		lcd_wr_char(tens);
    141a:	80 91 53 04 	lds	r24, 0x0453
    141e:	90 91 54 04 	lds	r25, 0x0454
    1422:	0e 94 99 07 	call	0xf32	; 0xf32 <lcd_wr_char>
		flag=1;
    1426:	81 e0       	ldi	r24, 0x01	; 1
    1428:	89 83       	std	Y+1, r24	; 0x01
	}
	if(digits==1 || flag==1)
    142a:	8e 81       	ldd	r24, Y+6	; 0x06
    142c:	9f 81       	ldd	r25, Y+7	; 0x07
    142e:	81 30       	cpi	r24, 0x01	; 1
    1430:	91 05       	cpc	r25, r1
    1432:	19 f0       	breq	.+6      	; 0x143a <lcd_print+0x182>
    1434:	89 81       	ldd	r24, Y+1	; 0x01
    1436:	81 30       	cpi	r24, 0x01	; 1
    1438:	91 f4       	brne	.+36     	; 0x145e <lcd_print+0x1a6>
	{
		unit = value%10 + 48;
    143a:	8c 81       	ldd	r24, Y+4	; 0x04
    143c:	9d 81       	ldd	r25, Y+5	; 0x05
    143e:	2a e0       	ldi	r18, 0x0A	; 10
    1440:	30 e0       	ldi	r19, 0x00	; 0
    1442:	b9 01       	movw	r22, r18
    1444:	0e 94 28 26 	call	0x4c50	; 0x4c50 <__udivmodhi4>
    1448:	c0 96       	adiw	r24, 0x30	; 48
    144a:	90 93 5f 04 	sts	0x045F, r25
    144e:	80 93 5e 04 	sts	0x045E, r24
		lcd_wr_char(unit);
    1452:	80 91 5e 04 	lds	r24, 0x045E
    1456:	90 91 5f 04 	lds	r25, 0x045F
    145a:	0e 94 99 07 	call	0xf32	; 0xf32 <lcd_wr_char>
	}
	if(digits>5)
    145e:	8e 81       	ldd	r24, Y+6	; 0x06
    1460:	9f 81       	ldd	r25, Y+7	; 0x07
    1462:	86 30       	cpi	r24, 0x06	; 6
    1464:	91 05       	cpc	r25, r1
    1466:	1c f0       	brlt	.+6      	; 0x146e <lcd_print+0x1b6>
	{
		lcd_wr_char('E');
    1468:	85 e4       	ldi	r24, 0x45	; 69
    146a:	0e 94 99 07 	call	0xf32	; 0xf32 <lcd_wr_char>
	}
	
}
    146e:	27 96       	adiw	r28, 0x07	; 7
    1470:	0f b6       	in	r0, 0x3f	; 63
    1472:	f8 94       	cli
    1474:	de bf       	out	0x3e, r29	; 62
    1476:	0f be       	out	0x3f, r0	; 63
    1478:	cd bf       	out	0x3d, r28	; 61
    147a:	cf 91       	pop	r28
    147c:	df 91       	pop	r29
    147e:	08 95       	ret

00001480 <adc_pin_config>:
int temp_switch=0;
int *actionlist;


void adc_pin_config()
{
    1480:	df 93       	push	r29
    1482:	cf 93       	push	r28
    1484:	cd b7       	in	r28, 0x3d	; 61
    1486:	de b7       	in	r29, 0x3e	; 62
	DDRF = 0x00;
    1488:	e0 e3       	ldi	r30, 0x30	; 48
    148a:	f0 e0       	ldi	r31, 0x00	; 0
    148c:	10 82       	st	Z, r1
	DDRK = 0x00;
    148e:	e7 e0       	ldi	r30, 0x07	; 7
    1490:	f1 e0       	ldi	r31, 0x01	; 1
    1492:	10 82       	st	Z, r1
}
    1494:	cf 91       	pop	r28
    1496:	df 91       	pop	r29
    1498:	08 95       	ret

0000149a <adc_init>:

void adc_init()
{
    149a:	df 93       	push	r29
    149c:	cf 93       	push	r28
    149e:	cd b7       	in	r28, 0x3d	; 61
    14a0:	de b7       	in	r29, 0x3e	; 62
	ADCSRA = 0x86;
    14a2:	ea e7       	ldi	r30, 0x7A	; 122
    14a4:	f0 e0       	ldi	r31, 0x00	; 0
    14a6:	86 e8       	ldi	r24, 0x86	; 134
    14a8:	80 83       	st	Z, r24
	ADCSRB = 0x00;
    14aa:	eb e7       	ldi	r30, 0x7B	; 123
    14ac:	f0 e0       	ldi	r31, 0x00	; 0
    14ae:	10 82       	st	Z, r1
	ADMUX = 0x20;
    14b0:	ec e7       	ldi	r30, 0x7C	; 124
    14b2:	f0 e0       	ldi	r31, 0x00	; 0
    14b4:	80 e2       	ldi	r24, 0x20	; 32
    14b6:	80 83       	st	Z, r24
	ACSR = 0x80;
    14b8:	e0 e5       	ldi	r30, 0x50	; 80
    14ba:	f0 e0       	ldi	r31, 0x00	; 0
    14bc:	80 e8       	ldi	r24, 0x80	; 128
    14be:	80 83       	st	Z, r24
}
    14c0:	cf 91       	pop	r28
    14c2:	df 91       	pop	r29
    14c4:	08 95       	ret

000014c6 <velocity>:

void velocity(unsigned char left_vel, unsigned char right_vel)
{
    14c6:	df 93       	push	r29
    14c8:	cf 93       	push	r28
    14ca:	0f 92       	push	r0
    14cc:	0f 92       	push	r0
    14ce:	cd b7       	in	r28, 0x3d	; 61
    14d0:	de b7       	in	r29, 0x3e	; 62
    14d2:	89 83       	std	Y+1, r24	; 0x01
    14d4:	6a 83       	std	Y+2, r22	; 0x02
	OCR5AL = left_vel;
    14d6:	e8 e2       	ldi	r30, 0x28	; 40
    14d8:	f1 e0       	ldi	r31, 0x01	; 1
    14da:	89 81       	ldd	r24, Y+1	; 0x01
    14dc:	80 83       	st	Z, r24
	OCR5BL = right_vel;
    14de:	ea e2       	ldi	r30, 0x2A	; 42
    14e0:	f1 e0       	ldi	r31, 0x01	; 1
    14e2:	8a 81       	ldd	r24, Y+2	; 0x02
    14e4:	80 83       	st	Z, r24
}
    14e6:	0f 90       	pop	r0
    14e8:	0f 90       	pop	r0
    14ea:	cf 91       	pop	r28
    14ec:	df 91       	pop	r29
    14ee:	08 95       	ret

000014f0 <adc_convert>:

unsigned char adc_convert(unsigned char channel)
{
    14f0:	df 93       	push	r29
    14f2:	cf 93       	push	r28
    14f4:	0f 92       	push	r0
    14f6:	0f 92       	push	r0
    14f8:	cd b7       	in	r28, 0x3d	; 61
    14fa:	de b7       	in	r29, 0x3e	; 62
    14fc:	8a 83       	std	Y+2, r24	; 0x02
	if(channel > 7)
    14fe:	8a 81       	ldd	r24, Y+2	; 0x02
    1500:	88 30       	cpi	r24, 0x08	; 8
    1502:	38 f0       	brcs	.+14     	; 0x1512 <adc_convert+0x22>
	{
		ADCSRB |= 0x08;
    1504:	ab e7       	ldi	r26, 0x7B	; 123
    1506:	b0 e0       	ldi	r27, 0x00	; 0
    1508:	eb e7       	ldi	r30, 0x7B	; 123
    150a:	f0 e0       	ldi	r31, 0x00	; 0
    150c:	80 81       	ld	r24, Z
    150e:	88 60       	ori	r24, 0x08	; 8
    1510:	8c 93       	st	X, r24
	}
	ADMUX |= (channel&7);
    1512:	ac e7       	ldi	r26, 0x7C	; 124
    1514:	b0 e0       	ldi	r27, 0x00	; 0
    1516:	ec e7       	ldi	r30, 0x7C	; 124
    1518:	f0 e0       	ldi	r31, 0x00	; 0
    151a:	80 81       	ld	r24, Z
    151c:	98 2f       	mov	r25, r24
    151e:	8a 81       	ldd	r24, Y+2	; 0x02
    1520:	87 70       	andi	r24, 0x07	; 7
    1522:	89 2b       	or	r24, r25
    1524:	8c 93       	st	X, r24
	ADCSRA |= 0x40;
    1526:	aa e7       	ldi	r26, 0x7A	; 122
    1528:	b0 e0       	ldi	r27, 0x00	; 0
    152a:	ea e7       	ldi	r30, 0x7A	; 122
    152c:	f0 e0       	ldi	r31, 0x00	; 0
    152e:	80 81       	ld	r24, Z
    1530:	80 64       	ori	r24, 0x40	; 64
    1532:	8c 93       	st	X, r24
	while((ADCSRA & 0x10) == 0);
    1534:	ea e7       	ldi	r30, 0x7A	; 122
    1536:	f0 e0       	ldi	r31, 0x00	; 0
    1538:	80 81       	ld	r24, Z
    153a:	88 2f       	mov	r24, r24
    153c:	90 e0       	ldi	r25, 0x00	; 0
    153e:	80 71       	andi	r24, 0x10	; 16
    1540:	90 70       	andi	r25, 0x00	; 0
    1542:	00 97       	sbiw	r24, 0x00	; 0
    1544:	b9 f3       	breq	.-18     	; 0x1534 <adc_convert+0x44>
	unsigned char a = ADCH;
    1546:	e9 e7       	ldi	r30, 0x79	; 121
    1548:	f0 e0       	ldi	r31, 0x00	; 0
    154a:	80 81       	ld	r24, Z
    154c:	89 83       	std	Y+1, r24	; 0x01
	adc_init();
    154e:	0e 94 4d 0a 	call	0x149a	; 0x149a <adc_init>
	return a;
    1552:	89 81       	ldd	r24, Y+1	; 0x01
}
    1554:	0f 90       	pop	r0
    1556:	0f 90       	pop	r0
    1558:	cf 91       	pop	r28
    155a:	df 91       	pop	r29
    155c:	08 95       	ret

0000155e <servo1_pin_config>:

void servo1_pin_config (void)
{
    155e:	df 93       	push	r29
    1560:	cf 93       	push	r28
    1562:	cd b7       	in	r28, 0x3d	; 61
    1564:	de b7       	in	r29, 0x3e	; 62
 DDRB  = DDRB | 0x20;  
    1566:	a4 e2       	ldi	r26, 0x24	; 36
    1568:	b0 e0       	ldi	r27, 0x00	; 0
    156a:	e4 e2       	ldi	r30, 0x24	; 36
    156c:	f0 e0       	ldi	r31, 0x00	; 0
    156e:	80 81       	ld	r24, Z
    1570:	80 62       	ori	r24, 0x20	; 32
    1572:	8c 93       	st	X, r24
 PORTB = PORTB | 0x20; 
    1574:	a5 e2       	ldi	r26, 0x25	; 37
    1576:	b0 e0       	ldi	r27, 0x00	; 0
    1578:	e5 e2       	ldi	r30, 0x25	; 37
    157a:	f0 e0       	ldi	r31, 0x00	; 0
    157c:	80 81       	ld	r24, Z
    157e:	80 62       	ori	r24, 0x20	; 32
    1580:	8c 93       	st	X, r24
}
    1582:	cf 91       	pop	r28
    1584:	df 91       	pop	r29
    1586:	08 95       	ret

00001588 <servo2_pin_config>:


void servo2_pin_config (void)
{
    1588:	df 93       	push	r29
    158a:	cf 93       	push	r28
    158c:	cd b7       	in	r28, 0x3d	; 61
    158e:	de b7       	in	r29, 0x3e	; 62
 DDRB  = DDRB | 0x40;  
    1590:	a4 e2       	ldi	r26, 0x24	; 36
    1592:	b0 e0       	ldi	r27, 0x00	; 0
    1594:	e4 e2       	ldi	r30, 0x24	; 36
    1596:	f0 e0       	ldi	r31, 0x00	; 0
    1598:	80 81       	ld	r24, Z
    159a:	80 64       	ori	r24, 0x40	; 64
    159c:	8c 93       	st	X, r24
 PORTB = PORTB | 0x40; 
    159e:	a5 e2       	ldi	r26, 0x25	; 37
    15a0:	b0 e0       	ldi	r27, 0x00	; 0
    15a2:	e5 e2       	ldi	r30, 0x25	; 37
    15a4:	f0 e0       	ldi	r31, 0x00	; 0
    15a6:	80 81       	ld	r24, Z
    15a8:	80 64       	ori	r24, 0x40	; 64
    15aa:	8c 93       	st	X, r24
}
    15ac:	cf 91       	pop	r28
    15ae:	df 91       	pop	r29
    15b0:	08 95       	ret

000015b2 <timer1_init>:

void timer1_init(void)
{
    15b2:	df 93       	push	r29
    15b4:	cf 93       	push	r28
    15b6:	cd b7       	in	r28, 0x3d	; 61
    15b8:	de b7       	in	r29, 0x3e	; 62
	TCCR1B = 0x00; 
    15ba:	e1 e8       	ldi	r30, 0x81	; 129
    15bc:	f0 e0       	ldi	r31, 0x00	; 0
    15be:	10 82       	st	Z, r1
	TCNT1H = 0xFC; 
    15c0:	e5 e8       	ldi	r30, 0x85	; 133
    15c2:	f0 e0       	ldi	r31, 0x00	; 0
    15c4:	8c ef       	ldi	r24, 0xFC	; 252
    15c6:	80 83       	st	Z, r24
	TCNT1L = 0x01;	
    15c8:	e4 e8       	ldi	r30, 0x84	; 132
    15ca:	f0 e0       	ldi	r31, 0x00	; 0
    15cc:	81 e0       	ldi	r24, 0x01	; 1
    15ce:	80 83       	st	Z, r24
	OCR1AH = 0x03;	
    15d0:	e9 e8       	ldi	r30, 0x89	; 137
    15d2:	f0 e0       	ldi	r31, 0x00	; 0
    15d4:	83 e0       	ldi	r24, 0x03	; 3
    15d6:	80 83       	st	Z, r24
	OCR1AL = 0xFF;	
    15d8:	e8 e8       	ldi	r30, 0x88	; 136
    15da:	f0 e0       	ldi	r31, 0x00	; 0
    15dc:	8f ef       	ldi	r24, 0xFF	; 255
    15de:	80 83       	st	Z, r24
	OCR1BH = 0x03;	
    15e0:	eb e8       	ldi	r30, 0x8B	; 139
    15e2:	f0 e0       	ldi	r31, 0x00	; 0
    15e4:	83 e0       	ldi	r24, 0x03	; 3
    15e6:	80 83       	st	Z, r24
	OCR1BL = 0xFF;	
    15e8:	ea e8       	ldi	r30, 0x8A	; 138
    15ea:	f0 e0       	ldi	r31, 0x00	; 0
    15ec:	8f ef       	ldi	r24, 0xFF	; 255
    15ee:	80 83       	st	Z, r24
	OCR1CH = 0x03;
    15f0:	ed e8       	ldi	r30, 0x8D	; 141
    15f2:	f0 e0       	ldi	r31, 0x00	; 0
    15f4:	83 e0       	ldi	r24, 0x03	; 3
    15f6:	80 83       	st	Z, r24
	OCR1CL = 0xFF;	
    15f8:	ec e8       	ldi	r30, 0x8C	; 140
    15fa:	f0 e0       	ldi	r31, 0x00	; 0
    15fc:	8f ef       	ldi	r24, 0xFF	; 255
    15fe:	80 83       	st	Z, r24
	ICR1H  = 0x03;	
    1600:	e7 e8       	ldi	r30, 0x87	; 135
    1602:	f0 e0       	ldi	r31, 0x00	; 0
    1604:	83 e0       	ldi	r24, 0x03	; 3
    1606:	80 83       	st	Z, r24
	ICR1L  = 0xFF;
    1608:	e6 e8       	ldi	r30, 0x86	; 134
    160a:	f0 e0       	ldi	r31, 0x00	; 0
    160c:	8f ef       	ldi	r24, 0xFF	; 255
    160e:	80 83       	st	Z, r24
	TCCR1A = 0xAB; 
    1610:	e0 e8       	ldi	r30, 0x80	; 128
    1612:	f0 e0       	ldi	r31, 0x00	; 0
    1614:	8b ea       	ldi	r24, 0xAB	; 171
    1616:	80 83       	st	Z, r24
	TCCR1C = 0x00;
    1618:	e2 e8       	ldi	r30, 0x82	; 130
    161a:	f0 e0       	ldi	r31, 0x00	; 0
    161c:	10 82       	st	Z, r1
	TCCR1B = 0x0C; 
    161e:	e1 e8       	ldi	r30, 0x81	; 129
    1620:	f0 e0       	ldi	r31, 0x00	; 0
    1622:	8c e0       	ldi	r24, 0x0C	; 12
    1624:	80 83       	st	Z, r24
}
    1626:	cf 91       	pop	r28
    1628:	df 91       	pop	r29
    162a:	08 95       	ret

0000162c <servo_init>:

void servo_init()
{
    162c:	df 93       	push	r29
    162e:	cf 93       	push	r28
    1630:	cd b7       	in	r28, 0x3d	; 61
    1632:	de b7       	in	r29, 0x3e	; 62
	servo1_pin_config();
    1634:	0e 94 af 0a 	call	0x155e	; 0x155e <servo1_pin_config>
	servo2_pin_config();
    1638:	0e 94 c4 0a 	call	0x1588	; 0x1588 <servo2_pin_config>
	timer1_init();
    163c:	0e 94 d9 0a 	call	0x15b2	; 0x15b2 <timer1_init>
}
    1640:	cf 91       	pop	r28
    1642:	df 91       	pop	r29
    1644:	08 95       	ret

00001646 <servo_1>:


void servo_1(unsigned char degrees)  
{
    1646:	0f 93       	push	r16
    1648:	1f 93       	push	r17
    164a:	df 93       	push	r29
    164c:	cf 93       	push	r28
    164e:	00 d0       	rcall	.+0      	; 0x1650 <servo_1+0xa>
    1650:	0f 92       	push	r0
    1652:	0f 92       	push	r0
    1654:	cd b7       	in	r28, 0x3d	; 61
    1656:	de b7       	in	r29, 0x3e	; 62
    1658:	8d 83       	std	Y+5, r24	; 0x05
	float PositionPanServo = 0;
    165a:	80 e0       	ldi	r24, 0x00	; 0
    165c:	90 e0       	ldi	r25, 0x00	; 0
    165e:	a0 e0       	ldi	r26, 0x00	; 0
    1660:	b0 e0       	ldi	r27, 0x00	; 0
    1662:	89 83       	std	Y+1, r24	; 0x01
    1664:	9a 83       	std	Y+2, r25	; 0x02
    1666:	ab 83       	std	Y+3, r26	; 0x03
    1668:	bc 83       	std	Y+4, r27	; 0x04
	PositionPanServo = ((float)degrees / 1.86) + 35.0;
    166a:	8d 81       	ldd	r24, Y+5	; 0x05
    166c:	88 2f       	mov	r24, r24
    166e:	90 e0       	ldi	r25, 0x00	; 0
    1670:	a0 e0       	ldi	r26, 0x00	; 0
    1672:	b0 e0       	ldi	r27, 0x00	; 0
    1674:	bc 01       	movw	r22, r24
    1676:	cd 01       	movw	r24, r26
    1678:	0e 94 ba 23 	call	0x4774	; 0x4774 <__floatunsisf>
    167c:	dc 01       	movw	r26, r24
    167e:	cb 01       	movw	r24, r22
    1680:	bc 01       	movw	r22, r24
    1682:	cd 01       	movw	r24, r26
    1684:	2b e7       	ldi	r18, 0x7B	; 123
    1686:	34 e1       	ldi	r19, 0x14	; 20
    1688:	4e ee       	ldi	r20, 0xEE	; 238
    168a:	5f e3       	ldi	r21, 0x3F	; 63
    168c:	0e 94 2a 22 	call	0x4454	; 0x4454 <__divsf3>
    1690:	dc 01       	movw	r26, r24
    1692:	cb 01       	movw	r24, r22
    1694:	bc 01       	movw	r22, r24
    1696:	cd 01       	movw	r24, r26
    1698:	20 e0       	ldi	r18, 0x00	; 0
    169a:	30 e0       	ldi	r19, 0x00	; 0
    169c:	4c e0       	ldi	r20, 0x0C	; 12
    169e:	52 e4       	ldi	r21, 0x42	; 66
    16a0:	0e 94 03 21 	call	0x4206	; 0x4206 <__addsf3>
    16a4:	dc 01       	movw	r26, r24
    16a6:	cb 01       	movw	r24, r22
    16a8:	89 83       	std	Y+1, r24	; 0x01
    16aa:	9a 83       	std	Y+2, r25	; 0x02
    16ac:	ab 83       	std	Y+3, r26	; 0x03
    16ae:	bc 83       	std	Y+4, r27	; 0x04
	OCR1AH = 0x00;
    16b0:	e9 e8       	ldi	r30, 0x89	; 137
    16b2:	f0 e0       	ldi	r31, 0x00	; 0
    16b4:	10 82       	st	Z, r1
	OCR1AL = (unsigned char) PositionPanServo;
    16b6:	08 e8       	ldi	r16, 0x88	; 136
    16b8:	10 e0       	ldi	r17, 0x00	; 0
    16ba:	69 81       	ldd	r22, Y+1	; 0x01
    16bc:	7a 81       	ldd	r23, Y+2	; 0x02
    16be:	8b 81       	ldd	r24, Y+3	; 0x03
    16c0:	9c 81       	ldd	r25, Y+4	; 0x04
    16c2:	0e 94 5a 1f 	call	0x3eb4	; 0x3eb4 <__fixunssfsi>
    16c6:	dc 01       	movw	r26, r24
    16c8:	cb 01       	movw	r24, r22
    16ca:	f8 01       	movw	r30, r16
    16cc:	80 83       	st	Z, r24
}
    16ce:	0f 90       	pop	r0
    16d0:	0f 90       	pop	r0
    16d2:	0f 90       	pop	r0
    16d4:	0f 90       	pop	r0
    16d6:	0f 90       	pop	r0
    16d8:	cf 91       	pop	r28
    16da:	df 91       	pop	r29
    16dc:	1f 91       	pop	r17
    16de:	0f 91       	pop	r16
    16e0:	08 95       	ret

000016e2 <servo_2>:


void servo_2(unsigned char degrees)
{
    16e2:	0f 93       	push	r16
    16e4:	1f 93       	push	r17
    16e6:	df 93       	push	r29
    16e8:	cf 93       	push	r28
    16ea:	00 d0       	rcall	.+0      	; 0x16ec <servo_2+0xa>
    16ec:	0f 92       	push	r0
    16ee:	0f 92       	push	r0
    16f0:	cd b7       	in	r28, 0x3d	; 61
    16f2:	de b7       	in	r29, 0x3e	; 62
    16f4:	8d 83       	std	Y+5, r24	; 0x05
	float PositionTiltServo = 0;
    16f6:	80 e0       	ldi	r24, 0x00	; 0
    16f8:	90 e0       	ldi	r25, 0x00	; 0
    16fa:	a0 e0       	ldi	r26, 0x00	; 0
    16fc:	b0 e0       	ldi	r27, 0x00	; 0
    16fe:	89 83       	std	Y+1, r24	; 0x01
    1700:	9a 83       	std	Y+2, r25	; 0x02
    1702:	ab 83       	std	Y+3, r26	; 0x03
    1704:	bc 83       	std	Y+4, r27	; 0x04
	PositionTiltServo = ((float)degrees / 1.86) + 35.0;
    1706:	8d 81       	ldd	r24, Y+5	; 0x05
    1708:	88 2f       	mov	r24, r24
    170a:	90 e0       	ldi	r25, 0x00	; 0
    170c:	a0 e0       	ldi	r26, 0x00	; 0
    170e:	b0 e0       	ldi	r27, 0x00	; 0
    1710:	bc 01       	movw	r22, r24
    1712:	cd 01       	movw	r24, r26
    1714:	0e 94 ba 23 	call	0x4774	; 0x4774 <__floatunsisf>
    1718:	dc 01       	movw	r26, r24
    171a:	cb 01       	movw	r24, r22
    171c:	bc 01       	movw	r22, r24
    171e:	cd 01       	movw	r24, r26
    1720:	2b e7       	ldi	r18, 0x7B	; 123
    1722:	34 e1       	ldi	r19, 0x14	; 20
    1724:	4e ee       	ldi	r20, 0xEE	; 238
    1726:	5f e3       	ldi	r21, 0x3F	; 63
    1728:	0e 94 2a 22 	call	0x4454	; 0x4454 <__divsf3>
    172c:	dc 01       	movw	r26, r24
    172e:	cb 01       	movw	r24, r22
    1730:	bc 01       	movw	r22, r24
    1732:	cd 01       	movw	r24, r26
    1734:	20 e0       	ldi	r18, 0x00	; 0
    1736:	30 e0       	ldi	r19, 0x00	; 0
    1738:	4c e0       	ldi	r20, 0x0C	; 12
    173a:	52 e4       	ldi	r21, 0x42	; 66
    173c:	0e 94 03 21 	call	0x4206	; 0x4206 <__addsf3>
    1740:	dc 01       	movw	r26, r24
    1742:	cb 01       	movw	r24, r22
    1744:	89 83       	std	Y+1, r24	; 0x01
    1746:	9a 83       	std	Y+2, r25	; 0x02
    1748:	ab 83       	std	Y+3, r26	; 0x03
    174a:	bc 83       	std	Y+4, r27	; 0x04
	OCR1BH = 0x00;
    174c:	eb e8       	ldi	r30, 0x8B	; 139
    174e:	f0 e0       	ldi	r31, 0x00	; 0
    1750:	10 82       	st	Z, r1
	OCR1BL = (unsigned char) PositionTiltServo;
    1752:	0a e8       	ldi	r16, 0x8A	; 138
    1754:	10 e0       	ldi	r17, 0x00	; 0
    1756:	69 81       	ldd	r22, Y+1	; 0x01
    1758:	7a 81       	ldd	r23, Y+2	; 0x02
    175a:	8b 81       	ldd	r24, Y+3	; 0x03
    175c:	9c 81       	ldd	r25, Y+4	; 0x04
    175e:	0e 94 5a 1f 	call	0x3eb4	; 0x3eb4 <__fixunssfsi>
    1762:	dc 01       	movw	r26, r24
    1764:	cb 01       	movw	r24, r22
    1766:	f8 01       	movw	r30, r16
    1768:	80 83       	st	Z, r24
}
    176a:	0f 90       	pop	r0
    176c:	0f 90       	pop	r0
    176e:	0f 90       	pop	r0
    1770:	0f 90       	pop	r0
    1772:	0f 90       	pop	r0
    1774:	cf 91       	pop	r28
    1776:	df 91       	pop	r29
    1778:	1f 91       	pop	r17
    177a:	0f 91       	pop	r16
    177c:	08 95       	ret

0000177e <pick_up_cone>:

void pick_up_cone()
{
    177e:	df 93       	push	r29
    1780:	cf 93       	push	r28
    1782:	cd b7       	in	r28, 0x3d	; 61
    1784:	de b7       	in	r29, 0x3e	; 62
    1786:	e8 97       	sbiw	r28, 0x38	; 56
    1788:	0f b6       	in	r0, 0x3f	; 63
    178a:	f8 94       	cli
    178c:	de bf       	out	0x3e, r29	; 62
    178e:	0f be       	out	0x3f, r0	; 63
    1790:	cd bf       	out	0x3d, r28	; 61
	
	servo_2(220);
    1792:	8c ed       	ldi	r24, 0xDC	; 220
    1794:	0e 94 71 0b 	call	0x16e2	; 0x16e2 <servo_2>
    1798:	80 e0       	ldi	r24, 0x00	; 0
    179a:	90 e0       	ldi	r25, 0x00	; 0
    179c:	a6 e1       	ldi	r26, 0x16	; 22
    179e:	b4 e4       	ldi	r27, 0x44	; 68
    17a0:	8d ab       	std	Y+53, r24	; 0x35
    17a2:	9e ab       	std	Y+54, r25	; 0x36
    17a4:	af ab       	std	Y+55, r26	; 0x37
    17a6:	b8 af       	std	Y+56, r27	; 0x38
 */
void
_delay_ms(double __ms)
{
	uint16_t __ticks;
	double __tmp = ((F_CPU) / 4e3) * __ms;
    17a8:	6d a9       	ldd	r22, Y+53	; 0x35
    17aa:	7e a9       	ldd	r23, Y+54	; 0x36
    17ac:	8f a9       	ldd	r24, Y+55	; 0x37
    17ae:	98 ad       	ldd	r25, Y+56	; 0x38
    17b0:	26 e6       	ldi	r18, 0x66	; 102
    17b2:	36 e6       	ldi	r19, 0x66	; 102
    17b4:	46 e6       	ldi	r20, 0x66	; 102
    17b6:	55 e4       	ldi	r21, 0x45	; 69
    17b8:	0e 94 30 21 	call	0x4260	; 0x4260 <__mulsf3>
    17bc:	dc 01       	movw	r26, r24
    17be:	cb 01       	movw	r24, r22
    17c0:	89 ab       	std	Y+49, r24	; 0x31
    17c2:	9a ab       	std	Y+50, r25	; 0x32
    17c4:	ab ab       	std	Y+51, r26	; 0x33
    17c6:	bc ab       	std	Y+52, r27	; 0x34
	if (__tmp < 1.0)
    17c8:	69 a9       	ldd	r22, Y+49	; 0x31
    17ca:	7a a9       	ldd	r23, Y+50	; 0x32
    17cc:	8b a9       	ldd	r24, Y+51	; 0x33
    17ce:	9c a9       	ldd	r25, Y+52	; 0x34
    17d0:	20 e0       	ldi	r18, 0x00	; 0
    17d2:	30 e0       	ldi	r19, 0x00	; 0
    17d4:	40 e8       	ldi	r20, 0x80	; 128
    17d6:	5f e3       	ldi	r21, 0x3F	; 63
    17d8:	0e 94 36 23 	call	0x466c	; 0x466c <__ltsf2>
    17dc:	88 23       	and	r24, r24
    17de:	2c f4       	brge	.+10     	; 0x17ea <pick_up_cone+0x6c>
		__ticks = 1;
    17e0:	81 e0       	ldi	r24, 0x01	; 1
    17e2:	90 e0       	ldi	r25, 0x00	; 0
    17e4:	98 ab       	std	Y+48, r25	; 0x30
    17e6:	8f a7       	std	Y+47, r24	; 0x2f
    17e8:	3f c0       	rjmp	.+126    	; 0x1868 <pick_up_cone+0xea>
	else if (__tmp > 65535)
    17ea:	69 a9       	ldd	r22, Y+49	; 0x31
    17ec:	7a a9       	ldd	r23, Y+50	; 0x32
    17ee:	8b a9       	ldd	r24, Y+51	; 0x33
    17f0:	9c a9       	ldd	r25, Y+52	; 0x34
    17f2:	20 e0       	ldi	r18, 0x00	; 0
    17f4:	3f ef       	ldi	r19, 0xFF	; 255
    17f6:	4f e7       	ldi	r20, 0x7F	; 127
    17f8:	57 e4       	ldi	r21, 0x47	; 71
    17fa:	0e 94 d6 22 	call	0x45ac	; 0x45ac <__gtsf2>
    17fe:	18 16       	cp	r1, r24
    1800:	4c f5       	brge	.+82     	; 0x1854 <pick_up_cone+0xd6>
	{
		//	__ticks = requested delay in 1/10 ms
		__ticks = (uint16_t) (__ms * 10.0);
    1802:	6d a9       	ldd	r22, Y+53	; 0x35
    1804:	7e a9       	ldd	r23, Y+54	; 0x36
    1806:	8f a9       	ldd	r24, Y+55	; 0x37
    1808:	98 ad       	ldd	r25, Y+56	; 0x38
    180a:	20 e0       	ldi	r18, 0x00	; 0
    180c:	30 e0       	ldi	r19, 0x00	; 0
    180e:	40 e2       	ldi	r20, 0x20	; 32
    1810:	51 e4       	ldi	r21, 0x41	; 65
    1812:	0e 94 30 21 	call	0x4260	; 0x4260 <__mulsf3>
    1816:	dc 01       	movw	r26, r24
    1818:	cb 01       	movw	r24, r22
    181a:	bc 01       	movw	r22, r24
    181c:	cd 01       	movw	r24, r26
    181e:	0e 94 5a 1f 	call	0x3eb4	; 0x3eb4 <__fixunssfsi>
    1822:	dc 01       	movw	r26, r24
    1824:	cb 01       	movw	r24, r22
    1826:	98 ab       	std	Y+48, r25	; 0x30
    1828:	8f a7       	std	Y+47, r24	; 0x2f
    182a:	0f c0       	rjmp	.+30     	; 0x184a <pick_up_cone+0xcc>
    182c:	80 e7       	ldi	r24, 0x70	; 112
    182e:	91 e0       	ldi	r25, 0x01	; 1
    1830:	9e a7       	std	Y+46, r25	; 0x2e
    1832:	8d a7       	std	Y+45, r24	; 0x2d
    1834:	8d a5       	ldd	r24, Y+45	; 0x2d
    1836:	9e a5       	ldd	r25, Y+46	; 0x2e
    1838:	01 97       	sbiw	r24, 0x01	; 1
    183a:	f1 f7       	brne	.-4      	; 0x1838 <pick_up_cone+0xba>
    183c:	9e a7       	std	Y+46, r25	; 0x2e
    183e:	8d a7       	std	Y+45, r24	; 0x2d
		while(__ticks)
		{
			// wait 1/10 ms
			_delay_loop_2(((F_CPU) / 4e3) / 10);
			__ticks --;
    1840:	8f a5       	ldd	r24, Y+47	; 0x2f
    1842:	98 a9       	ldd	r25, Y+48	; 0x30
    1844:	01 97       	sbiw	r24, 0x01	; 1
    1846:	98 ab       	std	Y+48, r25	; 0x30
    1848:	8f a7       	std	Y+47, r24	; 0x2f
		__ticks = 1;
	else if (__tmp > 65535)
	{
		//	__ticks = requested delay in 1/10 ms
		__ticks = (uint16_t) (__ms * 10.0);
		while(__ticks)
    184a:	8f a5       	ldd	r24, Y+47	; 0x2f
    184c:	98 a9       	ldd	r25, Y+48	; 0x30
    184e:	00 97       	sbiw	r24, 0x00	; 0
    1850:	69 f7       	brne	.-38     	; 0x182c <pick_up_cone+0xae>
    1852:	14 c0       	rjmp	.+40     	; 0x187c <pick_up_cone+0xfe>
			__ticks --;
		}
		return;
	}
	else
		__ticks = (uint16_t)__tmp;
    1854:	69 a9       	ldd	r22, Y+49	; 0x31
    1856:	7a a9       	ldd	r23, Y+50	; 0x32
    1858:	8b a9       	ldd	r24, Y+51	; 0x33
    185a:	9c a9       	ldd	r25, Y+52	; 0x34
    185c:	0e 94 5a 1f 	call	0x3eb4	; 0x3eb4 <__fixunssfsi>
    1860:	dc 01       	movw	r26, r24
    1862:	cb 01       	movw	r24, r22
    1864:	98 ab       	std	Y+48, r25	; 0x30
    1866:	8f a7       	std	Y+47, r24	; 0x2f
    1868:	8f a5       	ldd	r24, Y+47	; 0x2f
    186a:	98 a9       	ldd	r25, Y+48	; 0x30
    186c:	9c a7       	std	Y+44, r25	; 0x2c
    186e:	8b a7       	std	Y+43, r24	; 0x2b
    1870:	8b a5       	ldd	r24, Y+43	; 0x2b
    1872:	9c a5       	ldd	r25, Y+44	; 0x2c
    1874:	01 97       	sbiw	r24, 0x01	; 1
    1876:	f1 f7       	brne	.-4      	; 0x1874 <pick_up_cone+0xf6>
    1878:	9c a7       	std	Y+44, r25	; 0x2c
    187a:	8b a7       	std	Y+43, r24	; 0x2b
	_delay_ms(600);
	
	servo_1(130);
    187c:	82 e8       	ldi	r24, 0x82	; 130
    187e:	0e 94 23 0b 	call	0x1646	; 0x1646 <servo_1>
    1882:	80 e0       	ldi	r24, 0x00	; 0
    1884:	90 e0       	ldi	r25, 0x00	; 0
    1886:	a6 e1       	ldi	r26, 0x16	; 22
    1888:	b4 e4       	ldi	r27, 0x44	; 68
    188a:	8f a3       	std	Y+39, r24	; 0x27
    188c:	98 a7       	std	Y+40, r25	; 0x28
    188e:	a9 a7       	std	Y+41, r26	; 0x29
    1890:	ba a7       	std	Y+42, r27	; 0x2a
 */
void
_delay_ms(double __ms)
{
	uint16_t __ticks;
	double __tmp = ((F_CPU) / 4e3) * __ms;
    1892:	6f a1       	ldd	r22, Y+39	; 0x27
    1894:	78 a5       	ldd	r23, Y+40	; 0x28
    1896:	89 a5       	ldd	r24, Y+41	; 0x29
    1898:	9a a5       	ldd	r25, Y+42	; 0x2a
    189a:	26 e6       	ldi	r18, 0x66	; 102
    189c:	36 e6       	ldi	r19, 0x66	; 102
    189e:	46 e6       	ldi	r20, 0x66	; 102
    18a0:	55 e4       	ldi	r21, 0x45	; 69
    18a2:	0e 94 30 21 	call	0x4260	; 0x4260 <__mulsf3>
    18a6:	dc 01       	movw	r26, r24
    18a8:	cb 01       	movw	r24, r22
    18aa:	8b a3       	std	Y+35, r24	; 0x23
    18ac:	9c a3       	std	Y+36, r25	; 0x24
    18ae:	ad a3       	std	Y+37, r26	; 0x25
    18b0:	be a3       	std	Y+38, r27	; 0x26
	if (__tmp < 1.0)
    18b2:	6b a1       	ldd	r22, Y+35	; 0x23
    18b4:	7c a1       	ldd	r23, Y+36	; 0x24
    18b6:	8d a1       	ldd	r24, Y+37	; 0x25
    18b8:	9e a1       	ldd	r25, Y+38	; 0x26
    18ba:	20 e0       	ldi	r18, 0x00	; 0
    18bc:	30 e0       	ldi	r19, 0x00	; 0
    18be:	40 e8       	ldi	r20, 0x80	; 128
    18c0:	5f e3       	ldi	r21, 0x3F	; 63
    18c2:	0e 94 36 23 	call	0x466c	; 0x466c <__ltsf2>
    18c6:	88 23       	and	r24, r24
    18c8:	2c f4       	brge	.+10     	; 0x18d4 <pick_up_cone+0x156>
		__ticks = 1;
    18ca:	81 e0       	ldi	r24, 0x01	; 1
    18cc:	90 e0       	ldi	r25, 0x00	; 0
    18ce:	9a a3       	std	Y+34, r25	; 0x22
    18d0:	89 a3       	std	Y+33, r24	; 0x21
    18d2:	3f c0       	rjmp	.+126    	; 0x1952 <pick_up_cone+0x1d4>
	else if (__tmp > 65535)
    18d4:	6b a1       	ldd	r22, Y+35	; 0x23
    18d6:	7c a1       	ldd	r23, Y+36	; 0x24
    18d8:	8d a1       	ldd	r24, Y+37	; 0x25
    18da:	9e a1       	ldd	r25, Y+38	; 0x26
    18dc:	20 e0       	ldi	r18, 0x00	; 0
    18de:	3f ef       	ldi	r19, 0xFF	; 255
    18e0:	4f e7       	ldi	r20, 0x7F	; 127
    18e2:	57 e4       	ldi	r21, 0x47	; 71
    18e4:	0e 94 d6 22 	call	0x45ac	; 0x45ac <__gtsf2>
    18e8:	18 16       	cp	r1, r24
    18ea:	4c f5       	brge	.+82     	; 0x193e <pick_up_cone+0x1c0>
	{
		//	__ticks = requested delay in 1/10 ms
		__ticks = (uint16_t) (__ms * 10.0);
    18ec:	6f a1       	ldd	r22, Y+39	; 0x27
    18ee:	78 a5       	ldd	r23, Y+40	; 0x28
    18f0:	89 a5       	ldd	r24, Y+41	; 0x29
    18f2:	9a a5       	ldd	r25, Y+42	; 0x2a
    18f4:	20 e0       	ldi	r18, 0x00	; 0
    18f6:	30 e0       	ldi	r19, 0x00	; 0
    18f8:	40 e2       	ldi	r20, 0x20	; 32
    18fa:	51 e4       	ldi	r21, 0x41	; 65
    18fc:	0e 94 30 21 	call	0x4260	; 0x4260 <__mulsf3>
    1900:	dc 01       	movw	r26, r24
    1902:	cb 01       	movw	r24, r22
    1904:	bc 01       	movw	r22, r24
    1906:	cd 01       	movw	r24, r26
    1908:	0e 94 5a 1f 	call	0x3eb4	; 0x3eb4 <__fixunssfsi>
    190c:	dc 01       	movw	r26, r24
    190e:	cb 01       	movw	r24, r22
    1910:	9a a3       	std	Y+34, r25	; 0x22
    1912:	89 a3       	std	Y+33, r24	; 0x21
    1914:	0f c0       	rjmp	.+30     	; 0x1934 <pick_up_cone+0x1b6>
    1916:	80 e7       	ldi	r24, 0x70	; 112
    1918:	91 e0       	ldi	r25, 0x01	; 1
    191a:	98 a3       	std	Y+32, r25	; 0x20
    191c:	8f 8f       	std	Y+31, r24	; 0x1f
    191e:	8f 8d       	ldd	r24, Y+31	; 0x1f
    1920:	98 a1       	ldd	r25, Y+32	; 0x20
    1922:	01 97       	sbiw	r24, 0x01	; 1
    1924:	f1 f7       	brne	.-4      	; 0x1922 <pick_up_cone+0x1a4>
    1926:	98 a3       	std	Y+32, r25	; 0x20
    1928:	8f 8f       	std	Y+31, r24	; 0x1f
		while(__ticks)
		{
			// wait 1/10 ms
			_delay_loop_2(((F_CPU) / 4e3) / 10);
			__ticks --;
    192a:	89 a1       	ldd	r24, Y+33	; 0x21
    192c:	9a a1       	ldd	r25, Y+34	; 0x22
    192e:	01 97       	sbiw	r24, 0x01	; 1
    1930:	9a a3       	std	Y+34, r25	; 0x22
    1932:	89 a3       	std	Y+33, r24	; 0x21
		__ticks = 1;
	else if (__tmp > 65535)
	{
		//	__ticks = requested delay in 1/10 ms
		__ticks = (uint16_t) (__ms * 10.0);
		while(__ticks)
    1934:	89 a1       	ldd	r24, Y+33	; 0x21
    1936:	9a a1       	ldd	r25, Y+34	; 0x22
    1938:	00 97       	sbiw	r24, 0x00	; 0
    193a:	69 f7       	brne	.-38     	; 0x1916 <pick_up_cone+0x198>
    193c:	14 c0       	rjmp	.+40     	; 0x1966 <pick_up_cone+0x1e8>
			__ticks --;
		}
		return;
	}
	else
		__ticks = (uint16_t)__tmp;
    193e:	6b a1       	ldd	r22, Y+35	; 0x23
    1940:	7c a1       	ldd	r23, Y+36	; 0x24
    1942:	8d a1       	ldd	r24, Y+37	; 0x25
    1944:	9e a1       	ldd	r25, Y+38	; 0x26
    1946:	0e 94 5a 1f 	call	0x3eb4	; 0x3eb4 <__fixunssfsi>
    194a:	dc 01       	movw	r26, r24
    194c:	cb 01       	movw	r24, r22
    194e:	9a a3       	std	Y+34, r25	; 0x22
    1950:	89 a3       	std	Y+33, r24	; 0x21
    1952:	89 a1       	ldd	r24, Y+33	; 0x21
    1954:	9a a1       	ldd	r25, Y+34	; 0x22
    1956:	9e 8f       	std	Y+30, r25	; 0x1e
    1958:	8d 8f       	std	Y+29, r24	; 0x1d
    195a:	8d 8d       	ldd	r24, Y+29	; 0x1d
    195c:	9e 8d       	ldd	r25, Y+30	; 0x1e
    195e:	01 97       	sbiw	r24, 0x01	; 1
    1960:	f1 f7       	brne	.-4      	; 0x195e <pick_up_cone+0x1e0>
    1962:	9e 8f       	std	Y+30, r25	; 0x1e
    1964:	8d 8f       	std	Y+29, r24	; 0x1d
	_delay_ms(600);
	
	servo_2(140);
    1966:	8c e8       	ldi	r24, 0x8C	; 140
    1968:	0e 94 71 0b 	call	0x16e2	; 0x16e2 <servo_2>
    196c:	80 e0       	ldi	r24, 0x00	; 0
    196e:	90 e0       	ldi	r25, 0x00	; 0
    1970:	a6 e1       	ldi	r26, 0x16	; 22
    1972:	b4 e4       	ldi	r27, 0x44	; 68
    1974:	89 8f       	std	Y+25, r24	; 0x19
    1976:	9a 8f       	std	Y+26, r25	; 0x1a
    1978:	ab 8f       	std	Y+27, r26	; 0x1b
    197a:	bc 8f       	std	Y+28, r27	; 0x1c
 */
void
_delay_ms(double __ms)
{
	uint16_t __ticks;
	double __tmp = ((F_CPU) / 4e3) * __ms;
    197c:	69 8d       	ldd	r22, Y+25	; 0x19
    197e:	7a 8d       	ldd	r23, Y+26	; 0x1a
    1980:	8b 8d       	ldd	r24, Y+27	; 0x1b
    1982:	9c 8d       	ldd	r25, Y+28	; 0x1c
    1984:	26 e6       	ldi	r18, 0x66	; 102
    1986:	36 e6       	ldi	r19, 0x66	; 102
    1988:	46 e6       	ldi	r20, 0x66	; 102
    198a:	55 e4       	ldi	r21, 0x45	; 69
    198c:	0e 94 30 21 	call	0x4260	; 0x4260 <__mulsf3>
    1990:	dc 01       	movw	r26, r24
    1992:	cb 01       	movw	r24, r22
    1994:	8d 8b       	std	Y+21, r24	; 0x15
    1996:	9e 8b       	std	Y+22, r25	; 0x16
    1998:	af 8b       	std	Y+23, r26	; 0x17
    199a:	b8 8f       	std	Y+24, r27	; 0x18
	if (__tmp < 1.0)
    199c:	6d 89       	ldd	r22, Y+21	; 0x15
    199e:	7e 89       	ldd	r23, Y+22	; 0x16
    19a0:	8f 89       	ldd	r24, Y+23	; 0x17
    19a2:	98 8d       	ldd	r25, Y+24	; 0x18
    19a4:	20 e0       	ldi	r18, 0x00	; 0
    19a6:	30 e0       	ldi	r19, 0x00	; 0
    19a8:	40 e8       	ldi	r20, 0x80	; 128
    19aa:	5f e3       	ldi	r21, 0x3F	; 63
    19ac:	0e 94 36 23 	call	0x466c	; 0x466c <__ltsf2>
    19b0:	88 23       	and	r24, r24
    19b2:	2c f4       	brge	.+10     	; 0x19be <pick_up_cone+0x240>
		__ticks = 1;
    19b4:	81 e0       	ldi	r24, 0x01	; 1
    19b6:	90 e0       	ldi	r25, 0x00	; 0
    19b8:	9c 8b       	std	Y+20, r25	; 0x14
    19ba:	8b 8b       	std	Y+19, r24	; 0x13
    19bc:	3f c0       	rjmp	.+126    	; 0x1a3c <pick_up_cone+0x2be>
	else if (__tmp > 65535)
    19be:	6d 89       	ldd	r22, Y+21	; 0x15
    19c0:	7e 89       	ldd	r23, Y+22	; 0x16
    19c2:	8f 89       	ldd	r24, Y+23	; 0x17
    19c4:	98 8d       	ldd	r25, Y+24	; 0x18
    19c6:	20 e0       	ldi	r18, 0x00	; 0
    19c8:	3f ef       	ldi	r19, 0xFF	; 255
    19ca:	4f e7       	ldi	r20, 0x7F	; 127
    19cc:	57 e4       	ldi	r21, 0x47	; 71
    19ce:	0e 94 d6 22 	call	0x45ac	; 0x45ac <__gtsf2>
    19d2:	18 16       	cp	r1, r24
    19d4:	4c f5       	brge	.+82     	; 0x1a28 <pick_up_cone+0x2aa>
	{
		//	__ticks = requested delay in 1/10 ms
		__ticks = (uint16_t) (__ms * 10.0);
    19d6:	69 8d       	ldd	r22, Y+25	; 0x19
    19d8:	7a 8d       	ldd	r23, Y+26	; 0x1a
    19da:	8b 8d       	ldd	r24, Y+27	; 0x1b
    19dc:	9c 8d       	ldd	r25, Y+28	; 0x1c
    19de:	20 e0       	ldi	r18, 0x00	; 0
    19e0:	30 e0       	ldi	r19, 0x00	; 0
    19e2:	40 e2       	ldi	r20, 0x20	; 32
    19e4:	51 e4       	ldi	r21, 0x41	; 65
    19e6:	0e 94 30 21 	call	0x4260	; 0x4260 <__mulsf3>
    19ea:	dc 01       	movw	r26, r24
    19ec:	cb 01       	movw	r24, r22
    19ee:	bc 01       	movw	r22, r24
    19f0:	cd 01       	movw	r24, r26
    19f2:	0e 94 5a 1f 	call	0x3eb4	; 0x3eb4 <__fixunssfsi>
    19f6:	dc 01       	movw	r26, r24
    19f8:	cb 01       	movw	r24, r22
    19fa:	9c 8b       	std	Y+20, r25	; 0x14
    19fc:	8b 8b       	std	Y+19, r24	; 0x13
    19fe:	0f c0       	rjmp	.+30     	; 0x1a1e <pick_up_cone+0x2a0>
    1a00:	80 e7       	ldi	r24, 0x70	; 112
    1a02:	91 e0       	ldi	r25, 0x01	; 1
    1a04:	9a 8b       	std	Y+18, r25	; 0x12
    1a06:	89 8b       	std	Y+17, r24	; 0x11
    1a08:	89 89       	ldd	r24, Y+17	; 0x11
    1a0a:	9a 89       	ldd	r25, Y+18	; 0x12
    1a0c:	01 97       	sbiw	r24, 0x01	; 1
    1a0e:	f1 f7       	brne	.-4      	; 0x1a0c <pick_up_cone+0x28e>
    1a10:	9a 8b       	std	Y+18, r25	; 0x12
    1a12:	89 8b       	std	Y+17, r24	; 0x11
		while(__ticks)
		{
			// wait 1/10 ms
			_delay_loop_2(((F_CPU) / 4e3) / 10);
			__ticks --;
    1a14:	8b 89       	ldd	r24, Y+19	; 0x13
    1a16:	9c 89       	ldd	r25, Y+20	; 0x14
    1a18:	01 97       	sbiw	r24, 0x01	; 1
    1a1a:	9c 8b       	std	Y+20, r25	; 0x14
    1a1c:	8b 8b       	std	Y+19, r24	; 0x13
		__ticks = 1;
	else if (__tmp > 65535)
	{
		//	__ticks = requested delay in 1/10 ms
		__ticks = (uint16_t) (__ms * 10.0);
		while(__ticks)
    1a1e:	8b 89       	ldd	r24, Y+19	; 0x13
    1a20:	9c 89       	ldd	r25, Y+20	; 0x14
    1a22:	00 97       	sbiw	r24, 0x00	; 0
    1a24:	69 f7       	brne	.-38     	; 0x1a00 <pick_up_cone+0x282>
    1a26:	14 c0       	rjmp	.+40     	; 0x1a50 <pick_up_cone+0x2d2>
			__ticks --;
		}
		return;
	}
	else
		__ticks = (uint16_t)__tmp;
    1a28:	6d 89       	ldd	r22, Y+21	; 0x15
    1a2a:	7e 89       	ldd	r23, Y+22	; 0x16
    1a2c:	8f 89       	ldd	r24, Y+23	; 0x17
    1a2e:	98 8d       	ldd	r25, Y+24	; 0x18
    1a30:	0e 94 5a 1f 	call	0x3eb4	; 0x3eb4 <__fixunssfsi>
    1a34:	dc 01       	movw	r26, r24
    1a36:	cb 01       	movw	r24, r22
    1a38:	9c 8b       	std	Y+20, r25	; 0x14
    1a3a:	8b 8b       	std	Y+19, r24	; 0x13
    1a3c:	8b 89       	ldd	r24, Y+19	; 0x13
    1a3e:	9c 89       	ldd	r25, Y+20	; 0x14
    1a40:	98 8b       	std	Y+16, r25	; 0x10
    1a42:	8f 87       	std	Y+15, r24	; 0x0f
    1a44:	8f 85       	ldd	r24, Y+15	; 0x0f
    1a46:	98 89       	ldd	r25, Y+16	; 0x10
    1a48:	01 97       	sbiw	r24, 0x01	; 1
    1a4a:	f1 f7       	brne	.-4      	; 0x1a48 <pick_up_cone+0x2ca>
    1a4c:	98 8b       	std	Y+16, r25	; 0x10
    1a4e:	8f 87       	std	Y+15, r24	; 0x0f
	_delay_ms(600);
	servo_1(90);
    1a50:	8a e5       	ldi	r24, 0x5A	; 90
    1a52:	0e 94 23 0b 	call	0x1646	; 0x1646 <servo_1>
    1a56:	80 e0       	ldi	r24, 0x00	; 0
    1a58:	90 e0       	ldi	r25, 0x00	; 0
    1a5a:	a6 e9       	ldi	r26, 0x96	; 150
    1a5c:	b3 e4       	ldi	r27, 0x43	; 67
    1a5e:	8b 87       	std	Y+11, r24	; 0x0b
    1a60:	9c 87       	std	Y+12, r25	; 0x0c
    1a62:	ad 87       	std	Y+13, r26	; 0x0d
    1a64:	be 87       	std	Y+14, r27	; 0x0e
 */
void
_delay_ms(double __ms)
{
	uint16_t __ticks;
	double __tmp = ((F_CPU) / 4e3) * __ms;
    1a66:	6b 85       	ldd	r22, Y+11	; 0x0b
    1a68:	7c 85       	ldd	r23, Y+12	; 0x0c
    1a6a:	8d 85       	ldd	r24, Y+13	; 0x0d
    1a6c:	9e 85       	ldd	r25, Y+14	; 0x0e
    1a6e:	26 e6       	ldi	r18, 0x66	; 102
    1a70:	36 e6       	ldi	r19, 0x66	; 102
    1a72:	46 e6       	ldi	r20, 0x66	; 102
    1a74:	55 e4       	ldi	r21, 0x45	; 69
    1a76:	0e 94 30 21 	call	0x4260	; 0x4260 <__mulsf3>
    1a7a:	dc 01       	movw	r26, r24
    1a7c:	cb 01       	movw	r24, r22
    1a7e:	8f 83       	std	Y+7, r24	; 0x07
    1a80:	98 87       	std	Y+8, r25	; 0x08
    1a82:	a9 87       	std	Y+9, r26	; 0x09
    1a84:	ba 87       	std	Y+10, r27	; 0x0a
	if (__tmp < 1.0)
    1a86:	6f 81       	ldd	r22, Y+7	; 0x07
    1a88:	78 85       	ldd	r23, Y+8	; 0x08
    1a8a:	89 85       	ldd	r24, Y+9	; 0x09
    1a8c:	9a 85       	ldd	r25, Y+10	; 0x0a
    1a8e:	20 e0       	ldi	r18, 0x00	; 0
    1a90:	30 e0       	ldi	r19, 0x00	; 0
    1a92:	40 e8       	ldi	r20, 0x80	; 128
    1a94:	5f e3       	ldi	r21, 0x3F	; 63
    1a96:	0e 94 36 23 	call	0x466c	; 0x466c <__ltsf2>
    1a9a:	88 23       	and	r24, r24
    1a9c:	2c f4       	brge	.+10     	; 0x1aa8 <pick_up_cone+0x32a>
		__ticks = 1;
    1a9e:	81 e0       	ldi	r24, 0x01	; 1
    1aa0:	90 e0       	ldi	r25, 0x00	; 0
    1aa2:	9e 83       	std	Y+6, r25	; 0x06
    1aa4:	8d 83       	std	Y+5, r24	; 0x05
    1aa6:	3f c0       	rjmp	.+126    	; 0x1b26 <pick_up_cone+0x3a8>
	else if (__tmp > 65535)
    1aa8:	6f 81       	ldd	r22, Y+7	; 0x07
    1aaa:	78 85       	ldd	r23, Y+8	; 0x08
    1aac:	89 85       	ldd	r24, Y+9	; 0x09
    1aae:	9a 85       	ldd	r25, Y+10	; 0x0a
    1ab0:	20 e0       	ldi	r18, 0x00	; 0
    1ab2:	3f ef       	ldi	r19, 0xFF	; 255
    1ab4:	4f e7       	ldi	r20, 0x7F	; 127
    1ab6:	57 e4       	ldi	r21, 0x47	; 71
    1ab8:	0e 94 d6 22 	call	0x45ac	; 0x45ac <__gtsf2>
    1abc:	18 16       	cp	r1, r24
    1abe:	4c f5       	brge	.+82     	; 0x1b12 <pick_up_cone+0x394>
	{
		//	__ticks = requested delay in 1/10 ms
		__ticks = (uint16_t) (__ms * 10.0);
    1ac0:	6b 85       	ldd	r22, Y+11	; 0x0b
    1ac2:	7c 85       	ldd	r23, Y+12	; 0x0c
    1ac4:	8d 85       	ldd	r24, Y+13	; 0x0d
    1ac6:	9e 85       	ldd	r25, Y+14	; 0x0e
    1ac8:	20 e0       	ldi	r18, 0x00	; 0
    1aca:	30 e0       	ldi	r19, 0x00	; 0
    1acc:	40 e2       	ldi	r20, 0x20	; 32
    1ace:	51 e4       	ldi	r21, 0x41	; 65
    1ad0:	0e 94 30 21 	call	0x4260	; 0x4260 <__mulsf3>
    1ad4:	dc 01       	movw	r26, r24
    1ad6:	cb 01       	movw	r24, r22
    1ad8:	bc 01       	movw	r22, r24
    1ada:	cd 01       	movw	r24, r26
    1adc:	0e 94 5a 1f 	call	0x3eb4	; 0x3eb4 <__fixunssfsi>
    1ae0:	dc 01       	movw	r26, r24
    1ae2:	cb 01       	movw	r24, r22
    1ae4:	9e 83       	std	Y+6, r25	; 0x06
    1ae6:	8d 83       	std	Y+5, r24	; 0x05
    1ae8:	0f c0       	rjmp	.+30     	; 0x1b08 <pick_up_cone+0x38a>
    1aea:	80 e7       	ldi	r24, 0x70	; 112
    1aec:	91 e0       	ldi	r25, 0x01	; 1
    1aee:	9c 83       	std	Y+4, r25	; 0x04
    1af0:	8b 83       	std	Y+3, r24	; 0x03
    1af2:	8b 81       	ldd	r24, Y+3	; 0x03
    1af4:	9c 81       	ldd	r25, Y+4	; 0x04
    1af6:	01 97       	sbiw	r24, 0x01	; 1
    1af8:	f1 f7       	brne	.-4      	; 0x1af6 <pick_up_cone+0x378>
    1afa:	9c 83       	std	Y+4, r25	; 0x04
    1afc:	8b 83       	std	Y+3, r24	; 0x03
		while(__ticks)
		{
			// wait 1/10 ms
			_delay_loop_2(((F_CPU) / 4e3) / 10);
			__ticks --;
    1afe:	8d 81       	ldd	r24, Y+5	; 0x05
    1b00:	9e 81       	ldd	r25, Y+6	; 0x06
    1b02:	01 97       	sbiw	r24, 0x01	; 1
    1b04:	9e 83       	std	Y+6, r25	; 0x06
    1b06:	8d 83       	std	Y+5, r24	; 0x05
		__ticks = 1;
	else if (__tmp > 65535)
	{
		//	__ticks = requested delay in 1/10 ms
		__ticks = (uint16_t) (__ms * 10.0);
		while(__ticks)
    1b08:	8d 81       	ldd	r24, Y+5	; 0x05
    1b0a:	9e 81       	ldd	r25, Y+6	; 0x06
    1b0c:	00 97       	sbiw	r24, 0x00	; 0
    1b0e:	69 f7       	brne	.-38     	; 0x1aea <pick_up_cone+0x36c>
    1b10:	14 c0       	rjmp	.+40     	; 0x1b3a <pick_up_cone+0x3bc>
			__ticks --;
		}
		return;
	}
	else
		__ticks = (uint16_t)__tmp;
    1b12:	6f 81       	ldd	r22, Y+7	; 0x07
    1b14:	78 85       	ldd	r23, Y+8	; 0x08
    1b16:	89 85       	ldd	r24, Y+9	; 0x09
    1b18:	9a 85       	ldd	r25, Y+10	; 0x0a
    1b1a:	0e 94 5a 1f 	call	0x3eb4	; 0x3eb4 <__fixunssfsi>
    1b1e:	dc 01       	movw	r26, r24
    1b20:	cb 01       	movw	r24, r22
    1b22:	9e 83       	std	Y+6, r25	; 0x06
    1b24:	8d 83       	std	Y+5, r24	; 0x05
    1b26:	8d 81       	ldd	r24, Y+5	; 0x05
    1b28:	9e 81       	ldd	r25, Y+6	; 0x06
    1b2a:	9a 83       	std	Y+2, r25	; 0x02
    1b2c:	89 83       	std	Y+1, r24	; 0x01
    1b2e:	89 81       	ldd	r24, Y+1	; 0x01
    1b30:	9a 81       	ldd	r25, Y+2	; 0x02
    1b32:	01 97       	sbiw	r24, 0x01	; 1
    1b34:	f1 f7       	brne	.-4      	; 0x1b32 <pick_up_cone+0x3b4>
    1b36:	9a 83       	std	Y+2, r25	; 0x02
    1b38:	89 83       	std	Y+1, r24	; 0x01
	_delay_ms(300);
}
    1b3a:	e8 96       	adiw	r28, 0x38	; 56
    1b3c:	0f b6       	in	r0, 0x3f	; 63
    1b3e:	f8 94       	cli
    1b40:	de bf       	out	0x3e, r29	; 62
    1b42:	0f be       	out	0x3f, r0	; 63
    1b44:	cd bf       	out	0x3d, r28	; 61
    1b46:	cf 91       	pop	r28
    1b48:	df 91       	pop	r29
    1b4a:	08 95       	ret

00001b4c <drop_cone>:

void drop_cone()
{
    1b4c:	df 93       	push	r29
    1b4e:	cf 93       	push	r28
    1b50:	cd b7       	in	r28, 0x3d	; 61
    1b52:	de b7       	in	r29, 0x3e	; 62
    1b54:	aa 97       	sbiw	r28, 0x2a	; 42
    1b56:	0f b6       	in	r0, 0x3f	; 63
    1b58:	f8 94       	cli
    1b5a:	de bf       	out	0x3e, r29	; 62
    1b5c:	0f be       	out	0x3f, r0	; 63
    1b5e:	cd bf       	out	0x3d, r28	; 61
	servo_1(115);//droping level
    1b60:	83 e7       	ldi	r24, 0x73	; 115
    1b62:	0e 94 23 0b 	call	0x1646	; 0x1646 <servo_1>
    1b66:	80 e0       	ldi	r24, 0x00	; 0
    1b68:	90 e0       	ldi	r25, 0x00	; 0
    1b6a:	aa ef       	ldi	r26, 0xFA	; 250
    1b6c:	b3 e4       	ldi	r27, 0x43	; 67
    1b6e:	8f a3       	std	Y+39, r24	; 0x27
    1b70:	98 a7       	std	Y+40, r25	; 0x28
    1b72:	a9 a7       	std	Y+41, r26	; 0x29
    1b74:	ba a7       	std	Y+42, r27	; 0x2a
 */
void
_delay_ms(double __ms)
{
	uint16_t __ticks;
	double __tmp = ((F_CPU) / 4e3) * __ms;
    1b76:	6f a1       	ldd	r22, Y+39	; 0x27
    1b78:	78 a5       	ldd	r23, Y+40	; 0x28
    1b7a:	89 a5       	ldd	r24, Y+41	; 0x29
    1b7c:	9a a5       	ldd	r25, Y+42	; 0x2a
    1b7e:	26 e6       	ldi	r18, 0x66	; 102
    1b80:	36 e6       	ldi	r19, 0x66	; 102
    1b82:	46 e6       	ldi	r20, 0x66	; 102
    1b84:	55 e4       	ldi	r21, 0x45	; 69
    1b86:	0e 94 30 21 	call	0x4260	; 0x4260 <__mulsf3>
    1b8a:	dc 01       	movw	r26, r24
    1b8c:	cb 01       	movw	r24, r22
    1b8e:	8b a3       	std	Y+35, r24	; 0x23
    1b90:	9c a3       	std	Y+36, r25	; 0x24
    1b92:	ad a3       	std	Y+37, r26	; 0x25
    1b94:	be a3       	std	Y+38, r27	; 0x26
	if (__tmp < 1.0)
    1b96:	6b a1       	ldd	r22, Y+35	; 0x23
    1b98:	7c a1       	ldd	r23, Y+36	; 0x24
    1b9a:	8d a1       	ldd	r24, Y+37	; 0x25
    1b9c:	9e a1       	ldd	r25, Y+38	; 0x26
    1b9e:	20 e0       	ldi	r18, 0x00	; 0
    1ba0:	30 e0       	ldi	r19, 0x00	; 0
    1ba2:	40 e8       	ldi	r20, 0x80	; 128
    1ba4:	5f e3       	ldi	r21, 0x3F	; 63
    1ba6:	0e 94 36 23 	call	0x466c	; 0x466c <__ltsf2>
    1baa:	88 23       	and	r24, r24
    1bac:	2c f4       	brge	.+10     	; 0x1bb8 <drop_cone+0x6c>
		__ticks = 1;
    1bae:	81 e0       	ldi	r24, 0x01	; 1
    1bb0:	90 e0       	ldi	r25, 0x00	; 0
    1bb2:	9a a3       	std	Y+34, r25	; 0x22
    1bb4:	89 a3       	std	Y+33, r24	; 0x21
    1bb6:	3f c0       	rjmp	.+126    	; 0x1c36 <drop_cone+0xea>
	else if (__tmp > 65535)
    1bb8:	6b a1       	ldd	r22, Y+35	; 0x23
    1bba:	7c a1       	ldd	r23, Y+36	; 0x24
    1bbc:	8d a1       	ldd	r24, Y+37	; 0x25
    1bbe:	9e a1       	ldd	r25, Y+38	; 0x26
    1bc0:	20 e0       	ldi	r18, 0x00	; 0
    1bc2:	3f ef       	ldi	r19, 0xFF	; 255
    1bc4:	4f e7       	ldi	r20, 0x7F	; 127
    1bc6:	57 e4       	ldi	r21, 0x47	; 71
    1bc8:	0e 94 d6 22 	call	0x45ac	; 0x45ac <__gtsf2>
    1bcc:	18 16       	cp	r1, r24
    1bce:	4c f5       	brge	.+82     	; 0x1c22 <drop_cone+0xd6>
	{
		//	__ticks = requested delay in 1/10 ms
		__ticks = (uint16_t) (__ms * 10.0);
    1bd0:	6f a1       	ldd	r22, Y+39	; 0x27
    1bd2:	78 a5       	ldd	r23, Y+40	; 0x28
    1bd4:	89 a5       	ldd	r24, Y+41	; 0x29
    1bd6:	9a a5       	ldd	r25, Y+42	; 0x2a
    1bd8:	20 e0       	ldi	r18, 0x00	; 0
    1bda:	30 e0       	ldi	r19, 0x00	; 0
    1bdc:	40 e2       	ldi	r20, 0x20	; 32
    1bde:	51 e4       	ldi	r21, 0x41	; 65
    1be0:	0e 94 30 21 	call	0x4260	; 0x4260 <__mulsf3>
    1be4:	dc 01       	movw	r26, r24
    1be6:	cb 01       	movw	r24, r22
    1be8:	bc 01       	movw	r22, r24
    1bea:	cd 01       	movw	r24, r26
    1bec:	0e 94 5a 1f 	call	0x3eb4	; 0x3eb4 <__fixunssfsi>
    1bf0:	dc 01       	movw	r26, r24
    1bf2:	cb 01       	movw	r24, r22
    1bf4:	9a a3       	std	Y+34, r25	; 0x22
    1bf6:	89 a3       	std	Y+33, r24	; 0x21
    1bf8:	0f c0       	rjmp	.+30     	; 0x1c18 <drop_cone+0xcc>
    1bfa:	80 e7       	ldi	r24, 0x70	; 112
    1bfc:	91 e0       	ldi	r25, 0x01	; 1
    1bfe:	98 a3       	std	Y+32, r25	; 0x20
    1c00:	8f 8f       	std	Y+31, r24	; 0x1f
    1c02:	8f 8d       	ldd	r24, Y+31	; 0x1f
    1c04:	98 a1       	ldd	r25, Y+32	; 0x20
    1c06:	01 97       	sbiw	r24, 0x01	; 1
    1c08:	f1 f7       	brne	.-4      	; 0x1c06 <drop_cone+0xba>
    1c0a:	98 a3       	std	Y+32, r25	; 0x20
    1c0c:	8f 8f       	std	Y+31, r24	; 0x1f
		while(__ticks)
		{
			// wait 1/10 ms
			_delay_loop_2(((F_CPU) / 4e3) / 10);
			__ticks --;
    1c0e:	89 a1       	ldd	r24, Y+33	; 0x21
    1c10:	9a a1       	ldd	r25, Y+34	; 0x22
    1c12:	01 97       	sbiw	r24, 0x01	; 1
    1c14:	9a a3       	std	Y+34, r25	; 0x22
    1c16:	89 a3       	std	Y+33, r24	; 0x21
		__ticks = 1;
	else if (__tmp > 65535)
	{
		//	__ticks = requested delay in 1/10 ms
		__ticks = (uint16_t) (__ms * 10.0);
		while(__ticks)
    1c18:	89 a1       	ldd	r24, Y+33	; 0x21
    1c1a:	9a a1       	ldd	r25, Y+34	; 0x22
    1c1c:	00 97       	sbiw	r24, 0x00	; 0
    1c1e:	69 f7       	brne	.-38     	; 0x1bfa <drop_cone+0xae>
    1c20:	14 c0       	rjmp	.+40     	; 0x1c4a <drop_cone+0xfe>
			__ticks --;
		}
		return;
	}
	else
		__ticks = (uint16_t)__tmp;
    1c22:	6b a1       	ldd	r22, Y+35	; 0x23
    1c24:	7c a1       	ldd	r23, Y+36	; 0x24
    1c26:	8d a1       	ldd	r24, Y+37	; 0x25
    1c28:	9e a1       	ldd	r25, Y+38	; 0x26
    1c2a:	0e 94 5a 1f 	call	0x3eb4	; 0x3eb4 <__fixunssfsi>
    1c2e:	dc 01       	movw	r26, r24
    1c30:	cb 01       	movw	r24, r22
    1c32:	9a a3       	std	Y+34, r25	; 0x22
    1c34:	89 a3       	std	Y+33, r24	; 0x21
    1c36:	89 a1       	ldd	r24, Y+33	; 0x21
    1c38:	9a a1       	ldd	r25, Y+34	; 0x22
    1c3a:	9e 8f       	std	Y+30, r25	; 0x1e
    1c3c:	8d 8f       	std	Y+29, r24	; 0x1d
    1c3e:	8d 8d       	ldd	r24, Y+29	; 0x1d
    1c40:	9e 8d       	ldd	r25, Y+30	; 0x1e
    1c42:	01 97       	sbiw	r24, 0x01	; 1
    1c44:	f1 f7       	brne	.-4      	; 0x1c42 <drop_cone+0xf6>
    1c46:	9e 8f       	std	Y+30, r25	; 0x1e
    1c48:	8d 8f       	std	Y+29, r24	; 0x1d
	_delay_ms(500);
	servo_2(220);
    1c4a:	8c ed       	ldi	r24, 0xDC	; 220
    1c4c:	0e 94 71 0b 	call	0x16e2	; 0x16e2 <servo_2>
    1c50:	80 e0       	ldi	r24, 0x00	; 0
    1c52:	90 e0       	ldi	r25, 0x00	; 0
    1c54:	a6 e1       	ldi	r26, 0x16	; 22
    1c56:	b4 e4       	ldi	r27, 0x44	; 68
    1c58:	89 8f       	std	Y+25, r24	; 0x19
    1c5a:	9a 8f       	std	Y+26, r25	; 0x1a
    1c5c:	ab 8f       	std	Y+27, r26	; 0x1b
    1c5e:	bc 8f       	std	Y+28, r27	; 0x1c
 */
void
_delay_ms(double __ms)
{
	uint16_t __ticks;
	double __tmp = ((F_CPU) / 4e3) * __ms;
    1c60:	69 8d       	ldd	r22, Y+25	; 0x19
    1c62:	7a 8d       	ldd	r23, Y+26	; 0x1a
    1c64:	8b 8d       	ldd	r24, Y+27	; 0x1b
    1c66:	9c 8d       	ldd	r25, Y+28	; 0x1c
    1c68:	26 e6       	ldi	r18, 0x66	; 102
    1c6a:	36 e6       	ldi	r19, 0x66	; 102
    1c6c:	46 e6       	ldi	r20, 0x66	; 102
    1c6e:	55 e4       	ldi	r21, 0x45	; 69
    1c70:	0e 94 30 21 	call	0x4260	; 0x4260 <__mulsf3>
    1c74:	dc 01       	movw	r26, r24
    1c76:	cb 01       	movw	r24, r22
    1c78:	8d 8b       	std	Y+21, r24	; 0x15
    1c7a:	9e 8b       	std	Y+22, r25	; 0x16
    1c7c:	af 8b       	std	Y+23, r26	; 0x17
    1c7e:	b8 8f       	std	Y+24, r27	; 0x18
	if (__tmp < 1.0)
    1c80:	6d 89       	ldd	r22, Y+21	; 0x15
    1c82:	7e 89       	ldd	r23, Y+22	; 0x16
    1c84:	8f 89       	ldd	r24, Y+23	; 0x17
    1c86:	98 8d       	ldd	r25, Y+24	; 0x18
    1c88:	20 e0       	ldi	r18, 0x00	; 0
    1c8a:	30 e0       	ldi	r19, 0x00	; 0
    1c8c:	40 e8       	ldi	r20, 0x80	; 128
    1c8e:	5f e3       	ldi	r21, 0x3F	; 63
    1c90:	0e 94 36 23 	call	0x466c	; 0x466c <__ltsf2>
    1c94:	88 23       	and	r24, r24
    1c96:	2c f4       	brge	.+10     	; 0x1ca2 <drop_cone+0x156>
		__ticks = 1;
    1c98:	81 e0       	ldi	r24, 0x01	; 1
    1c9a:	90 e0       	ldi	r25, 0x00	; 0
    1c9c:	9c 8b       	std	Y+20, r25	; 0x14
    1c9e:	8b 8b       	std	Y+19, r24	; 0x13
    1ca0:	3f c0       	rjmp	.+126    	; 0x1d20 <drop_cone+0x1d4>
	else if (__tmp > 65535)
    1ca2:	6d 89       	ldd	r22, Y+21	; 0x15
    1ca4:	7e 89       	ldd	r23, Y+22	; 0x16
    1ca6:	8f 89       	ldd	r24, Y+23	; 0x17
    1ca8:	98 8d       	ldd	r25, Y+24	; 0x18
    1caa:	20 e0       	ldi	r18, 0x00	; 0
    1cac:	3f ef       	ldi	r19, 0xFF	; 255
    1cae:	4f e7       	ldi	r20, 0x7F	; 127
    1cb0:	57 e4       	ldi	r21, 0x47	; 71
    1cb2:	0e 94 d6 22 	call	0x45ac	; 0x45ac <__gtsf2>
    1cb6:	18 16       	cp	r1, r24
    1cb8:	4c f5       	brge	.+82     	; 0x1d0c <drop_cone+0x1c0>
	{
		//	__ticks = requested delay in 1/10 ms
		__ticks = (uint16_t) (__ms * 10.0);
    1cba:	69 8d       	ldd	r22, Y+25	; 0x19
    1cbc:	7a 8d       	ldd	r23, Y+26	; 0x1a
    1cbe:	8b 8d       	ldd	r24, Y+27	; 0x1b
    1cc0:	9c 8d       	ldd	r25, Y+28	; 0x1c
    1cc2:	20 e0       	ldi	r18, 0x00	; 0
    1cc4:	30 e0       	ldi	r19, 0x00	; 0
    1cc6:	40 e2       	ldi	r20, 0x20	; 32
    1cc8:	51 e4       	ldi	r21, 0x41	; 65
    1cca:	0e 94 30 21 	call	0x4260	; 0x4260 <__mulsf3>
    1cce:	dc 01       	movw	r26, r24
    1cd0:	cb 01       	movw	r24, r22
    1cd2:	bc 01       	movw	r22, r24
    1cd4:	cd 01       	movw	r24, r26
    1cd6:	0e 94 5a 1f 	call	0x3eb4	; 0x3eb4 <__fixunssfsi>
    1cda:	dc 01       	movw	r26, r24
    1cdc:	cb 01       	movw	r24, r22
    1cde:	9c 8b       	std	Y+20, r25	; 0x14
    1ce0:	8b 8b       	std	Y+19, r24	; 0x13
    1ce2:	0f c0       	rjmp	.+30     	; 0x1d02 <drop_cone+0x1b6>
    1ce4:	80 e7       	ldi	r24, 0x70	; 112
    1ce6:	91 e0       	ldi	r25, 0x01	; 1
    1ce8:	9a 8b       	std	Y+18, r25	; 0x12
    1cea:	89 8b       	std	Y+17, r24	; 0x11
    1cec:	89 89       	ldd	r24, Y+17	; 0x11
    1cee:	9a 89       	ldd	r25, Y+18	; 0x12
    1cf0:	01 97       	sbiw	r24, 0x01	; 1
    1cf2:	f1 f7       	brne	.-4      	; 0x1cf0 <drop_cone+0x1a4>
    1cf4:	9a 8b       	std	Y+18, r25	; 0x12
    1cf6:	89 8b       	std	Y+17, r24	; 0x11
		while(__ticks)
		{
			// wait 1/10 ms
			_delay_loop_2(((F_CPU) / 4e3) / 10);
			__ticks --;
    1cf8:	8b 89       	ldd	r24, Y+19	; 0x13
    1cfa:	9c 89       	ldd	r25, Y+20	; 0x14
    1cfc:	01 97       	sbiw	r24, 0x01	; 1
    1cfe:	9c 8b       	std	Y+20, r25	; 0x14
    1d00:	8b 8b       	std	Y+19, r24	; 0x13
		__ticks = 1;
	else if (__tmp > 65535)
	{
		//	__ticks = requested delay in 1/10 ms
		__ticks = (uint16_t) (__ms * 10.0);
		while(__ticks)
    1d02:	8b 89       	ldd	r24, Y+19	; 0x13
    1d04:	9c 89       	ldd	r25, Y+20	; 0x14
    1d06:	00 97       	sbiw	r24, 0x00	; 0
    1d08:	69 f7       	brne	.-38     	; 0x1ce4 <drop_cone+0x198>
    1d0a:	14 c0       	rjmp	.+40     	; 0x1d34 <drop_cone+0x1e8>
			__ticks --;
		}
		return;
	}
	else
		__ticks = (uint16_t)__tmp;
    1d0c:	6d 89       	ldd	r22, Y+21	; 0x15
    1d0e:	7e 89       	ldd	r23, Y+22	; 0x16
    1d10:	8f 89       	ldd	r24, Y+23	; 0x17
    1d12:	98 8d       	ldd	r25, Y+24	; 0x18
    1d14:	0e 94 5a 1f 	call	0x3eb4	; 0x3eb4 <__fixunssfsi>
    1d18:	dc 01       	movw	r26, r24
    1d1a:	cb 01       	movw	r24, r22
    1d1c:	9c 8b       	std	Y+20, r25	; 0x14
    1d1e:	8b 8b       	std	Y+19, r24	; 0x13
    1d20:	8b 89       	ldd	r24, Y+19	; 0x13
    1d22:	9c 89       	ldd	r25, Y+20	; 0x14
    1d24:	98 8b       	std	Y+16, r25	; 0x10
    1d26:	8f 87       	std	Y+15, r24	; 0x0f
    1d28:	8f 85       	ldd	r24, Y+15	; 0x0f
    1d2a:	98 89       	ldd	r25, Y+16	; 0x10
    1d2c:	01 97       	sbiw	r24, 0x01	; 1
    1d2e:	f1 f7       	brne	.-4      	; 0x1d2c <drop_cone+0x1e0>
    1d30:	98 8b       	std	Y+16, r25	; 0x10
    1d32:	8f 87       	std	Y+15, r24	; 0x0f
	_delay_ms(600);
	servo_1(90);//returning height
    1d34:	8a e5       	ldi	r24, 0x5A	; 90
    1d36:	0e 94 23 0b 	call	0x1646	; 0x1646 <servo_1>
    1d3a:	80 e0       	ldi	r24, 0x00	; 0
    1d3c:	90 e0       	ldi	r25, 0x00	; 0
    1d3e:	aa e7       	ldi	r26, 0x7A	; 122
    1d40:	b4 e4       	ldi	r27, 0x44	; 68
    1d42:	8b 87       	std	Y+11, r24	; 0x0b
    1d44:	9c 87       	std	Y+12, r25	; 0x0c
    1d46:	ad 87       	std	Y+13, r26	; 0x0d
    1d48:	be 87       	std	Y+14, r27	; 0x0e
 */
void
_delay_ms(double __ms)
{
	uint16_t __ticks;
	double __tmp = ((F_CPU) / 4e3) * __ms;
    1d4a:	6b 85       	ldd	r22, Y+11	; 0x0b
    1d4c:	7c 85       	ldd	r23, Y+12	; 0x0c
    1d4e:	8d 85       	ldd	r24, Y+13	; 0x0d
    1d50:	9e 85       	ldd	r25, Y+14	; 0x0e
    1d52:	26 e6       	ldi	r18, 0x66	; 102
    1d54:	36 e6       	ldi	r19, 0x66	; 102
    1d56:	46 e6       	ldi	r20, 0x66	; 102
    1d58:	55 e4       	ldi	r21, 0x45	; 69
    1d5a:	0e 94 30 21 	call	0x4260	; 0x4260 <__mulsf3>
    1d5e:	dc 01       	movw	r26, r24
    1d60:	cb 01       	movw	r24, r22
    1d62:	8f 83       	std	Y+7, r24	; 0x07
    1d64:	98 87       	std	Y+8, r25	; 0x08
    1d66:	a9 87       	std	Y+9, r26	; 0x09
    1d68:	ba 87       	std	Y+10, r27	; 0x0a
	if (__tmp < 1.0)
    1d6a:	6f 81       	ldd	r22, Y+7	; 0x07
    1d6c:	78 85       	ldd	r23, Y+8	; 0x08
    1d6e:	89 85       	ldd	r24, Y+9	; 0x09
    1d70:	9a 85       	ldd	r25, Y+10	; 0x0a
    1d72:	20 e0       	ldi	r18, 0x00	; 0
    1d74:	30 e0       	ldi	r19, 0x00	; 0
    1d76:	40 e8       	ldi	r20, 0x80	; 128
    1d78:	5f e3       	ldi	r21, 0x3F	; 63
    1d7a:	0e 94 36 23 	call	0x466c	; 0x466c <__ltsf2>
    1d7e:	88 23       	and	r24, r24
    1d80:	2c f4       	brge	.+10     	; 0x1d8c <drop_cone+0x240>
		__ticks = 1;
    1d82:	81 e0       	ldi	r24, 0x01	; 1
    1d84:	90 e0       	ldi	r25, 0x00	; 0
    1d86:	9e 83       	std	Y+6, r25	; 0x06
    1d88:	8d 83       	std	Y+5, r24	; 0x05
    1d8a:	3f c0       	rjmp	.+126    	; 0x1e0a <drop_cone+0x2be>
	else if (__tmp > 65535)
    1d8c:	6f 81       	ldd	r22, Y+7	; 0x07
    1d8e:	78 85       	ldd	r23, Y+8	; 0x08
    1d90:	89 85       	ldd	r24, Y+9	; 0x09
    1d92:	9a 85       	ldd	r25, Y+10	; 0x0a
    1d94:	20 e0       	ldi	r18, 0x00	; 0
    1d96:	3f ef       	ldi	r19, 0xFF	; 255
    1d98:	4f e7       	ldi	r20, 0x7F	; 127
    1d9a:	57 e4       	ldi	r21, 0x47	; 71
    1d9c:	0e 94 d6 22 	call	0x45ac	; 0x45ac <__gtsf2>
    1da0:	18 16       	cp	r1, r24
    1da2:	4c f5       	brge	.+82     	; 0x1df6 <drop_cone+0x2aa>
	{
		//	__ticks = requested delay in 1/10 ms
		__ticks = (uint16_t) (__ms * 10.0);
    1da4:	6b 85       	ldd	r22, Y+11	; 0x0b
    1da6:	7c 85       	ldd	r23, Y+12	; 0x0c
    1da8:	8d 85       	ldd	r24, Y+13	; 0x0d
    1daa:	9e 85       	ldd	r25, Y+14	; 0x0e
    1dac:	20 e0       	ldi	r18, 0x00	; 0
    1dae:	30 e0       	ldi	r19, 0x00	; 0
    1db0:	40 e2       	ldi	r20, 0x20	; 32
    1db2:	51 e4       	ldi	r21, 0x41	; 65
    1db4:	0e 94 30 21 	call	0x4260	; 0x4260 <__mulsf3>
    1db8:	dc 01       	movw	r26, r24
    1dba:	cb 01       	movw	r24, r22
    1dbc:	bc 01       	movw	r22, r24
    1dbe:	cd 01       	movw	r24, r26
    1dc0:	0e 94 5a 1f 	call	0x3eb4	; 0x3eb4 <__fixunssfsi>
    1dc4:	dc 01       	movw	r26, r24
    1dc6:	cb 01       	movw	r24, r22
    1dc8:	9e 83       	std	Y+6, r25	; 0x06
    1dca:	8d 83       	std	Y+5, r24	; 0x05
    1dcc:	0f c0       	rjmp	.+30     	; 0x1dec <drop_cone+0x2a0>
    1dce:	80 e7       	ldi	r24, 0x70	; 112
    1dd0:	91 e0       	ldi	r25, 0x01	; 1
    1dd2:	9c 83       	std	Y+4, r25	; 0x04
    1dd4:	8b 83       	std	Y+3, r24	; 0x03
    1dd6:	8b 81       	ldd	r24, Y+3	; 0x03
    1dd8:	9c 81       	ldd	r25, Y+4	; 0x04
    1dda:	01 97       	sbiw	r24, 0x01	; 1
    1ddc:	f1 f7       	brne	.-4      	; 0x1dda <drop_cone+0x28e>
    1dde:	9c 83       	std	Y+4, r25	; 0x04
    1de0:	8b 83       	std	Y+3, r24	; 0x03
		while(__ticks)
		{
			// wait 1/10 ms
			_delay_loop_2(((F_CPU) / 4e3) / 10);
			__ticks --;
    1de2:	8d 81       	ldd	r24, Y+5	; 0x05
    1de4:	9e 81       	ldd	r25, Y+6	; 0x06
    1de6:	01 97       	sbiw	r24, 0x01	; 1
    1de8:	9e 83       	std	Y+6, r25	; 0x06
    1dea:	8d 83       	std	Y+5, r24	; 0x05
		__ticks = 1;
	else if (__tmp > 65535)
	{
		//	__ticks = requested delay in 1/10 ms
		__ticks = (uint16_t) (__ms * 10.0);
		while(__ticks)
    1dec:	8d 81       	ldd	r24, Y+5	; 0x05
    1dee:	9e 81       	ldd	r25, Y+6	; 0x06
    1df0:	00 97       	sbiw	r24, 0x00	; 0
    1df2:	69 f7       	brne	.-38     	; 0x1dce <drop_cone+0x282>
    1df4:	14 c0       	rjmp	.+40     	; 0x1e1e <drop_cone+0x2d2>
			__ticks --;
		}
		return;
	}
	else
		__ticks = (uint16_t)__tmp;
    1df6:	6f 81       	ldd	r22, Y+7	; 0x07
    1df8:	78 85       	ldd	r23, Y+8	; 0x08
    1dfa:	89 85       	ldd	r24, Y+9	; 0x09
    1dfc:	9a 85       	ldd	r25, Y+10	; 0x0a
    1dfe:	0e 94 5a 1f 	call	0x3eb4	; 0x3eb4 <__fixunssfsi>
    1e02:	dc 01       	movw	r26, r24
    1e04:	cb 01       	movw	r24, r22
    1e06:	9e 83       	std	Y+6, r25	; 0x06
    1e08:	8d 83       	std	Y+5, r24	; 0x05
    1e0a:	8d 81       	ldd	r24, Y+5	; 0x05
    1e0c:	9e 81       	ldd	r25, Y+6	; 0x06
    1e0e:	9a 83       	std	Y+2, r25	; 0x02
    1e10:	89 83       	std	Y+1, r24	; 0x01
    1e12:	89 81       	ldd	r24, Y+1	; 0x01
    1e14:	9a 81       	ldd	r25, Y+2	; 0x02
    1e16:	01 97       	sbiw	r24, 0x01	; 1
    1e18:	f1 f7       	brne	.-4      	; 0x1e16 <drop_cone+0x2ca>
    1e1a:	9a 83       	std	Y+2, r25	; 0x02
    1e1c:	89 83       	std	Y+1, r24	; 0x01
	_delay_ms(1000);
	//servo_2(120);
	//_delay_ms(600);
	
	
}
    1e1e:	aa 96       	adiw	r28, 0x2a	; 42
    1e20:	0f b6       	in	r0, 0x3f	; 63
    1e22:	f8 94       	cli
    1e24:	de bf       	out	0x3e, r29	; 62
    1e26:	0f be       	out	0x3f, r0	; 63
    1e28:	cd bf       	out	0x3d, r28	; 61
    1e2a:	cf 91       	pop	r28
    1e2c:	df 91       	pop	r29
    1e2e:	08 95       	ret

00001e30 <encoder_pin_config>:
unsigned long int ShaftCountRight = 0;
unsigned int Degrees;


void encoder_pin_config()
{	
    1e30:	df 93       	push	r29
    1e32:	cf 93       	push	r28
    1e34:	cd b7       	in	r28, 0x3d	; 61
    1e36:	de b7       	in	r29, 0x3e	; 62
	DDRE &= 0xcf;
    1e38:	ad e2       	ldi	r26, 0x2D	; 45
    1e3a:	b0 e0       	ldi	r27, 0x00	; 0
    1e3c:	ed e2       	ldi	r30, 0x2D	; 45
    1e3e:	f0 e0       	ldi	r31, 0x00	; 0
    1e40:	80 81       	ld	r24, Z
    1e42:	8f 7c       	andi	r24, 0xCF	; 207
    1e44:	8c 93       	st	X, r24
	PORTE |= 0x30;
    1e46:	ae e2       	ldi	r26, 0x2E	; 46
    1e48:	b0 e0       	ldi	r27, 0x00	; 0
    1e4a:	ee e2       	ldi	r30, 0x2E	; 46
    1e4c:	f0 e0       	ldi	r31, 0x00	; 0
    1e4e:	80 81       	ld	r24, Z
    1e50:	80 63       	ori	r24, 0x30	; 48
    1e52:	8c 93       	st	X, r24
}
    1e54:	cf 91       	pop	r28
    1e56:	df 91       	pop	r29
    1e58:	08 95       	ret

00001e5a <interrupt_init>:

void interrupt_init()
{
    1e5a:	df 93       	push	r29
    1e5c:	cf 93       	push	r28
    1e5e:	cd b7       	in	r28, 0x3d	; 61
    1e60:	de b7       	in	r29, 0x3e	; 62
	cli();
    1e62:	f8 94       	cli
	EIMSK |= 0x30;
    1e64:	ad e3       	ldi	r26, 0x3D	; 61
    1e66:	b0 e0       	ldi	r27, 0x00	; 0
    1e68:	ed e3       	ldi	r30, 0x3D	; 61
    1e6a:	f0 e0       	ldi	r31, 0x00	; 0
    1e6c:	80 81       	ld	r24, Z
    1e6e:	80 63       	ori	r24, 0x30	; 48
    1e70:	8c 93       	st	X, r24
	EICRA = 0x00;
    1e72:	e9 e6       	ldi	r30, 0x69	; 105
    1e74:	f0 e0       	ldi	r31, 0x00	; 0
    1e76:	10 82       	st	Z, r1
	EICRB |= 0x0a;
    1e78:	aa e6       	ldi	r26, 0x6A	; 106
    1e7a:	b0 e0       	ldi	r27, 0x00	; 0
    1e7c:	ea e6       	ldi	r30, 0x6A	; 106
    1e7e:	f0 e0       	ldi	r31, 0x00	; 0
    1e80:	80 81       	ld	r24, Z
    1e82:	8a 60       	ori	r24, 0x0A	; 10
    1e84:	8c 93       	st	X, r24
	sei();
    1e86:	78 94       	sei
}
    1e88:	cf 91       	pop	r28
    1e8a:	df 91       	pop	r29
    1e8c:	08 95       	ret

00001e8e <__vector_5>:

ISR(INT4_vect)
{
    1e8e:	1f 92       	push	r1
    1e90:	0f 92       	push	r0
    1e92:	0f b6       	in	r0, 0x3f	; 63
    1e94:	0f 92       	push	r0
    1e96:	11 24       	eor	r1, r1
    1e98:	8f 93       	push	r24
    1e9a:	9f 93       	push	r25
    1e9c:	af 93       	push	r26
    1e9e:	bf 93       	push	r27
    1ea0:	df 93       	push	r29
    1ea2:	cf 93       	push	r28
    1ea4:	cd b7       	in	r28, 0x3d	; 61
    1ea6:	de b7       	in	r29, 0x3e	; 62
	ShaftCountLeft++;
    1ea8:	80 91 3a 04 	lds	r24, 0x043A
    1eac:	90 91 3b 04 	lds	r25, 0x043B
    1eb0:	a0 91 3c 04 	lds	r26, 0x043C
    1eb4:	b0 91 3d 04 	lds	r27, 0x043D
    1eb8:	01 96       	adiw	r24, 0x01	; 1
    1eba:	a1 1d       	adc	r26, r1
    1ebc:	b1 1d       	adc	r27, r1
    1ebe:	80 93 3a 04 	sts	0x043A, r24
    1ec2:	90 93 3b 04 	sts	0x043B, r25
    1ec6:	a0 93 3c 04 	sts	0x043C, r26
    1eca:	b0 93 3d 04 	sts	0x043D, r27
}
    1ece:	cf 91       	pop	r28
    1ed0:	df 91       	pop	r29
    1ed2:	bf 91       	pop	r27
    1ed4:	af 91       	pop	r26
    1ed6:	9f 91       	pop	r25
    1ed8:	8f 91       	pop	r24
    1eda:	0f 90       	pop	r0
    1edc:	0f be       	out	0x3f, r0	; 63
    1ede:	0f 90       	pop	r0
    1ee0:	1f 90       	pop	r1
    1ee2:	18 95       	reti

00001ee4 <__vector_6>:
ISR(INT5_vect)
{
    1ee4:	1f 92       	push	r1
    1ee6:	0f 92       	push	r0
    1ee8:	0f b6       	in	r0, 0x3f	; 63
    1eea:	0f 92       	push	r0
    1eec:	11 24       	eor	r1, r1
    1eee:	8f 93       	push	r24
    1ef0:	9f 93       	push	r25
    1ef2:	af 93       	push	r26
    1ef4:	bf 93       	push	r27
    1ef6:	df 93       	push	r29
    1ef8:	cf 93       	push	r28
    1efa:	cd b7       	in	r28, 0x3d	; 61
    1efc:	de b7       	in	r29, 0x3e	; 62
	ShaftCountRight++;
    1efe:	80 91 3e 04 	lds	r24, 0x043E
    1f02:	90 91 3f 04 	lds	r25, 0x043F
    1f06:	a0 91 40 04 	lds	r26, 0x0440
    1f0a:	b0 91 41 04 	lds	r27, 0x0441
    1f0e:	01 96       	adiw	r24, 0x01	; 1
    1f10:	a1 1d       	adc	r26, r1
    1f12:	b1 1d       	adc	r27, r1
    1f14:	80 93 3e 04 	sts	0x043E, r24
    1f18:	90 93 3f 04 	sts	0x043F, r25
    1f1c:	a0 93 40 04 	sts	0x0440, r26
    1f20:	b0 93 41 04 	sts	0x0441, r27
}
    1f24:	cf 91       	pop	r28
    1f26:	df 91       	pop	r29
    1f28:	bf 91       	pop	r27
    1f2a:	af 91       	pop	r26
    1f2c:	9f 91       	pop	r25
    1f2e:	8f 91       	pop	r24
    1f30:	0f 90       	pop	r0
    1f32:	0f be       	out	0x3f, r0	; 63
    1f34:	0f 90       	pop	r0
    1f36:	1f 90       	pop	r1
    1f38:	18 95       	reti

00001f3a <angle_rotate>:

void angle_rotate(char dir, unsigned int degrees)
{
    1f3a:	df 93       	push	r29
    1f3c:	cf 93       	push	r28
    1f3e:	cd b7       	in	r28, 0x3d	; 61
    1f40:	de b7       	in	r29, 0x3e	; 62
    1f42:	2b 97       	sbiw	r28, 0x0b	; 11
    1f44:	0f b6       	in	r0, 0x3f	; 63
    1f46:	f8 94       	cli
    1f48:	de bf       	out	0x3e, r29	; 62
    1f4a:	0f be       	out	0x3f, r0	; 63
    1f4c:	cd bf       	out	0x3d, r28	; 61
    1f4e:	89 87       	std	Y+9, r24	; 0x09
    1f50:	7b 87       	std	Y+11, r23	; 0x0b
    1f52:	6a 87       	std	Y+10, r22	; 0x0a
	float ReqdShaftCount = 0;
    1f54:	80 e0       	ldi	r24, 0x00	; 0
    1f56:	90 e0       	ldi	r25, 0x00	; 0
    1f58:	a0 e0       	ldi	r26, 0x00	; 0
    1f5a:	b0 e0       	ldi	r27, 0x00	; 0
    1f5c:	8d 83       	std	Y+5, r24	; 0x05
    1f5e:	9e 83       	std	Y+6, r25	; 0x06
    1f60:	af 83       	std	Y+7, r26	; 0x07
    1f62:	b8 87       	std	Y+8, r27	; 0x08
	unsigned long int ReqdShaftCountInt = 0;
    1f64:	19 82       	std	Y+1, r1	; 0x01
    1f66:	1a 82       	std	Y+2, r1	; 0x02
    1f68:	1b 82       	std	Y+3, r1	; 0x03
    1f6a:	1c 82       	std	Y+4, r1	; 0x04

	ReqdShaftCount = (float) Degrees/4.090;
    1f6c:	80 91 48 04 	lds	r24, 0x0448
    1f70:	90 91 49 04 	lds	r25, 0x0449
    1f74:	cc 01       	movw	r24, r24
    1f76:	a0 e0       	ldi	r26, 0x00	; 0
    1f78:	b0 e0       	ldi	r27, 0x00	; 0
    1f7a:	bc 01       	movw	r22, r24
    1f7c:	cd 01       	movw	r24, r26
    1f7e:	0e 94 ba 23 	call	0x4774	; 0x4774 <__floatunsisf>
    1f82:	dc 01       	movw	r26, r24
    1f84:	cb 01       	movw	r24, r22
    1f86:	bc 01       	movw	r22, r24
    1f88:	cd 01       	movw	r24, r26
    1f8a:	28 e4       	ldi	r18, 0x48	; 72
    1f8c:	31 ee       	ldi	r19, 0xE1	; 225
    1f8e:	42 e8       	ldi	r20, 0x82	; 130
    1f90:	50 e4       	ldi	r21, 0x40	; 64
    1f92:	0e 94 2a 22 	call	0x4454	; 0x4454 <__divsf3>
    1f96:	dc 01       	movw	r26, r24
    1f98:	cb 01       	movw	r24, r22
    1f9a:	8d 83       	std	Y+5, r24	; 0x05
    1f9c:	9e 83       	std	Y+6, r25	; 0x06
    1f9e:	af 83       	std	Y+7, r26	; 0x07
    1fa0:	b8 87       	std	Y+8, r27	; 0x08
	ReqdShaftCountInt = (unsigned int) ReqdShaftCount;
    1fa2:	6d 81       	ldd	r22, Y+5	; 0x05
    1fa4:	7e 81       	ldd	r23, Y+6	; 0x06
    1fa6:	8f 81       	ldd	r24, Y+7	; 0x07
    1fa8:	98 85       	ldd	r25, Y+8	; 0x08
    1faa:	0e 94 5a 1f 	call	0x3eb4	; 0x3eb4 <__fixunssfsi>
    1fae:	dc 01       	movw	r26, r24
    1fb0:	cb 01       	movw	r24, r22
    1fb2:	cc 01       	movw	r24, r24
    1fb4:	a0 e0       	ldi	r26, 0x00	; 0
    1fb6:	b0 e0       	ldi	r27, 0x00	; 0
    1fb8:	89 83       	std	Y+1, r24	; 0x01
    1fba:	9a 83       	std	Y+2, r25	; 0x02
    1fbc:	ab 83       	std	Y+3, r26	; 0x03
    1fbe:	bc 83       	std	Y+4, r27	; 0x04
	ShaftCountRight = 0;
    1fc0:	10 92 3e 04 	sts	0x043E, r1
    1fc4:	10 92 3f 04 	sts	0x043F, r1
    1fc8:	10 92 40 04 	sts	0x0440, r1
    1fcc:	10 92 41 04 	sts	0x0441, r1
	ShaftCountLeft = 0;
    1fd0:	10 92 3a 04 	sts	0x043A, r1
    1fd4:	10 92 3b 04 	sts	0x043B, r1
    1fd8:	10 92 3c 04 	sts	0x043C, r1
    1fdc:	10 92 3d 04 	sts	0x043D, r1

	if(dir == 'r')
    1fe0:	89 85       	ldd	r24, Y+9	; 0x09
    1fe2:	82 37       	cpi	r24, 0x72	; 114
    1fe4:	19 f4       	brne	.+6      	; 0x1fec <angle_rotate+0xb2>
	{
		rot_right();
    1fe6:	0e 94 1e 12 	call	0x243c	; 0x243c <rot_right>
    1fea:	05 c0       	rjmp	.+10     	; 0x1ff6 <angle_rotate+0xbc>
	}
	else if(dir == 'l')
    1fec:	89 85       	ldd	r24, Y+9	; 0x09
    1fee:	8c 36       	cpi	r24, 0x6C	; 108
    1ff0:	11 f4       	brne	.+4      	; 0x1ff6 <angle_rotate+0xbc>
	{
		rot_left();
    1ff2:	0e 94 14 12 	call	0x2428	; 0x2428 <rot_left>
	}
	buzzer_on(1000);
    1ff6:	88 ee       	ldi	r24, 0xE8	; 232
    1ff8:	93 e0       	ldi	r25, 0x03	; 3
    1ffa:	0e 94 14 11 	call	0x2228	; 0x2228 <buzzer_on>
	while((ShaftCountRight < ReqdShaftCountInt) || (ShaftCountLeft < ReqdShaftCountInt));
    1ffe:	20 91 3e 04 	lds	r18, 0x043E
    2002:	30 91 3f 04 	lds	r19, 0x043F
    2006:	40 91 40 04 	lds	r20, 0x0440
    200a:	50 91 41 04 	lds	r21, 0x0441
    200e:	89 81       	ldd	r24, Y+1	; 0x01
    2010:	9a 81       	ldd	r25, Y+2	; 0x02
    2012:	ab 81       	ldd	r26, Y+3	; 0x03
    2014:	bc 81       	ldd	r27, Y+4	; 0x04
    2016:	28 17       	cp	r18, r24
    2018:	39 07       	cpc	r19, r25
    201a:	4a 07       	cpc	r20, r26
    201c:	5b 07       	cpc	r21, r27
    201e:	78 f3       	brcs	.-34     	; 0x1ffe <angle_rotate+0xc4>
    2020:	20 91 3a 04 	lds	r18, 0x043A
    2024:	30 91 3b 04 	lds	r19, 0x043B
    2028:	40 91 3c 04 	lds	r20, 0x043C
    202c:	50 91 3d 04 	lds	r21, 0x043D
    2030:	89 81       	ldd	r24, Y+1	; 0x01
    2032:	9a 81       	ldd	r25, Y+2	; 0x02
    2034:	ab 81       	ldd	r26, Y+3	; 0x03
    2036:	bc 81       	ldd	r27, Y+4	; 0x04
    2038:	28 17       	cp	r18, r24
    203a:	39 07       	cpc	r19, r25
    203c:	4a 07       	cpc	r20, r26
    203e:	5b 07       	cpc	r21, r27
    2040:	f0 f2       	brcs	.-68     	; 0x1ffe <angle_rotate+0xc4>
//	while((ShaftCountRight < 0) || (ShaftCountLeft < 0));

	buzzer_off();
    2042:	0e 94 06 11 	call	0x220c	; 0x220c <buzzer_off>
	stop();
    2046:	0e 94 00 12 	call	0x2400	; 0x2400 <stop>
}
    204a:	2b 96       	adiw	r28, 0x0b	; 11
    204c:	0f b6       	in	r0, 0x3f	; 63
    204e:	f8 94       	cli
    2050:	de bf       	out	0x3e, r29	; 62
    2052:	0f be       	out	0x3f, r0	; 63
    2054:	cd bf       	out	0x3d, r28	; 61
    2056:	cf 91       	pop	r28
    2058:	df 91       	pop	r29
    205a:	08 95       	ret

0000205c <distance_mm>:

void distance_mm(char dir, unsigned int distance)
{
    205c:	df 93       	push	r29
    205e:	cf 93       	push	r28
    2060:	cd b7       	in	r28, 0x3d	; 61
    2062:	de b7       	in	r29, 0x3e	; 62
    2064:	2b 97       	sbiw	r28, 0x0b	; 11
    2066:	0f b6       	in	r0, 0x3f	; 63
    2068:	f8 94       	cli
    206a:	de bf       	out	0x3e, r29	; 62
    206c:	0f be       	out	0x3f, r0	; 63
    206e:	cd bf       	out	0x3d, r28	; 61
    2070:	89 87       	std	Y+9, r24	; 0x09
    2072:	7b 87       	std	Y+11, r23	; 0x0b
    2074:	6a 87       	std	Y+10, r22	; 0x0a
	float ReqdShaftCount = 0;
    2076:	80 e0       	ldi	r24, 0x00	; 0
    2078:	90 e0       	ldi	r25, 0x00	; 0
    207a:	a0 e0       	ldi	r26, 0x00	; 0
    207c:	b0 e0       	ldi	r27, 0x00	; 0
    207e:	8d 83       	std	Y+5, r24	; 0x05
    2080:	9e 83       	std	Y+6, r25	; 0x06
    2082:	af 83       	std	Y+7, r26	; 0x07
    2084:	b8 87       	std	Y+8, r27	; 0x08
	unsigned long int ReqdShaftCountInt = 0;
    2086:	19 82       	std	Y+1, r1	; 0x01
    2088:	1a 82       	std	Y+2, r1	; 0x02
    208a:	1b 82       	std	Y+3, r1	; 0x03
    208c:	1c 82       	std	Y+4, r1	; 0x04

	ReqdShaftCount = (float) distance/5.338;
    208e:	8a 85       	ldd	r24, Y+10	; 0x0a
    2090:	9b 85       	ldd	r25, Y+11	; 0x0b
    2092:	cc 01       	movw	r24, r24
    2094:	a0 e0       	ldi	r26, 0x00	; 0
    2096:	b0 e0       	ldi	r27, 0x00	; 0
    2098:	bc 01       	movw	r22, r24
    209a:	cd 01       	movw	r24, r26
    209c:	0e 94 ba 23 	call	0x4774	; 0x4774 <__floatunsisf>
    20a0:	dc 01       	movw	r26, r24
    20a2:	cb 01       	movw	r24, r22
    20a4:	bc 01       	movw	r22, r24
    20a6:	cd 01       	movw	r24, r26
    20a8:	25 ee       	ldi	r18, 0xE5	; 229
    20aa:	30 ed       	ldi	r19, 0xD0	; 208
    20ac:	4a ea       	ldi	r20, 0xAA	; 170
    20ae:	50 e4       	ldi	r21, 0x40	; 64
    20b0:	0e 94 2a 22 	call	0x4454	; 0x4454 <__divsf3>
    20b4:	dc 01       	movw	r26, r24
    20b6:	cb 01       	movw	r24, r22
    20b8:	8d 83       	std	Y+5, r24	; 0x05
    20ba:	9e 83       	std	Y+6, r25	; 0x06
    20bc:	af 83       	std	Y+7, r26	; 0x07
    20be:	b8 87       	std	Y+8, r27	; 0x08
	ReqdShaftCountInt = (unsigned int) ReqdShaftCount;
    20c0:	6d 81       	ldd	r22, Y+5	; 0x05
    20c2:	7e 81       	ldd	r23, Y+6	; 0x06
    20c4:	8f 81       	ldd	r24, Y+7	; 0x07
    20c6:	98 85       	ldd	r25, Y+8	; 0x08
    20c8:	0e 94 5a 1f 	call	0x3eb4	; 0x3eb4 <__fixunssfsi>
    20cc:	dc 01       	movw	r26, r24
    20ce:	cb 01       	movw	r24, r22
    20d0:	cc 01       	movw	r24, r24
    20d2:	a0 e0       	ldi	r26, 0x00	; 0
    20d4:	b0 e0       	ldi	r27, 0x00	; 0
    20d6:	89 83       	std	Y+1, r24	; 0x01
    20d8:	9a 83       	std	Y+2, r25	; 0x02
    20da:	ab 83       	std	Y+3, r26	; 0x03
    20dc:	bc 83       	std	Y+4, r27	; 0x04
	ShaftCountRight = 0;
    20de:	10 92 3e 04 	sts	0x043E, r1
    20e2:	10 92 3f 04 	sts	0x043F, r1
    20e6:	10 92 40 04 	sts	0x0440, r1
    20ea:	10 92 41 04 	sts	0x0441, r1
	ShaftCountLeft = 0;
    20ee:	10 92 3a 04 	sts	0x043A, r1
    20f2:	10 92 3b 04 	sts	0x043B, r1
    20f6:	10 92 3c 04 	sts	0x043C, r1
    20fa:	10 92 3d 04 	sts	0x043D, r1

	if(dir == 'f')
    20fe:	89 85       	ldd	r24, Y+9	; 0x09
    2100:	86 36       	cpi	r24, 0x66	; 102
    2102:	19 f4       	brne	.+6      	; 0x210a <distance_mm+0xae>
	{
		forward();
    2104:	0e 94 f6 11 	call	0x23ec	; 0x23ec <forward>
    2108:	05 c0       	rjmp	.+10     	; 0x2114 <distance_mm+0xb8>
	}
	else if(dir == 'b')
    210a:	89 85       	ldd	r24, Y+9	; 0x09
    210c:	82 36       	cpi	r24, 0x62	; 98
    210e:	11 f4       	brne	.+4      	; 0x2114 <distance_mm+0xb8>
	{
		backward();
    2110:	0e 94 0a 12 	call	0x2414	; 0x2414 <backward>
	}
	while((ShaftCountRight < ReqdShaftCountInt) || (ShaftCountLeft < ReqdShaftCountInt));
    2114:	20 91 3e 04 	lds	r18, 0x043E
    2118:	30 91 3f 04 	lds	r19, 0x043F
    211c:	40 91 40 04 	lds	r20, 0x0440
    2120:	50 91 41 04 	lds	r21, 0x0441
    2124:	89 81       	ldd	r24, Y+1	; 0x01
    2126:	9a 81       	ldd	r25, Y+2	; 0x02
    2128:	ab 81       	ldd	r26, Y+3	; 0x03
    212a:	bc 81       	ldd	r27, Y+4	; 0x04
    212c:	28 17       	cp	r18, r24
    212e:	39 07       	cpc	r19, r25
    2130:	4a 07       	cpc	r20, r26
    2132:	5b 07       	cpc	r21, r27
    2134:	78 f3       	brcs	.-34     	; 0x2114 <distance_mm+0xb8>
    2136:	20 91 3a 04 	lds	r18, 0x043A
    213a:	30 91 3b 04 	lds	r19, 0x043B
    213e:	40 91 3c 04 	lds	r20, 0x043C
    2142:	50 91 3d 04 	lds	r21, 0x043D
    2146:	89 81       	ldd	r24, Y+1	; 0x01
    2148:	9a 81       	ldd	r25, Y+2	; 0x02
    214a:	ab 81       	ldd	r26, Y+3	; 0x03
    214c:	bc 81       	ldd	r27, Y+4	; 0x04
    214e:	28 17       	cp	r18, r24
    2150:	39 07       	cpc	r19, r25
    2152:	4a 07       	cpc	r20, r26
    2154:	5b 07       	cpc	r21, r27
    2156:	f0 f2       	brcs	.-68     	; 0x2114 <distance_mm+0xb8>
	stop();
    2158:	0e 94 00 12 	call	0x2400	; 0x2400 <stop>
}
    215c:	2b 96       	adiw	r28, 0x0b	; 11
    215e:	0f b6       	in	r0, 0x3f	; 63
    2160:	f8 94       	cli
    2162:	de bf       	out	0x3e, r29	; 62
    2164:	0f be       	out	0x3f, r0	; 63
    2166:	cd bf       	out	0x3d, r28	; 61
    2168:	cf 91       	pop	r28
    216a:	df 91       	pop	r29
    216c:	08 95       	ret

0000216e <init_devices>:

void init_devices()
{
    216e:	df 93       	push	r29
    2170:	cf 93       	push	r28
    2172:	cd b7       	in	r28, 0x3d	; 61
    2174:	de b7       	in	r29, 0x3e	; 62
	buzzer_pin_config();
    2176:	0e 94 f1 10 	call	0x21e2	; 0x21e2 <buzzer_pin_config>
	motion_pin_config();
    217a:	0e 94 c3 11 	call	0x2386	; 0x2386 <motion_pin_config>
	lcd_port_config();
    217e:	0e 94 95 00 	call	0x12a	; 0x12a <lcd_port_config>
	lcd_init();
    2182:	0e 94 a9 05 	call	0xb52	; 0xb52 <lcd_init>
	timer5_init();
    2186:	0e 94 3c 12 	call	0x2478	; 0x2478 <timer5_init>
	adc_pin_config();
    218a:	0e 94 40 0a 	call	0x1480	; 0x1480 <adc_pin_config>
	adc_init();
    218e:	0e 94 4d 0a 	call	0x149a	; 0x149a <adc_init>
	servo_init();
    2192:	0e 94 16 0b 	call	0x162c	; 0x162c <servo_init>
	servo_2(220);             //initialisation of servo2
    2196:	8c ed       	ldi	r24, 0xDC	; 220
    2198:	0e 94 71 0b 	call	0x16e2	; 0x16e2 <servo_2>
	encoder_pin_config();
    219c:	0e 94 18 0f 	call	0x1e30	; 0x1e30 <encoder_pin_config>
	interrupt_init();
    21a0:	0e 94 2d 0f 	call	0x1e5a	; 0x1e5a <interrupt_init>
	init_xbee();
    21a4:	0e 94 2f 17 	call	0x2e5e	; 0x2e5e <init_xbee>
	//init_uart();
}		
    21a8:	cf 91       	pop	r28
    21aa:	df 91       	pop	r29
    21ac:	08 95       	ret

000021ae <print_sensor>:

void print_sensor(char row, char coloumn,unsigned char channel)
{
    21ae:	df 93       	push	r29
    21b0:	cf 93       	push	r28
    21b2:	00 d0       	rcall	.+0      	; 0x21b4 <print_sensor+0x6>
    21b4:	cd b7       	in	r28, 0x3d	; 61
    21b6:	de b7       	in	r29, 0x3e	; 62
    21b8:	89 83       	std	Y+1, r24	; 0x01
    21ba:	6a 83       	std	Y+2, r22	; 0x02
    21bc:	4b 83       	std	Y+3, r20	; 0x03
	lcd_print(row, coloumn, adc_convert(channel), 3);
    21be:	8b 81       	ldd	r24, Y+3	; 0x03
    21c0:	0e 94 78 0a 	call	0x14f0	; 0x14f0 <adc_convert>
    21c4:	28 2f       	mov	r18, r24
    21c6:	30 e0       	ldi	r19, 0x00	; 0
    21c8:	89 81       	ldd	r24, Y+1	; 0x01
    21ca:	6a 81       	ldd	r22, Y+2	; 0x02
    21cc:	a9 01       	movw	r20, r18
    21ce:	23 e0       	ldi	r18, 0x03	; 3
    21d0:	30 e0       	ldi	r19, 0x00	; 0
    21d2:	0e 94 5c 09 	call	0x12b8	; 0x12b8 <lcd_print>
}
    21d6:	0f 90       	pop	r0
    21d8:	0f 90       	pop	r0
    21da:	0f 90       	pop	r0
    21dc:	cf 91       	pop	r28
    21de:	df 91       	pop	r29
    21e0:	08 95       	ret

000021e2 <buzzer_pin_config>:
unsigned char r = 0;
unsigned char adc_convert(unsigned char);
unsigned char ADC_Value;

void buzzer_pin_config()
{
    21e2:	df 93       	push	r29
    21e4:	cf 93       	push	r28
    21e6:	cd b7       	in	r28, 0x3d	; 61
    21e8:	de b7       	in	r29, 0x3e	; 62
	DDRC |= 0x08;
    21ea:	a7 e2       	ldi	r26, 0x27	; 39
    21ec:	b0 e0       	ldi	r27, 0x00	; 0
    21ee:	e7 e2       	ldi	r30, 0x27	; 39
    21f0:	f0 e0       	ldi	r31, 0x00	; 0
    21f2:	80 81       	ld	r24, Z
    21f4:	88 60       	ori	r24, 0x08	; 8
    21f6:	8c 93       	st	X, r24
	PORTC &= 0xf7;
    21f8:	a8 e2       	ldi	r26, 0x28	; 40
    21fa:	b0 e0       	ldi	r27, 0x00	; 0
    21fc:	e8 e2       	ldi	r30, 0x28	; 40
    21fe:	f0 e0       	ldi	r31, 0x00	; 0
    2200:	80 81       	ld	r24, Z
    2202:	87 7f       	andi	r24, 0xF7	; 247
    2204:	8c 93       	st	X, r24
}
    2206:	cf 91       	pop	r28
    2208:	df 91       	pop	r29
    220a:	08 95       	ret

0000220c <buzzer_off>:

void buzzer_off()
{
    220c:	df 93       	push	r29
    220e:	cf 93       	push	r28
    2210:	cd b7       	in	r28, 0x3d	; 61
    2212:	de b7       	in	r29, 0x3e	; 62
	PORTC &= 0xf7;
    2214:	a8 e2       	ldi	r26, 0x28	; 40
    2216:	b0 e0       	ldi	r27, 0x00	; 0
    2218:	e8 e2       	ldi	r30, 0x28	; 40
    221a:	f0 e0       	ldi	r31, 0x00	; 0
    221c:	80 81       	ld	r24, Z
    221e:	87 7f       	andi	r24, 0xF7	; 247
    2220:	8c 93       	st	X, r24
}
    2222:	cf 91       	pop	r28
    2224:	df 91       	pop	r29
    2226:	08 95       	ret

00002228 <buzzer_on>:

void buzzer_on(int time_in_milli)
{
    2228:	df 93       	push	r29
    222a:	cf 93       	push	r28
    222c:	cd b7       	in	r28, 0x3d	; 61
    222e:	de b7       	in	r29, 0x3e	; 62
    2230:	61 97       	sbiw	r28, 0x11	; 17
    2232:	0f b6       	in	r0, 0x3f	; 63
    2234:	f8 94       	cli
    2236:	de bf       	out	0x3e, r29	; 62
    2238:	0f be       	out	0x3f, r0	; 63
    223a:	cd bf       	out	0x3d, r28	; 61
    223c:	98 8b       	std	Y+16, r25	; 0x10
    223e:	8f 87       	std	Y+15, r24	; 0x0f
	PORTC |= 0x08;
    2240:	a8 e2       	ldi	r26, 0x28	; 40
    2242:	b0 e0       	ldi	r27, 0x00	; 0
    2244:	e8 e2       	ldi	r30, 0x28	; 40
    2246:	f0 e0       	ldi	r31, 0x00	; 0
    2248:	80 81       	ld	r24, Z
    224a:	88 60       	ori	r24, 0x08	; 8
    224c:	8c 93       	st	X, r24
    224e:	72 c0       	rjmp	.+228    	; 0x2334 <buzzer_on+0x10c>
	while(time_in_milli--)
    2250:	80 e0       	ldi	r24, 0x00	; 0
    2252:	90 e0       	ldi	r25, 0x00	; 0
    2254:	a0 e8       	ldi	r26, 0x80	; 128
    2256:	bf e3       	ldi	r27, 0x3F	; 63
    2258:	8b 87       	std	Y+11, r24	; 0x0b
    225a:	9c 87       	std	Y+12, r25	; 0x0c
    225c:	ad 87       	std	Y+13, r26	; 0x0d
    225e:	be 87       	std	Y+14, r27	; 0x0e
 */
void
_delay_ms(double __ms)
{
	uint16_t __ticks;
	double __tmp = ((F_CPU) / 4e3) * __ms;
    2260:	6b 85       	ldd	r22, Y+11	; 0x0b
    2262:	7c 85       	ldd	r23, Y+12	; 0x0c
    2264:	8d 85       	ldd	r24, Y+13	; 0x0d
    2266:	9e 85       	ldd	r25, Y+14	; 0x0e
    2268:	26 e6       	ldi	r18, 0x66	; 102
    226a:	36 e6       	ldi	r19, 0x66	; 102
    226c:	46 e6       	ldi	r20, 0x66	; 102
    226e:	55 e4       	ldi	r21, 0x45	; 69
    2270:	0e 94 30 21 	call	0x4260	; 0x4260 <__mulsf3>
    2274:	dc 01       	movw	r26, r24
    2276:	cb 01       	movw	r24, r22
    2278:	8f 83       	std	Y+7, r24	; 0x07
    227a:	98 87       	std	Y+8, r25	; 0x08
    227c:	a9 87       	std	Y+9, r26	; 0x09
    227e:	ba 87       	std	Y+10, r27	; 0x0a
	if (__tmp < 1.0)
    2280:	6f 81       	ldd	r22, Y+7	; 0x07
    2282:	78 85       	ldd	r23, Y+8	; 0x08
    2284:	89 85       	ldd	r24, Y+9	; 0x09
    2286:	9a 85       	ldd	r25, Y+10	; 0x0a
    2288:	20 e0       	ldi	r18, 0x00	; 0
    228a:	30 e0       	ldi	r19, 0x00	; 0
    228c:	40 e8       	ldi	r20, 0x80	; 128
    228e:	5f e3       	ldi	r21, 0x3F	; 63
    2290:	0e 94 36 23 	call	0x466c	; 0x466c <__ltsf2>
    2294:	88 23       	and	r24, r24
    2296:	2c f4       	brge	.+10     	; 0x22a2 <buzzer_on+0x7a>
		__ticks = 1;
    2298:	81 e0       	ldi	r24, 0x01	; 1
    229a:	90 e0       	ldi	r25, 0x00	; 0
    229c:	9e 83       	std	Y+6, r25	; 0x06
    229e:	8d 83       	std	Y+5, r24	; 0x05
    22a0:	3f c0       	rjmp	.+126    	; 0x2320 <buzzer_on+0xf8>
	else if (__tmp > 65535)
    22a2:	6f 81       	ldd	r22, Y+7	; 0x07
    22a4:	78 85       	ldd	r23, Y+8	; 0x08
    22a6:	89 85       	ldd	r24, Y+9	; 0x09
    22a8:	9a 85       	ldd	r25, Y+10	; 0x0a
    22aa:	20 e0       	ldi	r18, 0x00	; 0
    22ac:	3f ef       	ldi	r19, 0xFF	; 255
    22ae:	4f e7       	ldi	r20, 0x7F	; 127
    22b0:	57 e4       	ldi	r21, 0x47	; 71
    22b2:	0e 94 d6 22 	call	0x45ac	; 0x45ac <__gtsf2>
    22b6:	18 16       	cp	r1, r24
    22b8:	4c f5       	brge	.+82     	; 0x230c <buzzer_on+0xe4>
	{
		//	__ticks = requested delay in 1/10 ms
		__ticks = (uint16_t) (__ms * 10.0);
    22ba:	6b 85       	ldd	r22, Y+11	; 0x0b
    22bc:	7c 85       	ldd	r23, Y+12	; 0x0c
    22be:	8d 85       	ldd	r24, Y+13	; 0x0d
    22c0:	9e 85       	ldd	r25, Y+14	; 0x0e
    22c2:	20 e0       	ldi	r18, 0x00	; 0
    22c4:	30 e0       	ldi	r19, 0x00	; 0
    22c6:	40 e2       	ldi	r20, 0x20	; 32
    22c8:	51 e4       	ldi	r21, 0x41	; 65
    22ca:	0e 94 30 21 	call	0x4260	; 0x4260 <__mulsf3>
    22ce:	dc 01       	movw	r26, r24
    22d0:	cb 01       	movw	r24, r22
    22d2:	bc 01       	movw	r22, r24
    22d4:	cd 01       	movw	r24, r26
    22d6:	0e 94 5a 1f 	call	0x3eb4	; 0x3eb4 <__fixunssfsi>
    22da:	dc 01       	movw	r26, r24
    22dc:	cb 01       	movw	r24, r22
    22de:	9e 83       	std	Y+6, r25	; 0x06
    22e0:	8d 83       	std	Y+5, r24	; 0x05
    22e2:	0f c0       	rjmp	.+30     	; 0x2302 <buzzer_on+0xda>
    22e4:	80 e7       	ldi	r24, 0x70	; 112
    22e6:	91 e0       	ldi	r25, 0x01	; 1
    22e8:	9c 83       	std	Y+4, r25	; 0x04
    22ea:	8b 83       	std	Y+3, r24	; 0x03
    22ec:	8b 81       	ldd	r24, Y+3	; 0x03
    22ee:	9c 81       	ldd	r25, Y+4	; 0x04
    22f0:	01 97       	sbiw	r24, 0x01	; 1
    22f2:	f1 f7       	brne	.-4      	; 0x22f0 <buzzer_on+0xc8>
    22f4:	9c 83       	std	Y+4, r25	; 0x04
    22f6:	8b 83       	std	Y+3, r24	; 0x03
		while(__ticks)
		{
			// wait 1/10 ms
			_delay_loop_2(((F_CPU) / 4e3) / 10);
			__ticks --;
    22f8:	8d 81       	ldd	r24, Y+5	; 0x05
    22fa:	9e 81       	ldd	r25, Y+6	; 0x06
    22fc:	01 97       	sbiw	r24, 0x01	; 1
    22fe:	9e 83       	std	Y+6, r25	; 0x06
    2300:	8d 83       	std	Y+5, r24	; 0x05
		__ticks = 1;
	else if (__tmp > 65535)
	{
		//	__ticks = requested delay in 1/10 ms
		__ticks = (uint16_t) (__ms * 10.0);
		while(__ticks)
    2302:	8d 81       	ldd	r24, Y+5	; 0x05
    2304:	9e 81       	ldd	r25, Y+6	; 0x06
    2306:	00 97       	sbiw	r24, 0x00	; 0
    2308:	69 f7       	brne	.-38     	; 0x22e4 <buzzer_on+0xbc>
    230a:	14 c0       	rjmp	.+40     	; 0x2334 <buzzer_on+0x10c>
			__ticks --;
		}
		return;
	}
	else
		__ticks = (uint16_t)__tmp;
    230c:	6f 81       	ldd	r22, Y+7	; 0x07
    230e:	78 85       	ldd	r23, Y+8	; 0x08
    2310:	89 85       	ldd	r24, Y+9	; 0x09
    2312:	9a 85       	ldd	r25, Y+10	; 0x0a
    2314:	0e 94 5a 1f 	call	0x3eb4	; 0x3eb4 <__fixunssfsi>
    2318:	dc 01       	movw	r26, r24
    231a:	cb 01       	movw	r24, r22
    231c:	9e 83       	std	Y+6, r25	; 0x06
    231e:	8d 83       	std	Y+5, r24	; 0x05
    2320:	8d 81       	ldd	r24, Y+5	; 0x05
    2322:	9e 81       	ldd	r25, Y+6	; 0x06
    2324:	9a 83       	std	Y+2, r25	; 0x02
    2326:	89 83       	std	Y+1, r24	; 0x01
    2328:	89 81       	ldd	r24, Y+1	; 0x01
    232a:	9a 81       	ldd	r25, Y+2	; 0x02
    232c:	01 97       	sbiw	r24, 0x01	; 1
    232e:	f1 f7       	brne	.-4      	; 0x232c <buzzer_on+0x104>
    2330:	9a 83       	std	Y+2, r25	; 0x02
    2332:	89 83       	std	Y+1, r24	; 0x01
    2334:	19 8a       	std	Y+17, r1	; 0x11
    2336:	8f 85       	ldd	r24, Y+15	; 0x0f
    2338:	98 89       	ldd	r25, Y+16	; 0x10
    233a:	00 97       	sbiw	r24, 0x00	; 0
    233c:	11 f0       	breq	.+4      	; 0x2342 <buzzer_on+0x11a>
    233e:	81 e0       	ldi	r24, 0x01	; 1
    2340:	89 8b       	std	Y+17, r24	; 0x11
    2342:	8f 85       	ldd	r24, Y+15	; 0x0f
    2344:	98 89       	ldd	r25, Y+16	; 0x10
    2346:	01 97       	sbiw	r24, 0x01	; 1
    2348:	98 8b       	std	Y+16, r25	; 0x10
    234a:	8f 87       	std	Y+15, r24	; 0x0f
    234c:	89 89       	ldd	r24, Y+17	; 0x11
    234e:	88 23       	and	r24, r24
    2350:	09 f0       	breq	.+2      	; 0x2354 <buzzer_on+0x12c>
    2352:	7e cf       	rjmp	.-260    	; 0x2250 <buzzer_on+0x28>
		_delay_ms(1);
	buzzer_off();
    2354:	0e 94 06 11 	call	0x220c	; 0x220c <buzzer_off>
}
    2358:	61 96       	adiw	r28, 0x11	; 17
    235a:	0f b6       	in	r0, 0x3f	; 63
    235c:	f8 94       	cli
    235e:	de bf       	out	0x3e, r29	; 62
    2360:	0f be       	out	0x3f, r0	; 63
    2362:	cd bf       	out	0x3d, r28	; 61
    2364:	cf 91       	pop	r28
    2366:	df 91       	pop	r29
    2368:	08 95       	ret

0000236a <buzzer_ON>:
void buzzer_ON()
{
    236a:	df 93       	push	r29
    236c:	cf 93       	push	r28
    236e:	cd b7       	in	r28, 0x3d	; 61
    2370:	de b7       	in	r29, 0x3e	; 62
	PORTC |= 0x08;
    2372:	a8 e2       	ldi	r26, 0x28	; 40
    2374:	b0 e0       	ldi	r27, 0x00	; 0
    2376:	e8 e2       	ldi	r30, 0x28	; 40
    2378:	f0 e0       	ldi	r31, 0x00	; 0
    237a:	80 81       	ld	r24, Z
    237c:	88 60       	ori	r24, 0x08	; 8
    237e:	8c 93       	st	X, r24
}
    2380:	cf 91       	pop	r28
    2382:	df 91       	pop	r29
    2384:	08 95       	ret

00002386 <motion_pin_config>:

void motion_pin_config()
{
    2386:	df 93       	push	r29
    2388:	cf 93       	push	r28
    238a:	cd b7       	in	r28, 0x3d	; 61
    238c:	de b7       	in	r29, 0x3e	; 62
	DDRA |= 0x0f;
    238e:	a1 e2       	ldi	r26, 0x21	; 33
    2390:	b0 e0       	ldi	r27, 0x00	; 0
    2392:	e1 e2       	ldi	r30, 0x21	; 33
    2394:	f0 e0       	ldi	r31, 0x00	; 0
    2396:	80 81       	ld	r24, Z
    2398:	8f 60       	ori	r24, 0x0F	; 15
    239a:	8c 93       	st	X, r24
	DDRL |= 0x18;
    239c:	aa e0       	ldi	r26, 0x0A	; 10
    239e:	b1 e0       	ldi	r27, 0x01	; 1
    23a0:	ea e0       	ldi	r30, 0x0A	; 10
    23a2:	f1 e0       	ldi	r31, 0x01	; 1
    23a4:	80 81       	ld	r24, Z
    23a6:	88 61       	ori	r24, 0x18	; 24
    23a8:	8c 93       	st	X, r24
	PORTL |= 0x18;
    23aa:	ab e0       	ldi	r26, 0x0B	; 11
    23ac:	b1 e0       	ldi	r27, 0x01	; 1
    23ae:	eb e0       	ldi	r30, 0x0B	; 11
    23b0:	f1 e0       	ldi	r31, 0x01	; 1
    23b2:	80 81       	ld	r24, Z
    23b4:	88 61       	ori	r24, 0x18	; 24
    23b6:	8c 93       	st	X, r24
	PORTA = 0x00;
    23b8:	e2 e2       	ldi	r30, 0x22	; 34
    23ba:	f0 e0       	ldi	r31, 0x00	; 0
    23bc:	10 82       	st	Z, r1
}
    23be:	cf 91       	pop	r28
    23c0:	df 91       	pop	r29
    23c2:	08 95       	ret

000023c4 <motion_set>:

void motion_set(unsigned char dir)
{
    23c4:	df 93       	push	r29
    23c6:	cf 93       	push	r28
    23c8:	0f 92       	push	r0
    23ca:	cd b7       	in	r28, 0x3d	; 61
    23cc:	de b7       	in	r29, 0x3e	; 62
    23ce:	89 83       	std	Y+1, r24	; 0x01
	PORTA = (PINA & 0xf0) | dir;
    23d0:	a2 e2       	ldi	r26, 0x22	; 34
    23d2:	b0 e0       	ldi	r27, 0x00	; 0
    23d4:	e0 e2       	ldi	r30, 0x20	; 32
    23d6:	f0 e0       	ldi	r31, 0x00	; 0
    23d8:	80 81       	ld	r24, Z
    23da:	98 2f       	mov	r25, r24
    23dc:	90 7f       	andi	r25, 0xF0	; 240
    23de:	89 81       	ldd	r24, Y+1	; 0x01
    23e0:	89 2b       	or	r24, r25
    23e2:	8c 93       	st	X, r24
}
    23e4:	0f 90       	pop	r0
    23e6:	cf 91       	pop	r28
    23e8:	df 91       	pop	r29
    23ea:	08 95       	ret

000023ec <forward>:

void forward()
{
    23ec:	df 93       	push	r29
    23ee:	cf 93       	push	r28
    23f0:	cd b7       	in	r28, 0x3d	; 61
    23f2:	de b7       	in	r29, 0x3e	; 62
	motion_set(0x06);
    23f4:	86 e0       	ldi	r24, 0x06	; 6
    23f6:	0e 94 e2 11 	call	0x23c4	; 0x23c4 <motion_set>
}
    23fa:	cf 91       	pop	r28
    23fc:	df 91       	pop	r29
    23fe:	08 95       	ret

00002400 <stop>:
void stop()
{
    2400:	df 93       	push	r29
    2402:	cf 93       	push	r28
    2404:	cd b7       	in	r28, 0x3d	; 61
    2406:	de b7       	in	r29, 0x3e	; 62
	motion_set(0x00);
    2408:	80 e0       	ldi	r24, 0x00	; 0
    240a:	0e 94 e2 11 	call	0x23c4	; 0x23c4 <motion_set>
}
    240e:	cf 91       	pop	r28
    2410:	df 91       	pop	r29
    2412:	08 95       	ret

00002414 <backward>:
void backward()
{
    2414:	df 93       	push	r29
    2416:	cf 93       	push	r28
    2418:	cd b7       	in	r28, 0x3d	; 61
    241a:	de b7       	in	r29, 0x3e	; 62
	motion_set(0x09);
    241c:	89 e0       	ldi	r24, 0x09	; 9
    241e:	0e 94 e2 11 	call	0x23c4	; 0x23c4 <motion_set>
}
    2422:	cf 91       	pop	r28
    2424:	df 91       	pop	r29
    2426:	08 95       	ret

00002428 <rot_left>:
void rot_left()
{
    2428:	df 93       	push	r29
    242a:	cf 93       	push	r28
    242c:	cd b7       	in	r28, 0x3d	; 61
    242e:	de b7       	in	r29, 0x3e	; 62
	motion_set(0x05);
    2430:	85 e0       	ldi	r24, 0x05	; 5
    2432:	0e 94 e2 11 	call	0x23c4	; 0x23c4 <motion_set>
}
    2436:	cf 91       	pop	r28
    2438:	df 91       	pop	r29
    243a:	08 95       	ret

0000243c <rot_right>:
void rot_right()
{
    243c:	df 93       	push	r29
    243e:	cf 93       	push	r28
    2440:	cd b7       	in	r28, 0x3d	; 61
    2442:	de b7       	in	r29, 0x3e	; 62
	motion_set(0x0a);
    2444:	8a e0       	ldi	r24, 0x0A	; 10
    2446:	0e 94 e2 11 	call	0x23c4	; 0x23c4 <motion_set>
}
    244a:	cf 91       	pop	r28
    244c:	df 91       	pop	r29
    244e:	08 95       	ret

00002450 <soft_left>:
void soft_left()
{
    2450:	df 93       	push	r29
    2452:	cf 93       	push	r28
    2454:	cd b7       	in	r28, 0x3d	; 61
    2456:	de b7       	in	r29, 0x3e	; 62
	motion_set(0x04);
    2458:	84 e0       	ldi	r24, 0x04	; 4
    245a:	0e 94 e2 11 	call	0x23c4	; 0x23c4 <motion_set>
}
    245e:	cf 91       	pop	r28
    2460:	df 91       	pop	r29
    2462:	08 95       	ret

00002464 <soft_right>:
void soft_right()
{
    2464:	df 93       	push	r29
    2466:	cf 93       	push	r28
    2468:	cd b7       	in	r28, 0x3d	; 61
    246a:	de b7       	in	r29, 0x3e	; 62
	motion_set(0x02);
    246c:	82 e0       	ldi	r24, 0x02	; 2
    246e:	0e 94 e2 11 	call	0x23c4	; 0x23c4 <motion_set>
}
    2472:	cf 91       	pop	r28
    2474:	df 91       	pop	r29
    2476:	08 95       	ret

00002478 <timer5_init>:


void timer5_init()
{
    2478:	df 93       	push	r29
    247a:	cf 93       	push	r28
    247c:	cd b7       	in	r28, 0x3d	; 61
    247e:	de b7       	in	r29, 0x3e	; 62
	TCCR5A = 0xa9;
    2480:	e0 e2       	ldi	r30, 0x20	; 32
    2482:	f1 e0       	ldi	r31, 0x01	; 1
    2484:	89 ea       	ldi	r24, 0xA9	; 169
    2486:	80 83       	st	Z, r24
	TCCR5B = 0x0b;
    2488:	e1 e2       	ldi	r30, 0x21	; 33
    248a:	f1 e0       	ldi	r31, 0x01	; 1
    248c:	8b e0       	ldi	r24, 0x0B	; 11
    248e:	80 83       	st	Z, r24
	TCNT5H = 0x00;
    2490:	e5 e2       	ldi	r30, 0x25	; 37
    2492:	f1 e0       	ldi	r31, 0x01	; 1
    2494:	10 82       	st	Z, r1
	TCNT5L = 0x00;
    2496:	e4 e2       	ldi	r30, 0x24	; 36
    2498:	f1 e0       	ldi	r31, 0x01	; 1
    249a:	10 82       	st	Z, r1
	OCR5AL = 0xff;
    249c:	e8 e2       	ldi	r30, 0x28	; 40
    249e:	f1 e0       	ldi	r31, 0x01	; 1
    24a0:	8f ef       	ldi	r24, 0xFF	; 255
    24a2:	80 83       	st	Z, r24
	OCR5BL = 0xff;
    24a4:	ea e2       	ldi	r30, 0x2A	; 42
    24a6:	f1 e0       	ldi	r31, 0x01	; 1
    24a8:	8f ef       	ldi	r24, 0xFF	; 255
    24aa:	80 83       	st	Z, r24
}
    24ac:	cf 91       	pop	r28
    24ae:	df 91       	pop	r29
    24b0:	08 95       	ret

000024b2 <left_wl>:


unsigned char left_wl()
{
    24b2:	df 93       	push	r29
    24b4:	cf 93       	push	r28
    24b6:	cd b7       	in	r28, 0x3d	; 61
    24b8:	de b7       	in	r29, 0x3e	; 62
	return adc_convert(3);
    24ba:	83 e0       	ldi	r24, 0x03	; 3
    24bc:	0e 94 78 0a 	call	0x14f0	; 0x14f0 <adc_convert>
}
    24c0:	cf 91       	pop	r28
    24c2:	df 91       	pop	r29
    24c4:	08 95       	ret

000024c6 <mid_wl>:
unsigned char mid_wl()
{
    24c6:	df 93       	push	r29
    24c8:	cf 93       	push	r28
    24ca:	cd b7       	in	r28, 0x3d	; 61
    24cc:	de b7       	in	r29, 0x3e	; 62
	return adc_convert(2);
    24ce:	82 e0       	ldi	r24, 0x02	; 2
    24d0:	0e 94 78 0a 	call	0x14f0	; 0x14f0 <adc_convert>
}
    24d4:	cf 91       	pop	r28
    24d6:	df 91       	pop	r29
    24d8:	08 95       	ret

000024da <right_wl>:
unsigned char right_wl()
{
    24da:	df 93       	push	r29
    24dc:	cf 93       	push	r28
    24de:	cd b7       	in	r28, 0x3d	; 61
    24e0:	de b7       	in	r29, 0x3e	; 62
	return adc_convert(3);
    24e2:	83 e0       	ldi	r24, 0x03	; 3
    24e4:	0e 94 78 0a 	call	0x14f0	; 0x14f0 <adc_convert>
}
    24e8:	cf 91       	pop	r28
    24ea:	df 91       	pop	r29
    24ec:	08 95       	ret

000024ee <rotate_right_901>:


void rotate_right_901()
{
    24ee:	df 93       	push	r29
    24f0:	cf 93       	push	r28
    24f2:	cd b7       	in	r28, 0x3d	; 61
    24f4:	de b7       	in	r29, 0x3e	; 62
    24f6:	2e 97       	sbiw	r28, 0x0e	; 14
    24f8:	0f b6       	in	r0, 0x3f	; 63
    24fa:	f8 94       	cli
    24fc:	de bf       	out	0x3e, r29	; 62
    24fe:	0f be       	out	0x3f, r0	; 63
    2500:	cd bf       	out	0x3d, r28	; 61
	rot_right();
    2502:	0e 94 1e 12 	call	0x243c	; 0x243c <rot_right>
	velocity(vth, vth);
    2506:	86 e9       	ldi	r24, 0x96	; 150
    2508:	66 e9       	ldi	r22, 0x96	; 150
    250a:	0e 94 63 0a 	call	0x14c6	; 0x14c6 <velocity>
    250e:	80 e0       	ldi	r24, 0x00	; 0
    2510:	90 e0       	ldi	r25, 0x00	; 0
    2512:	aa ef       	ldi	r26, 0xFA	; 250
    2514:	b3 e4       	ldi	r27, 0x43	; 67
    2516:	8b 87       	std	Y+11, r24	; 0x0b
    2518:	9c 87       	std	Y+12, r25	; 0x0c
    251a:	ad 87       	std	Y+13, r26	; 0x0d
    251c:	be 87       	std	Y+14, r27	; 0x0e
 */
void
_delay_ms(double __ms)
{
	uint16_t __ticks;
	double __tmp = ((F_CPU) / 4e3) * __ms;
    251e:	6b 85       	ldd	r22, Y+11	; 0x0b
    2520:	7c 85       	ldd	r23, Y+12	; 0x0c
    2522:	8d 85       	ldd	r24, Y+13	; 0x0d
    2524:	9e 85       	ldd	r25, Y+14	; 0x0e
    2526:	26 e6       	ldi	r18, 0x66	; 102
    2528:	36 e6       	ldi	r19, 0x66	; 102
    252a:	46 e6       	ldi	r20, 0x66	; 102
    252c:	55 e4       	ldi	r21, 0x45	; 69
    252e:	0e 94 30 21 	call	0x4260	; 0x4260 <__mulsf3>
    2532:	dc 01       	movw	r26, r24
    2534:	cb 01       	movw	r24, r22
    2536:	8f 83       	std	Y+7, r24	; 0x07
    2538:	98 87       	std	Y+8, r25	; 0x08
    253a:	a9 87       	std	Y+9, r26	; 0x09
    253c:	ba 87       	std	Y+10, r27	; 0x0a
	if (__tmp < 1.0)
    253e:	6f 81       	ldd	r22, Y+7	; 0x07
    2540:	78 85       	ldd	r23, Y+8	; 0x08
    2542:	89 85       	ldd	r24, Y+9	; 0x09
    2544:	9a 85       	ldd	r25, Y+10	; 0x0a
    2546:	20 e0       	ldi	r18, 0x00	; 0
    2548:	30 e0       	ldi	r19, 0x00	; 0
    254a:	40 e8       	ldi	r20, 0x80	; 128
    254c:	5f e3       	ldi	r21, 0x3F	; 63
    254e:	0e 94 36 23 	call	0x466c	; 0x466c <__ltsf2>
    2552:	88 23       	and	r24, r24
    2554:	2c f4       	brge	.+10     	; 0x2560 <rotate_right_901+0x72>
		__ticks = 1;
    2556:	81 e0       	ldi	r24, 0x01	; 1
    2558:	90 e0       	ldi	r25, 0x00	; 0
    255a:	9e 83       	std	Y+6, r25	; 0x06
    255c:	8d 83       	std	Y+5, r24	; 0x05
    255e:	3f c0       	rjmp	.+126    	; 0x25de <rotate_right_901+0xf0>
	else if (__tmp > 65535)
    2560:	6f 81       	ldd	r22, Y+7	; 0x07
    2562:	78 85       	ldd	r23, Y+8	; 0x08
    2564:	89 85       	ldd	r24, Y+9	; 0x09
    2566:	9a 85       	ldd	r25, Y+10	; 0x0a
    2568:	20 e0       	ldi	r18, 0x00	; 0
    256a:	3f ef       	ldi	r19, 0xFF	; 255
    256c:	4f e7       	ldi	r20, 0x7F	; 127
    256e:	57 e4       	ldi	r21, 0x47	; 71
    2570:	0e 94 d6 22 	call	0x45ac	; 0x45ac <__gtsf2>
    2574:	18 16       	cp	r1, r24
    2576:	4c f5       	brge	.+82     	; 0x25ca <rotate_right_901+0xdc>
	{
		//	__ticks = requested delay in 1/10 ms
		__ticks = (uint16_t) (__ms * 10.0);
    2578:	6b 85       	ldd	r22, Y+11	; 0x0b
    257a:	7c 85       	ldd	r23, Y+12	; 0x0c
    257c:	8d 85       	ldd	r24, Y+13	; 0x0d
    257e:	9e 85       	ldd	r25, Y+14	; 0x0e
    2580:	20 e0       	ldi	r18, 0x00	; 0
    2582:	30 e0       	ldi	r19, 0x00	; 0
    2584:	40 e2       	ldi	r20, 0x20	; 32
    2586:	51 e4       	ldi	r21, 0x41	; 65
    2588:	0e 94 30 21 	call	0x4260	; 0x4260 <__mulsf3>
    258c:	dc 01       	movw	r26, r24
    258e:	cb 01       	movw	r24, r22
    2590:	bc 01       	movw	r22, r24
    2592:	cd 01       	movw	r24, r26
    2594:	0e 94 5a 1f 	call	0x3eb4	; 0x3eb4 <__fixunssfsi>
    2598:	dc 01       	movw	r26, r24
    259a:	cb 01       	movw	r24, r22
    259c:	9e 83       	std	Y+6, r25	; 0x06
    259e:	8d 83       	std	Y+5, r24	; 0x05
    25a0:	0f c0       	rjmp	.+30     	; 0x25c0 <rotate_right_901+0xd2>
    25a2:	80 e7       	ldi	r24, 0x70	; 112
    25a4:	91 e0       	ldi	r25, 0x01	; 1
    25a6:	9c 83       	std	Y+4, r25	; 0x04
    25a8:	8b 83       	std	Y+3, r24	; 0x03
    25aa:	8b 81       	ldd	r24, Y+3	; 0x03
    25ac:	9c 81       	ldd	r25, Y+4	; 0x04
    25ae:	01 97       	sbiw	r24, 0x01	; 1
    25b0:	f1 f7       	brne	.-4      	; 0x25ae <rotate_right_901+0xc0>
    25b2:	9c 83       	std	Y+4, r25	; 0x04
    25b4:	8b 83       	std	Y+3, r24	; 0x03
		while(__ticks)
		{
			// wait 1/10 ms
			_delay_loop_2(((F_CPU) / 4e3) / 10);
			__ticks --;
    25b6:	8d 81       	ldd	r24, Y+5	; 0x05
    25b8:	9e 81       	ldd	r25, Y+6	; 0x06
    25ba:	01 97       	sbiw	r24, 0x01	; 1
    25bc:	9e 83       	std	Y+6, r25	; 0x06
    25be:	8d 83       	std	Y+5, r24	; 0x05
		__ticks = 1;
	else if (__tmp > 65535)
	{
		//	__ticks = requested delay in 1/10 ms
		__ticks = (uint16_t) (__ms * 10.0);
		while(__ticks)
    25c0:	8d 81       	ldd	r24, Y+5	; 0x05
    25c2:	9e 81       	ldd	r25, Y+6	; 0x06
    25c4:	00 97       	sbiw	r24, 0x00	; 0
    25c6:	69 f7       	brne	.-38     	; 0x25a2 <rotate_right_901+0xb4>
    25c8:	14 c0       	rjmp	.+40     	; 0x25f2 <rotate_right_901+0x104>
			__ticks --;
		}
		return;
	}
	else
		__ticks = (uint16_t)__tmp;
    25ca:	6f 81       	ldd	r22, Y+7	; 0x07
    25cc:	78 85       	ldd	r23, Y+8	; 0x08
    25ce:	89 85       	ldd	r24, Y+9	; 0x09
    25d0:	9a 85       	ldd	r25, Y+10	; 0x0a
    25d2:	0e 94 5a 1f 	call	0x3eb4	; 0x3eb4 <__fixunssfsi>
    25d6:	dc 01       	movw	r26, r24
    25d8:	cb 01       	movw	r24, r22
    25da:	9e 83       	std	Y+6, r25	; 0x06
    25dc:	8d 83       	std	Y+5, r24	; 0x05
    25de:	8d 81       	ldd	r24, Y+5	; 0x05
    25e0:	9e 81       	ldd	r25, Y+6	; 0x06
    25e2:	9a 83       	std	Y+2, r25	; 0x02
    25e4:	89 83       	std	Y+1, r24	; 0x01
    25e6:	89 81       	ldd	r24, Y+1	; 0x01
    25e8:	9a 81       	ldd	r25, Y+2	; 0x02
    25ea:	01 97       	sbiw	r24, 0x01	; 1
    25ec:	f1 f7       	brne	.-4      	; 0x25ea <rotate_right_901+0xfc>
    25ee:	9a 83       	std	Y+2, r25	; 0x02
    25f0:	89 83       	std	Y+1, r24	; 0x01
	_delay_ms(500);
	if(mid_wl()<wlth)
    25f2:	0e 94 63 12 	call	0x24c6	; 0x24c6 <mid_wl>
    25f6:	88 32       	cpi	r24, 0x28	; 40
    25f8:	b0 f4       	brcc	.+44     	; 0x2626 <rotate_right_901+0x138>
	{	
		if(right_wl()>wlth)
    25fa:	0e 94 6d 12 	call	0x24da	; 0x24da <right_wl>
    25fe:	89 32       	cpi	r24, 0x29	; 41
    2600:	68 f0       	brcs	.+26     	; 0x261c <rotate_right_901+0x12e>
		{
			while(mid_wl()<wlth);
    2602:	0e 94 63 12 	call	0x24c6	; 0x24c6 <mid_wl>
    2606:	88 32       	cpi	r24, 0x28	; 40
    2608:	e0 f3       	brcs	.-8      	; 0x2602 <rotate_right_901+0x114>
			while(mid_wl()>wlth);
    260a:	0e 94 63 12 	call	0x24c6	; 0x24c6 <mid_wl>
    260e:	89 32       	cpi	r24, 0x29	; 41
    2610:	e0 f7       	brcc	.-8      	; 0x260a <rotate_right_901+0x11c>
			while(mid_wl()<wlth);
    2612:	0e 94 63 12 	call	0x24c6	; 0x24c6 <mid_wl>
    2616:	88 32       	cpi	r24, 0x28	; 40
    2618:	e0 f3       	brcs	.-8      	; 0x2612 <rotate_right_901+0x124>
    261a:	15 c0       	rjmp	.+42     	; 0x2646 <rotate_right_901+0x158>
			//while(left_wl()<wlth);
		}
		else
		{
			while(mid_wl()<wlth);
    261c:	0e 94 63 12 	call	0x24c6	; 0x24c6 <mid_wl>
    2620:	88 32       	cpi	r24, 0x28	; 40
    2622:	e0 f3       	brcs	.-8      	; 0x261c <rotate_right_901+0x12e>
    2624:	10 c0       	rjmp	.+32     	; 0x2646 <rotate_right_901+0x158>
			//while(left_wl()<wlth);

		}
	}
	else if(mid_wl()>wlth)
    2626:	0e 94 63 12 	call	0x24c6	; 0x24c6 <mid_wl>
    262a:	89 32       	cpi	r24, 0x29	; 41
    262c:	60 f0       	brcs	.+24     	; 0x2646 <rotate_right_901+0x158>
	{
		while(mid_wl()>wlth);
    262e:	0e 94 63 12 	call	0x24c6	; 0x24c6 <mid_wl>
    2632:	89 32       	cpi	r24, 0x29	; 41
    2634:	e0 f7       	brcc	.-8      	; 0x262e <rotate_right_901+0x140>
		while(mid_wl()<wlth);
    2636:	0e 94 63 12 	call	0x24c6	; 0x24c6 <mid_wl>
    263a:	88 32       	cpi	r24, 0x28	; 40
    263c:	e0 f3       	brcs	.-8      	; 0x2636 <rotate_right_901+0x148>
		while(left_wl()<wlth);
    263e:	0e 94 59 12 	call	0x24b2	; 0x24b2 <left_wl>
    2642:	88 32       	cpi	r24, 0x28	; 40
    2644:	e0 f3       	brcs	.-8      	; 0x263e <rotate_right_901+0x150>
	}
	//while((mid_wl() < wlth) && (left_wl() < wlth));
	//while(mid_wl()<wlth && left_wl()>wlth);
	stop();
    2646:	0e 94 00 12 	call	0x2400	; 0x2400 <stop>
	l = 1;
    264a:	81 e0       	ldi	r24, 0x01	; 1
    264c:	80 93 42 04 	sts	0x0442, r24
	r = 0;
    2650:	10 92 43 04 	sts	0x0443, r1

}
    2654:	2e 96       	adiw	r28, 0x0e	; 14
    2656:	0f b6       	in	r0, 0x3f	; 63
    2658:	f8 94       	cli
    265a:	de bf       	out	0x3e, r29	; 62
    265c:	0f be       	out	0x3f, r0	; 63
    265e:	cd bf       	out	0x3d, r28	; 61
    2660:	cf 91       	pop	r28
    2662:	df 91       	pop	r29
    2664:	08 95       	ret

00002666 <rotate_left_901>:
void rotate_left_901()
{
    2666:	df 93       	push	r29
    2668:	cf 93       	push	r28
    266a:	cd b7       	in	r28, 0x3d	; 61
    266c:	de b7       	in	r29, 0x3e	; 62
    266e:	2e 97       	sbiw	r28, 0x0e	; 14
    2670:	0f b6       	in	r0, 0x3f	; 63
    2672:	f8 94       	cli
    2674:	de bf       	out	0x3e, r29	; 62
    2676:	0f be       	out	0x3f, r0	; 63
    2678:	cd bf       	out	0x3d, r28	; 61
	
	rot_left();
    267a:	0e 94 14 12 	call	0x2428	; 0x2428 <rot_left>
	velocity(vth, vth);
    267e:	86 e9       	ldi	r24, 0x96	; 150
    2680:	66 e9       	ldi	r22, 0x96	; 150
    2682:	0e 94 63 0a 	call	0x14c6	; 0x14c6 <velocity>
    2686:	80 e0       	ldi	r24, 0x00	; 0
    2688:	90 e0       	ldi	r25, 0x00	; 0
    268a:	aa ef       	ldi	r26, 0xFA	; 250
    268c:	b3 e4       	ldi	r27, 0x43	; 67
    268e:	8b 87       	std	Y+11, r24	; 0x0b
    2690:	9c 87       	std	Y+12, r25	; 0x0c
    2692:	ad 87       	std	Y+13, r26	; 0x0d
    2694:	be 87       	std	Y+14, r27	; 0x0e
 */
void
_delay_ms(double __ms)
{
	uint16_t __ticks;
	double __tmp = ((F_CPU) / 4e3) * __ms;
    2696:	6b 85       	ldd	r22, Y+11	; 0x0b
    2698:	7c 85       	ldd	r23, Y+12	; 0x0c
    269a:	8d 85       	ldd	r24, Y+13	; 0x0d
    269c:	9e 85       	ldd	r25, Y+14	; 0x0e
    269e:	26 e6       	ldi	r18, 0x66	; 102
    26a0:	36 e6       	ldi	r19, 0x66	; 102
    26a2:	46 e6       	ldi	r20, 0x66	; 102
    26a4:	55 e4       	ldi	r21, 0x45	; 69
    26a6:	0e 94 30 21 	call	0x4260	; 0x4260 <__mulsf3>
    26aa:	dc 01       	movw	r26, r24
    26ac:	cb 01       	movw	r24, r22
    26ae:	8f 83       	std	Y+7, r24	; 0x07
    26b0:	98 87       	std	Y+8, r25	; 0x08
    26b2:	a9 87       	std	Y+9, r26	; 0x09
    26b4:	ba 87       	std	Y+10, r27	; 0x0a
	if (__tmp < 1.0)
    26b6:	6f 81       	ldd	r22, Y+7	; 0x07
    26b8:	78 85       	ldd	r23, Y+8	; 0x08
    26ba:	89 85       	ldd	r24, Y+9	; 0x09
    26bc:	9a 85       	ldd	r25, Y+10	; 0x0a
    26be:	20 e0       	ldi	r18, 0x00	; 0
    26c0:	30 e0       	ldi	r19, 0x00	; 0
    26c2:	40 e8       	ldi	r20, 0x80	; 128
    26c4:	5f e3       	ldi	r21, 0x3F	; 63
    26c6:	0e 94 36 23 	call	0x466c	; 0x466c <__ltsf2>
    26ca:	88 23       	and	r24, r24
    26cc:	2c f4       	brge	.+10     	; 0x26d8 <rotate_left_901+0x72>
		__ticks = 1;
    26ce:	81 e0       	ldi	r24, 0x01	; 1
    26d0:	90 e0       	ldi	r25, 0x00	; 0
    26d2:	9e 83       	std	Y+6, r25	; 0x06
    26d4:	8d 83       	std	Y+5, r24	; 0x05
    26d6:	3f c0       	rjmp	.+126    	; 0x2756 <rotate_left_901+0xf0>
	else if (__tmp > 65535)
    26d8:	6f 81       	ldd	r22, Y+7	; 0x07
    26da:	78 85       	ldd	r23, Y+8	; 0x08
    26dc:	89 85       	ldd	r24, Y+9	; 0x09
    26de:	9a 85       	ldd	r25, Y+10	; 0x0a
    26e0:	20 e0       	ldi	r18, 0x00	; 0
    26e2:	3f ef       	ldi	r19, 0xFF	; 255
    26e4:	4f e7       	ldi	r20, 0x7F	; 127
    26e6:	57 e4       	ldi	r21, 0x47	; 71
    26e8:	0e 94 d6 22 	call	0x45ac	; 0x45ac <__gtsf2>
    26ec:	18 16       	cp	r1, r24
    26ee:	4c f5       	brge	.+82     	; 0x2742 <rotate_left_901+0xdc>
	{
		//	__ticks = requested delay in 1/10 ms
		__ticks = (uint16_t) (__ms * 10.0);
    26f0:	6b 85       	ldd	r22, Y+11	; 0x0b
    26f2:	7c 85       	ldd	r23, Y+12	; 0x0c
    26f4:	8d 85       	ldd	r24, Y+13	; 0x0d
    26f6:	9e 85       	ldd	r25, Y+14	; 0x0e
    26f8:	20 e0       	ldi	r18, 0x00	; 0
    26fa:	30 e0       	ldi	r19, 0x00	; 0
    26fc:	40 e2       	ldi	r20, 0x20	; 32
    26fe:	51 e4       	ldi	r21, 0x41	; 65
    2700:	0e 94 30 21 	call	0x4260	; 0x4260 <__mulsf3>
    2704:	dc 01       	movw	r26, r24
    2706:	cb 01       	movw	r24, r22
    2708:	bc 01       	movw	r22, r24
    270a:	cd 01       	movw	r24, r26
    270c:	0e 94 5a 1f 	call	0x3eb4	; 0x3eb4 <__fixunssfsi>
    2710:	dc 01       	movw	r26, r24
    2712:	cb 01       	movw	r24, r22
    2714:	9e 83       	std	Y+6, r25	; 0x06
    2716:	8d 83       	std	Y+5, r24	; 0x05
    2718:	0f c0       	rjmp	.+30     	; 0x2738 <rotate_left_901+0xd2>
    271a:	80 e7       	ldi	r24, 0x70	; 112
    271c:	91 e0       	ldi	r25, 0x01	; 1
    271e:	9c 83       	std	Y+4, r25	; 0x04
    2720:	8b 83       	std	Y+3, r24	; 0x03
    2722:	8b 81       	ldd	r24, Y+3	; 0x03
    2724:	9c 81       	ldd	r25, Y+4	; 0x04
    2726:	01 97       	sbiw	r24, 0x01	; 1
    2728:	f1 f7       	brne	.-4      	; 0x2726 <rotate_left_901+0xc0>
    272a:	9c 83       	std	Y+4, r25	; 0x04
    272c:	8b 83       	std	Y+3, r24	; 0x03
		while(__ticks)
		{
			// wait 1/10 ms
			_delay_loop_2(((F_CPU) / 4e3) / 10);
			__ticks --;
    272e:	8d 81       	ldd	r24, Y+5	; 0x05
    2730:	9e 81       	ldd	r25, Y+6	; 0x06
    2732:	01 97       	sbiw	r24, 0x01	; 1
    2734:	9e 83       	std	Y+6, r25	; 0x06
    2736:	8d 83       	std	Y+5, r24	; 0x05
		__ticks = 1;
	else if (__tmp > 65535)
	{
		//	__ticks = requested delay in 1/10 ms
		__ticks = (uint16_t) (__ms * 10.0);
		while(__ticks)
    2738:	8d 81       	ldd	r24, Y+5	; 0x05
    273a:	9e 81       	ldd	r25, Y+6	; 0x06
    273c:	00 97       	sbiw	r24, 0x00	; 0
    273e:	69 f7       	brne	.-38     	; 0x271a <rotate_left_901+0xb4>
    2740:	14 c0       	rjmp	.+40     	; 0x276a <rotate_left_901+0x104>
			__ticks --;
		}
		return;
	}
	else
		__ticks = (uint16_t)__tmp;
    2742:	6f 81       	ldd	r22, Y+7	; 0x07
    2744:	78 85       	ldd	r23, Y+8	; 0x08
    2746:	89 85       	ldd	r24, Y+9	; 0x09
    2748:	9a 85       	ldd	r25, Y+10	; 0x0a
    274a:	0e 94 5a 1f 	call	0x3eb4	; 0x3eb4 <__fixunssfsi>
    274e:	dc 01       	movw	r26, r24
    2750:	cb 01       	movw	r24, r22
    2752:	9e 83       	std	Y+6, r25	; 0x06
    2754:	8d 83       	std	Y+5, r24	; 0x05
    2756:	8d 81       	ldd	r24, Y+5	; 0x05
    2758:	9e 81       	ldd	r25, Y+6	; 0x06
    275a:	9a 83       	std	Y+2, r25	; 0x02
    275c:	89 83       	std	Y+1, r24	; 0x01
    275e:	89 81       	ldd	r24, Y+1	; 0x01
    2760:	9a 81       	ldd	r25, Y+2	; 0x02
    2762:	01 97       	sbiw	r24, 0x01	; 1
    2764:	f1 f7       	brne	.-4      	; 0x2762 <rotate_left_901+0xfc>
    2766:	9a 83       	std	Y+2, r25	; 0x02
    2768:	89 83       	std	Y+1, r24	; 0x01
	_delay_ms(500);
	if(mid_wl()<wlth)
    276a:	0e 94 63 12 	call	0x24c6	; 0x24c6 <mid_wl>
    276e:	88 32       	cpi	r24, 0x28	; 40
    2770:	b0 f4       	brcc	.+44     	; 0x279e <rotate_left_901+0x138>
	{	
		if(left_wl()>wlth)
    2772:	0e 94 59 12 	call	0x24b2	; 0x24b2 <left_wl>
    2776:	89 32       	cpi	r24, 0x29	; 41
    2778:	68 f0       	brcs	.+26     	; 0x2794 <rotate_left_901+0x12e>
		{
			while(mid_wl()<wlth);
    277a:	0e 94 63 12 	call	0x24c6	; 0x24c6 <mid_wl>
    277e:	88 32       	cpi	r24, 0x28	; 40
    2780:	e0 f3       	brcs	.-8      	; 0x277a <rotate_left_901+0x114>
			while(mid_wl()>wlth);
    2782:	0e 94 63 12 	call	0x24c6	; 0x24c6 <mid_wl>
    2786:	89 32       	cpi	r24, 0x29	; 41
    2788:	e0 f7       	brcc	.-8      	; 0x2782 <rotate_left_901+0x11c>
			while(mid_wl()<wlth);
    278a:	0e 94 63 12 	call	0x24c6	; 0x24c6 <mid_wl>
    278e:	88 32       	cpi	r24, 0x28	; 40
    2790:	e0 f3       	brcs	.-8      	; 0x278a <rotate_left_901+0x124>
    2792:	11 c0       	rjmp	.+34     	; 0x27b6 <rotate_left_901+0x150>
			//while(right_wl()<wlth);
		}
		else
		{
			while(mid_wl()<wlth);
    2794:	0e 94 63 12 	call	0x24c6	; 0x24c6 <mid_wl>
    2798:	88 32       	cpi	r24, 0x28	; 40
    279a:	e0 f3       	brcs	.-8      	; 0x2794 <rotate_left_901+0x12e>
    279c:	0c c0       	rjmp	.+24     	; 0x27b6 <rotate_left_901+0x150>
			//while(right_wl()<wlth);
		}	

	}
	else if(mid_wl()>wlth)
    279e:	0e 94 63 12 	call	0x24c6	; 0x24c6 <mid_wl>
    27a2:	89 32       	cpi	r24, 0x29	; 41
    27a4:	40 f0       	brcs	.+16     	; 0x27b6 <rotate_left_901+0x150>
	{
		while(mid_wl()>wlth);
    27a6:	0e 94 63 12 	call	0x24c6	; 0x24c6 <mid_wl>
    27aa:	89 32       	cpi	r24, 0x29	; 41
    27ac:	e0 f7       	brcc	.-8      	; 0x27a6 <rotate_left_901+0x140>
		while(mid_wl()<wlth);
    27ae:	0e 94 63 12 	call	0x24c6	; 0x24c6 <mid_wl>
    27b2:	88 32       	cpi	r24, 0x28	; 40
    27b4:	e0 f3       	brcs	.-8      	; 0x27ae <rotate_left_901+0x148>
		//while(right_wl()<wlth);
	}
	//while((mid_wl() < wlth) && (left_wl() < wlth));
	//while((mid_wl()<wlth) && (left_wl()>wlth);
	stop();
    27b6:	0e 94 00 12 	call	0x2400	; 0x2400 <stop>
	r = 1;
    27ba:	81 e0       	ldi	r24, 0x01	; 1
    27bc:	80 93 43 04 	sts	0x0443, r24
	l = 0;
    27c0:	10 92 42 04 	sts	0x0442, r1
	
}
    27c4:	2e 96       	adiw	r28, 0x0e	; 14
    27c6:	0f b6       	in	r0, 0x3f	; 63
    27c8:	f8 94       	cli
    27ca:	de bf       	out	0x3e, r29	; 62
    27cc:	0f be       	out	0x3f, r0	; 63
    27ce:	cd bf       	out	0x3d, r28	; 61
    27d0:	cf 91       	pop	r28
    27d2:	df 91       	pop	r29
    27d4:	08 95       	ret

000027d6 <rotate_180>:

void rotate_180()
{
    27d6:	df 93       	push	r29
    27d8:	cf 93       	push	r28
    27da:	cd b7       	in	r28, 0x3d	; 61
    27dc:	de b7       	in	r29, 0x3e	; 62
    27de:	2e 97       	sbiw	r28, 0x0e	; 14
    27e0:	0f b6       	in	r0, 0x3f	; 63
    27e2:	f8 94       	cli
    27e4:	de bf       	out	0x3e, r29	; 62
    27e6:	0f be       	out	0x3f, r0	; 63
    27e8:	cd bf       	out	0x3d, r28	; 61
	rot_left();
    27ea:	0e 94 14 12 	call	0x2428	; 0x2428 <rot_left>
	velocity(vth, vth);
    27ee:	86 e9       	ldi	r24, 0x96	; 150
    27f0:	66 e9       	ldi	r22, 0x96	; 150
    27f2:	0e 94 63 0a 	call	0x14c6	; 0x14c6 <velocity>
    27f6:	80 e0       	ldi	r24, 0x00	; 0
    27f8:	90 e0       	ldi	r25, 0x00	; 0
    27fa:	aa ef       	ldi	r26, 0xFA	; 250
    27fc:	b3 e4       	ldi	r27, 0x43	; 67
    27fe:	8b 87       	std	Y+11, r24	; 0x0b
    2800:	9c 87       	std	Y+12, r25	; 0x0c
    2802:	ad 87       	std	Y+13, r26	; 0x0d
    2804:	be 87       	std	Y+14, r27	; 0x0e
 */
void
_delay_ms(double __ms)
{
	uint16_t __ticks;
	double __tmp = ((F_CPU) / 4e3) * __ms;
    2806:	6b 85       	ldd	r22, Y+11	; 0x0b
    2808:	7c 85       	ldd	r23, Y+12	; 0x0c
    280a:	8d 85       	ldd	r24, Y+13	; 0x0d
    280c:	9e 85       	ldd	r25, Y+14	; 0x0e
    280e:	26 e6       	ldi	r18, 0x66	; 102
    2810:	36 e6       	ldi	r19, 0x66	; 102
    2812:	46 e6       	ldi	r20, 0x66	; 102
    2814:	55 e4       	ldi	r21, 0x45	; 69
    2816:	0e 94 30 21 	call	0x4260	; 0x4260 <__mulsf3>
    281a:	dc 01       	movw	r26, r24
    281c:	cb 01       	movw	r24, r22
    281e:	8f 83       	std	Y+7, r24	; 0x07
    2820:	98 87       	std	Y+8, r25	; 0x08
    2822:	a9 87       	std	Y+9, r26	; 0x09
    2824:	ba 87       	std	Y+10, r27	; 0x0a
	if (__tmp < 1.0)
    2826:	6f 81       	ldd	r22, Y+7	; 0x07
    2828:	78 85       	ldd	r23, Y+8	; 0x08
    282a:	89 85       	ldd	r24, Y+9	; 0x09
    282c:	9a 85       	ldd	r25, Y+10	; 0x0a
    282e:	20 e0       	ldi	r18, 0x00	; 0
    2830:	30 e0       	ldi	r19, 0x00	; 0
    2832:	40 e8       	ldi	r20, 0x80	; 128
    2834:	5f e3       	ldi	r21, 0x3F	; 63
    2836:	0e 94 36 23 	call	0x466c	; 0x466c <__ltsf2>
    283a:	88 23       	and	r24, r24
    283c:	2c f4       	brge	.+10     	; 0x2848 <rotate_180+0x72>
		__ticks = 1;
    283e:	81 e0       	ldi	r24, 0x01	; 1
    2840:	90 e0       	ldi	r25, 0x00	; 0
    2842:	9e 83       	std	Y+6, r25	; 0x06
    2844:	8d 83       	std	Y+5, r24	; 0x05
    2846:	3f c0       	rjmp	.+126    	; 0x28c6 <rotate_180+0xf0>
	else if (__tmp > 65535)
    2848:	6f 81       	ldd	r22, Y+7	; 0x07
    284a:	78 85       	ldd	r23, Y+8	; 0x08
    284c:	89 85       	ldd	r24, Y+9	; 0x09
    284e:	9a 85       	ldd	r25, Y+10	; 0x0a
    2850:	20 e0       	ldi	r18, 0x00	; 0
    2852:	3f ef       	ldi	r19, 0xFF	; 255
    2854:	4f e7       	ldi	r20, 0x7F	; 127
    2856:	57 e4       	ldi	r21, 0x47	; 71
    2858:	0e 94 d6 22 	call	0x45ac	; 0x45ac <__gtsf2>
    285c:	18 16       	cp	r1, r24
    285e:	4c f5       	brge	.+82     	; 0x28b2 <rotate_180+0xdc>
	{
		//	__ticks = requested delay in 1/10 ms
		__ticks = (uint16_t) (__ms * 10.0);
    2860:	6b 85       	ldd	r22, Y+11	; 0x0b
    2862:	7c 85       	ldd	r23, Y+12	; 0x0c
    2864:	8d 85       	ldd	r24, Y+13	; 0x0d
    2866:	9e 85       	ldd	r25, Y+14	; 0x0e
    2868:	20 e0       	ldi	r18, 0x00	; 0
    286a:	30 e0       	ldi	r19, 0x00	; 0
    286c:	40 e2       	ldi	r20, 0x20	; 32
    286e:	51 e4       	ldi	r21, 0x41	; 65
    2870:	0e 94 30 21 	call	0x4260	; 0x4260 <__mulsf3>
    2874:	dc 01       	movw	r26, r24
    2876:	cb 01       	movw	r24, r22
    2878:	bc 01       	movw	r22, r24
    287a:	cd 01       	movw	r24, r26
    287c:	0e 94 5a 1f 	call	0x3eb4	; 0x3eb4 <__fixunssfsi>
    2880:	dc 01       	movw	r26, r24
    2882:	cb 01       	movw	r24, r22
    2884:	9e 83       	std	Y+6, r25	; 0x06
    2886:	8d 83       	std	Y+5, r24	; 0x05
    2888:	0f c0       	rjmp	.+30     	; 0x28a8 <rotate_180+0xd2>
    288a:	80 e7       	ldi	r24, 0x70	; 112
    288c:	91 e0       	ldi	r25, 0x01	; 1
    288e:	9c 83       	std	Y+4, r25	; 0x04
    2890:	8b 83       	std	Y+3, r24	; 0x03
    2892:	8b 81       	ldd	r24, Y+3	; 0x03
    2894:	9c 81       	ldd	r25, Y+4	; 0x04
    2896:	01 97       	sbiw	r24, 0x01	; 1
    2898:	f1 f7       	brne	.-4      	; 0x2896 <rotate_180+0xc0>
    289a:	9c 83       	std	Y+4, r25	; 0x04
    289c:	8b 83       	std	Y+3, r24	; 0x03
		while(__ticks)
		{
			// wait 1/10 ms
			_delay_loop_2(((F_CPU) / 4e3) / 10);
			__ticks --;
    289e:	8d 81       	ldd	r24, Y+5	; 0x05
    28a0:	9e 81       	ldd	r25, Y+6	; 0x06
    28a2:	01 97       	sbiw	r24, 0x01	; 1
    28a4:	9e 83       	std	Y+6, r25	; 0x06
    28a6:	8d 83       	std	Y+5, r24	; 0x05
		__ticks = 1;
	else if (__tmp > 65535)
	{
		//	__ticks = requested delay in 1/10 ms
		__ticks = (uint16_t) (__ms * 10.0);
		while(__ticks)
    28a8:	8d 81       	ldd	r24, Y+5	; 0x05
    28aa:	9e 81       	ldd	r25, Y+6	; 0x06
    28ac:	00 97       	sbiw	r24, 0x00	; 0
    28ae:	69 f7       	brne	.-38     	; 0x288a <rotate_180+0xb4>
    28b0:	14 c0       	rjmp	.+40     	; 0x28da <rotate_180+0x104>
			__ticks --;
		}
		return;
	}
	else
		__ticks = (uint16_t)__tmp;
    28b2:	6f 81       	ldd	r22, Y+7	; 0x07
    28b4:	78 85       	ldd	r23, Y+8	; 0x08
    28b6:	89 85       	ldd	r24, Y+9	; 0x09
    28b8:	9a 85       	ldd	r25, Y+10	; 0x0a
    28ba:	0e 94 5a 1f 	call	0x3eb4	; 0x3eb4 <__fixunssfsi>
    28be:	dc 01       	movw	r26, r24
    28c0:	cb 01       	movw	r24, r22
    28c2:	9e 83       	std	Y+6, r25	; 0x06
    28c4:	8d 83       	std	Y+5, r24	; 0x05
    28c6:	8d 81       	ldd	r24, Y+5	; 0x05
    28c8:	9e 81       	ldd	r25, Y+6	; 0x06
    28ca:	9a 83       	std	Y+2, r25	; 0x02
    28cc:	89 83       	std	Y+1, r24	; 0x01
    28ce:	89 81       	ldd	r24, Y+1	; 0x01
    28d0:	9a 81       	ldd	r25, Y+2	; 0x02
    28d2:	01 97       	sbiw	r24, 0x01	; 1
    28d4:	f1 f7       	brne	.-4      	; 0x28d2 <rotate_180+0xfc>
    28d6:	9a 83       	std	Y+2, r25	; 0x02
    28d8:	89 83       	std	Y+1, r24	; 0x01
	_delay_ms(500);
	if(mid_wl()<wlth)
    28da:	0e 94 63 12 	call	0x24c6	; 0x24c6 <mid_wl>
    28de:	88 32       	cpi	r24, 0x28	; 40
    28e0:	48 f4       	brcc	.+18     	; 0x28f4 <rotate_180+0x11e>
	{	
		while(mid_wl()<wlth);
    28e2:	0e 94 63 12 	call	0x24c6	; 0x24c6 <mid_wl>
    28e6:	88 32       	cpi	r24, 0x28	; 40
    28e8:	e0 f3       	brcs	.-8      	; 0x28e2 <rotate_180+0x10c>
		while(mid_wl()>wlth);
    28ea:	0e 94 63 12 	call	0x24c6	; 0x24c6 <mid_wl>
    28ee:	89 32       	cpi	r24, 0x29	; 41
    28f0:	e0 f7       	brcc	.-8      	; 0x28ea <rotate_180+0x114>
    28f2:	0c c0       	rjmp	.+24     	; 0x290c <rotate_180+0x136>
		
	}
	else if(mid_wl()>wlth)
    28f4:	0e 94 63 12 	call	0x24c6	; 0x24c6 <mid_wl>
    28f8:	89 32       	cpi	r24, 0x29	; 41
    28fa:	40 f0       	brcs	.+16     	; 0x290c <rotate_180+0x136>
	{
		while(mid_wl()>wlth);
    28fc:	0e 94 63 12 	call	0x24c6	; 0x24c6 <mid_wl>
    2900:	89 32       	cpi	r24, 0x29	; 41
    2902:	e0 f7       	brcc	.-8      	; 0x28fc <rotate_180+0x126>
		while(mid_wl()<wlth);
    2904:	0e 94 63 12 	call	0x24c6	; 0x24c6 <mid_wl>
    2908:	88 32       	cpi	r24, 0x28	; 40
    290a:	e0 f3       	brcs	.-8      	; 0x2904 <rotate_180+0x12e>
	}
	stop();
    290c:	0e 94 00 12 	call	0x2400	; 0x2400 <stop>
}
    2910:	2e 96       	adiw	r28, 0x0e	; 14
    2912:	0f b6       	in	r0, 0x3f	; 63
    2914:	f8 94       	cli
    2916:	de bf       	out	0x3e, r29	; 62
    2918:	0f be       	out	0x3f, r0	; 63
    291a:	cd bf       	out	0x3d, r28	; 61
    291c:	cf 91       	pop	r28
    291e:	df 91       	pop	r29
    2920:	08 95       	ret

00002922 <detect_node>:


void detect_node()
{
    2922:	df 93       	push	r29
    2924:	cf 93       	push	r28
    2926:	cd b7       	in	r28, 0x3d	; 61
    2928:	de b7       	in	r29, 0x3e	; 62
	rot_left();
    292a:	0e 94 14 12 	call	0x2428	; 0x2428 <rot_left>
	velocity(vth, vth);
    292e:	86 e9       	ldi	r24, 0x96	; 150
    2930:	66 e9       	ldi	r22, 0x96	; 150
    2932:	0e 94 63 0a 	call	0x14c6	; 0x14c6 <velocity>
	while(!((left_wl()>wlth) && (mid_wl()>wlth) )|| ((mid_wl()>wlth) && (right_wl()>wlth) ) || ((left_wl()>wlth) && (right_wl()>wlth) ) ||((left_wl()>wlth) && (mid_wl()>wlth) && (right_wl()>wlth)));
    2936:	0e 94 59 12 	call	0x24b2	; 0x24b2 <left_wl>
    293a:	89 32       	cpi	r24, 0x29	; 41
    293c:	e0 f3       	brcs	.-8      	; 0x2936 <detect_node+0x14>
    293e:	0e 94 63 12 	call	0x24c6	; 0x24c6 <mid_wl>
    2942:	89 32       	cpi	r24, 0x29	; 41
    2944:	c0 f3       	brcs	.-16     	; 0x2936 <detect_node+0x14>
    2946:	0e 94 63 12 	call	0x24c6	; 0x24c6 <mid_wl>
    294a:	89 32       	cpi	r24, 0x29	; 41
    294c:	20 f0       	brcs	.+8      	; 0x2956 <detect_node+0x34>
    294e:	0e 94 6d 12 	call	0x24da	; 0x24da <right_wl>
    2952:	89 32       	cpi	r24, 0x29	; 41
    2954:	80 f7       	brcc	.-32     	; 0x2936 <detect_node+0x14>
    2956:	0e 94 59 12 	call	0x24b2	; 0x24b2 <left_wl>
    295a:	89 32       	cpi	r24, 0x29	; 41
    295c:	20 f0       	brcs	.+8      	; 0x2966 <detect_node+0x44>
    295e:	0e 94 6d 12 	call	0x24da	; 0x24da <right_wl>
    2962:	89 32       	cpi	r24, 0x29	; 41
    2964:	40 f7       	brcc	.-48     	; 0x2936 <detect_node+0x14>
    2966:	0e 94 59 12 	call	0x24b2	; 0x24b2 <left_wl>
    296a:	89 32       	cpi	r24, 0x29	; 41
    296c:	40 f0       	brcs	.+16     	; 0x297e <detect_node+0x5c>
    296e:	0e 94 63 12 	call	0x24c6	; 0x24c6 <mid_wl>
    2972:	89 32       	cpi	r24, 0x29	; 41
    2974:	20 f0       	brcs	.+8      	; 0x297e <detect_node+0x5c>
    2976:	0e 94 6d 12 	call	0x24da	; 0x24da <right_wl>
    297a:	89 32       	cpi	r24, 0x29	; 41
    297c:	e0 f6       	brcc	.-72     	; 0x2936 <detect_node+0x14>
	stop();
    297e:	0e 94 00 12 	call	0x2400	; 0x2400 <stop>
}
    2982:	cf 91       	pop	r28
    2984:	df 91       	pop	r29
    2986:	08 95       	ret

00002988 <rotate_right_90>:
void rotate_right_90()
{  rot_right();
    2988:	df 93       	push	r29
    298a:	cf 93       	push	r28
    298c:	cd b7       	in	r28, 0x3d	; 61
    298e:	de b7       	in	r29, 0x3e	; 62
    2990:	60 97       	sbiw	r28, 0x10	; 16
    2992:	0f b6       	in	r0, 0x3f	; 63
    2994:	f8 94       	cli
    2996:	de bf       	out	0x3e, r29	; 62
    2998:	0f be       	out	0x3f, r0	; 63
    299a:	cd bf       	out	0x3d, r28	; 61
    299c:	0e 94 1e 12 	call	0x243c	; 0x243c <rot_right>
	velocity(240, 240);
    29a0:	80 ef       	ldi	r24, 0xF0	; 240
    29a2:	60 ef       	ldi	r22, 0xF0	; 240
    29a4:	0e 94 63 0a 	call	0x14c6	; 0x14c6 <velocity>
    29a8:	80 e0       	ldi	r24, 0x00	; 0
    29aa:	90 e0       	ldi	r25, 0x00	; 0
    29ac:	a6 e9       	ldi	r26, 0x96	; 150
    29ae:	b3 e4       	ldi	r27, 0x43	; 67
    29b0:	8b 87       	std	Y+11, r24	; 0x0b
    29b2:	9c 87       	std	Y+12, r25	; 0x0c
    29b4:	ad 87       	std	Y+13, r26	; 0x0d
    29b6:	be 87       	std	Y+14, r27	; 0x0e
 */
void
_delay_ms(double __ms)
{
	uint16_t __ticks;
	double __tmp = ((F_CPU) / 4e3) * __ms;
    29b8:	6b 85       	ldd	r22, Y+11	; 0x0b
    29ba:	7c 85       	ldd	r23, Y+12	; 0x0c
    29bc:	8d 85       	ldd	r24, Y+13	; 0x0d
    29be:	9e 85       	ldd	r25, Y+14	; 0x0e
    29c0:	26 e6       	ldi	r18, 0x66	; 102
    29c2:	36 e6       	ldi	r19, 0x66	; 102
    29c4:	46 e6       	ldi	r20, 0x66	; 102
    29c6:	55 e4       	ldi	r21, 0x45	; 69
    29c8:	0e 94 30 21 	call	0x4260	; 0x4260 <__mulsf3>
    29cc:	dc 01       	movw	r26, r24
    29ce:	cb 01       	movw	r24, r22
    29d0:	8f 83       	std	Y+7, r24	; 0x07
    29d2:	98 87       	std	Y+8, r25	; 0x08
    29d4:	a9 87       	std	Y+9, r26	; 0x09
    29d6:	ba 87       	std	Y+10, r27	; 0x0a
	if (__tmp < 1.0)
    29d8:	6f 81       	ldd	r22, Y+7	; 0x07
    29da:	78 85       	ldd	r23, Y+8	; 0x08
    29dc:	89 85       	ldd	r24, Y+9	; 0x09
    29de:	9a 85       	ldd	r25, Y+10	; 0x0a
    29e0:	20 e0       	ldi	r18, 0x00	; 0
    29e2:	30 e0       	ldi	r19, 0x00	; 0
    29e4:	40 e8       	ldi	r20, 0x80	; 128
    29e6:	5f e3       	ldi	r21, 0x3F	; 63
    29e8:	0e 94 36 23 	call	0x466c	; 0x466c <__ltsf2>
    29ec:	88 23       	and	r24, r24
    29ee:	2c f4       	brge	.+10     	; 0x29fa <rotate_right_90+0x72>
		__ticks = 1;
    29f0:	81 e0       	ldi	r24, 0x01	; 1
    29f2:	90 e0       	ldi	r25, 0x00	; 0
    29f4:	9e 83       	std	Y+6, r25	; 0x06
    29f6:	8d 83       	std	Y+5, r24	; 0x05
    29f8:	3f c0       	rjmp	.+126    	; 0x2a78 <rotate_right_90+0xf0>
	else if (__tmp > 65535)
    29fa:	6f 81       	ldd	r22, Y+7	; 0x07
    29fc:	78 85       	ldd	r23, Y+8	; 0x08
    29fe:	89 85       	ldd	r24, Y+9	; 0x09
    2a00:	9a 85       	ldd	r25, Y+10	; 0x0a
    2a02:	20 e0       	ldi	r18, 0x00	; 0
    2a04:	3f ef       	ldi	r19, 0xFF	; 255
    2a06:	4f e7       	ldi	r20, 0x7F	; 127
    2a08:	57 e4       	ldi	r21, 0x47	; 71
    2a0a:	0e 94 d6 22 	call	0x45ac	; 0x45ac <__gtsf2>
    2a0e:	18 16       	cp	r1, r24
    2a10:	4c f5       	brge	.+82     	; 0x2a64 <rotate_right_90+0xdc>
	{
		//	__ticks = requested delay in 1/10 ms
		__ticks = (uint16_t) (__ms * 10.0);
    2a12:	6b 85       	ldd	r22, Y+11	; 0x0b
    2a14:	7c 85       	ldd	r23, Y+12	; 0x0c
    2a16:	8d 85       	ldd	r24, Y+13	; 0x0d
    2a18:	9e 85       	ldd	r25, Y+14	; 0x0e
    2a1a:	20 e0       	ldi	r18, 0x00	; 0
    2a1c:	30 e0       	ldi	r19, 0x00	; 0
    2a1e:	40 e2       	ldi	r20, 0x20	; 32
    2a20:	51 e4       	ldi	r21, 0x41	; 65
    2a22:	0e 94 30 21 	call	0x4260	; 0x4260 <__mulsf3>
    2a26:	dc 01       	movw	r26, r24
    2a28:	cb 01       	movw	r24, r22
    2a2a:	bc 01       	movw	r22, r24
    2a2c:	cd 01       	movw	r24, r26
    2a2e:	0e 94 5a 1f 	call	0x3eb4	; 0x3eb4 <__fixunssfsi>
    2a32:	dc 01       	movw	r26, r24
    2a34:	cb 01       	movw	r24, r22
    2a36:	9e 83       	std	Y+6, r25	; 0x06
    2a38:	8d 83       	std	Y+5, r24	; 0x05
    2a3a:	0f c0       	rjmp	.+30     	; 0x2a5a <rotate_right_90+0xd2>
    2a3c:	80 e7       	ldi	r24, 0x70	; 112
    2a3e:	91 e0       	ldi	r25, 0x01	; 1
    2a40:	9c 83       	std	Y+4, r25	; 0x04
    2a42:	8b 83       	std	Y+3, r24	; 0x03
    2a44:	8b 81       	ldd	r24, Y+3	; 0x03
    2a46:	9c 81       	ldd	r25, Y+4	; 0x04
    2a48:	01 97       	sbiw	r24, 0x01	; 1
    2a4a:	f1 f7       	brne	.-4      	; 0x2a48 <rotate_right_90+0xc0>
    2a4c:	9c 83       	std	Y+4, r25	; 0x04
    2a4e:	8b 83       	std	Y+3, r24	; 0x03
		while(__ticks)
		{
			// wait 1/10 ms
			_delay_loop_2(((F_CPU) / 4e3) / 10);
			__ticks --;
    2a50:	8d 81       	ldd	r24, Y+5	; 0x05
    2a52:	9e 81       	ldd	r25, Y+6	; 0x06
    2a54:	01 97       	sbiw	r24, 0x01	; 1
    2a56:	9e 83       	std	Y+6, r25	; 0x06
    2a58:	8d 83       	std	Y+5, r24	; 0x05
		__ticks = 1;
	else if (__tmp > 65535)
	{
		//	__ticks = requested delay in 1/10 ms
		__ticks = (uint16_t) (__ms * 10.0);
		while(__ticks)
    2a5a:	8d 81       	ldd	r24, Y+5	; 0x05
    2a5c:	9e 81       	ldd	r25, Y+6	; 0x06
    2a5e:	00 97       	sbiw	r24, 0x00	; 0
    2a60:	69 f7       	brne	.-38     	; 0x2a3c <rotate_right_90+0xb4>
    2a62:	14 c0       	rjmp	.+40     	; 0x2a8c <rotate_right_90+0x104>
			__ticks --;
		}
		return;
	}
	else
		__ticks = (uint16_t)__tmp;
    2a64:	6f 81       	ldd	r22, Y+7	; 0x07
    2a66:	78 85       	ldd	r23, Y+8	; 0x08
    2a68:	89 85       	ldd	r24, Y+9	; 0x09
    2a6a:	9a 85       	ldd	r25, Y+10	; 0x0a
    2a6c:	0e 94 5a 1f 	call	0x3eb4	; 0x3eb4 <__fixunssfsi>
    2a70:	dc 01       	movw	r26, r24
    2a72:	cb 01       	movw	r24, r22
    2a74:	9e 83       	std	Y+6, r25	; 0x06
    2a76:	8d 83       	std	Y+5, r24	; 0x05
    2a78:	8d 81       	ldd	r24, Y+5	; 0x05
    2a7a:	9e 81       	ldd	r25, Y+6	; 0x06
    2a7c:	9a 83       	std	Y+2, r25	; 0x02
    2a7e:	89 83       	std	Y+1, r24	; 0x01
    2a80:	89 81       	ldd	r24, Y+1	; 0x01
    2a82:	9a 81       	ldd	r25, Y+2	; 0x02
    2a84:	01 97       	sbiw	r24, 0x01	; 1
    2a86:	f1 f7       	brne	.-4      	; 0x2a84 <rotate_right_90+0xfc>
    2a88:	9a 83       	std	Y+2, r25	; 0x02
    2a8a:	89 83       	std	Y+1, r24	; 0x01
	_delay_ms(300);
 while(1)
   {
	
	if(mid_wl() < wlth)
    2a8c:	0e 94 63 12 	call	0x24c6	; 0x24c6 <mid_wl>
    2a90:	88 32       	cpi	r24, 0x28	; 40
    2a92:	38 f4       	brcc	.+14     	; 0x2aa2 <rotate_right_90+0x11a>
    {
	rot_right();
    2a94:	0e 94 1e 12 	call	0x243c	; 0x243c <rot_right>
	velocity(240, 240);
    2a98:	80 ef       	ldi	r24, 0xF0	; 240
    2a9a:	60 ef       	ldi	r22, 0xF0	; 240
    2a9c:	0e 94 63 0a 	call	0x14c6	; 0x14c6 <velocity>
    2aa0:	22 c0       	rjmp	.+68     	; 0x2ae6 <rotate_right_90+0x15e>
	
	}
	else if((mid_wl() > 20)|(left_wl()>20))
    2aa2:	0e 94 63 12 	call	0x24c6	; 0x24c6 <mid_wl>
    2aa6:	18 8a       	std	Y+16, r1	; 0x10
    2aa8:	85 31       	cpi	r24, 0x15	; 21
    2aaa:	10 f0       	brcs	.+4      	; 0x2ab0 <rotate_right_90+0x128>
    2aac:	81 e0       	ldi	r24, 0x01	; 1
    2aae:	88 8b       	std	Y+16, r24	; 0x10
    2ab0:	0e 94 59 12 	call	0x24b2	; 0x24b2 <left_wl>
    2ab4:	1f 86       	std	Y+15, r1	; 0x0f
    2ab6:	85 31       	cpi	r24, 0x15	; 21
    2ab8:	10 f0       	brcs	.+4      	; 0x2abe <rotate_right_90+0x136>
    2aba:	91 e0       	ldi	r25, 0x01	; 1
    2abc:	9f 87       	std	Y+15, r25	; 0x0f
    2abe:	88 89       	ldd	r24, Y+16	; 0x10
    2ac0:	9f 85       	ldd	r25, Y+15	; 0x0f
    2ac2:	89 2b       	or	r24, r25
    2ac4:	88 23       	and	r24, r24
    2ac6:	79 f0       	breq	.+30     	; 0x2ae6 <rotate_right_90+0x15e>
	{
	stop();
    2ac8:	0e 94 00 12 	call	0x2400	; 0x2400 <stop>
	buzzer_on(100);
    2acc:	84 e6       	ldi	r24, 0x64	; 100
    2ace:	90 e0       	ldi	r25, 0x00	; 0
    2ad0:	0e 94 14 11 	call	0x2228	; 0x2228 <buzzer_on>
	break;
	}
	l = 1;
	r = 0;
	}
}
    2ad4:	60 96       	adiw	r28, 0x10	; 16
    2ad6:	0f b6       	in	r0, 0x3f	; 63
    2ad8:	f8 94       	cli
    2ada:	de bf       	out	0x3e, r29	; 62
    2adc:	0f be       	out	0x3f, r0	; 63
    2ade:	cd bf       	out	0x3d, r28	; 61
    2ae0:	cf 91       	pop	r28
    2ae2:	df 91       	pop	r29
    2ae4:	08 95       	ret
	{
	stop();
	buzzer_on(100);
	break;
	}
	l = 1;
    2ae6:	81 e0       	ldi	r24, 0x01	; 1
    2ae8:	80 93 42 04 	sts	0x0442, r24
	r = 0;
    2aec:	10 92 43 04 	sts	0x0443, r1
    2af0:	cd cf       	rjmp	.-102    	; 0x2a8c <rotate_right_90+0x104>

00002af2 <rotate_left_90>:
	}
}

void rotate_left_90()
{	rot_left();
    2af2:	df 93       	push	r29
    2af4:	cf 93       	push	r28
    2af6:	cd b7       	in	r28, 0x3d	; 61
    2af8:	de b7       	in	r29, 0x3e	; 62
    2afa:	2e 97       	sbiw	r28, 0x0e	; 14
    2afc:	0f b6       	in	r0, 0x3f	; 63
    2afe:	f8 94       	cli
    2b00:	de bf       	out	0x3e, r29	; 62
    2b02:	0f be       	out	0x3f, r0	; 63
    2b04:	cd bf       	out	0x3d, r28	; 61
    2b06:	0e 94 14 12 	call	0x2428	; 0x2428 <rot_left>
	velocity(240, 240);
    2b0a:	80 ef       	ldi	r24, 0xF0	; 240
    2b0c:	60 ef       	ldi	r22, 0xF0	; 240
    2b0e:	0e 94 63 0a 	call	0x14c6	; 0x14c6 <velocity>
    2b12:	80 e0       	ldi	r24, 0x00	; 0
    2b14:	90 e0       	ldi	r25, 0x00	; 0
    2b16:	a6 e9       	ldi	r26, 0x96	; 150
    2b18:	b3 e4       	ldi	r27, 0x43	; 67
    2b1a:	8b 87       	std	Y+11, r24	; 0x0b
    2b1c:	9c 87       	std	Y+12, r25	; 0x0c
    2b1e:	ad 87       	std	Y+13, r26	; 0x0d
    2b20:	be 87       	std	Y+14, r27	; 0x0e
 */
void
_delay_ms(double __ms)
{
	uint16_t __ticks;
	double __tmp = ((F_CPU) / 4e3) * __ms;
    2b22:	6b 85       	ldd	r22, Y+11	; 0x0b
    2b24:	7c 85       	ldd	r23, Y+12	; 0x0c
    2b26:	8d 85       	ldd	r24, Y+13	; 0x0d
    2b28:	9e 85       	ldd	r25, Y+14	; 0x0e
    2b2a:	26 e6       	ldi	r18, 0x66	; 102
    2b2c:	36 e6       	ldi	r19, 0x66	; 102
    2b2e:	46 e6       	ldi	r20, 0x66	; 102
    2b30:	55 e4       	ldi	r21, 0x45	; 69
    2b32:	0e 94 30 21 	call	0x4260	; 0x4260 <__mulsf3>
    2b36:	dc 01       	movw	r26, r24
    2b38:	cb 01       	movw	r24, r22
    2b3a:	8f 83       	std	Y+7, r24	; 0x07
    2b3c:	98 87       	std	Y+8, r25	; 0x08
    2b3e:	a9 87       	std	Y+9, r26	; 0x09
    2b40:	ba 87       	std	Y+10, r27	; 0x0a
	if (__tmp < 1.0)
    2b42:	6f 81       	ldd	r22, Y+7	; 0x07
    2b44:	78 85       	ldd	r23, Y+8	; 0x08
    2b46:	89 85       	ldd	r24, Y+9	; 0x09
    2b48:	9a 85       	ldd	r25, Y+10	; 0x0a
    2b4a:	20 e0       	ldi	r18, 0x00	; 0
    2b4c:	30 e0       	ldi	r19, 0x00	; 0
    2b4e:	40 e8       	ldi	r20, 0x80	; 128
    2b50:	5f e3       	ldi	r21, 0x3F	; 63
    2b52:	0e 94 36 23 	call	0x466c	; 0x466c <__ltsf2>
    2b56:	88 23       	and	r24, r24
    2b58:	2c f4       	brge	.+10     	; 0x2b64 <rotate_left_90+0x72>
		__ticks = 1;
    2b5a:	81 e0       	ldi	r24, 0x01	; 1
    2b5c:	90 e0       	ldi	r25, 0x00	; 0
    2b5e:	9e 83       	std	Y+6, r25	; 0x06
    2b60:	8d 83       	std	Y+5, r24	; 0x05
    2b62:	3f c0       	rjmp	.+126    	; 0x2be2 <rotate_left_90+0xf0>
	else if (__tmp > 65535)
    2b64:	6f 81       	ldd	r22, Y+7	; 0x07
    2b66:	78 85       	ldd	r23, Y+8	; 0x08
    2b68:	89 85       	ldd	r24, Y+9	; 0x09
    2b6a:	9a 85       	ldd	r25, Y+10	; 0x0a
    2b6c:	20 e0       	ldi	r18, 0x00	; 0
    2b6e:	3f ef       	ldi	r19, 0xFF	; 255
    2b70:	4f e7       	ldi	r20, 0x7F	; 127
    2b72:	57 e4       	ldi	r21, 0x47	; 71
    2b74:	0e 94 d6 22 	call	0x45ac	; 0x45ac <__gtsf2>
    2b78:	18 16       	cp	r1, r24
    2b7a:	4c f5       	brge	.+82     	; 0x2bce <rotate_left_90+0xdc>
	{
		//	__ticks = requested delay in 1/10 ms
		__ticks = (uint16_t) (__ms * 10.0);
    2b7c:	6b 85       	ldd	r22, Y+11	; 0x0b
    2b7e:	7c 85       	ldd	r23, Y+12	; 0x0c
    2b80:	8d 85       	ldd	r24, Y+13	; 0x0d
    2b82:	9e 85       	ldd	r25, Y+14	; 0x0e
    2b84:	20 e0       	ldi	r18, 0x00	; 0
    2b86:	30 e0       	ldi	r19, 0x00	; 0
    2b88:	40 e2       	ldi	r20, 0x20	; 32
    2b8a:	51 e4       	ldi	r21, 0x41	; 65
    2b8c:	0e 94 30 21 	call	0x4260	; 0x4260 <__mulsf3>
    2b90:	dc 01       	movw	r26, r24
    2b92:	cb 01       	movw	r24, r22
    2b94:	bc 01       	movw	r22, r24
    2b96:	cd 01       	movw	r24, r26
    2b98:	0e 94 5a 1f 	call	0x3eb4	; 0x3eb4 <__fixunssfsi>
    2b9c:	dc 01       	movw	r26, r24
    2b9e:	cb 01       	movw	r24, r22
    2ba0:	9e 83       	std	Y+6, r25	; 0x06
    2ba2:	8d 83       	std	Y+5, r24	; 0x05
    2ba4:	0f c0       	rjmp	.+30     	; 0x2bc4 <rotate_left_90+0xd2>
    2ba6:	80 e7       	ldi	r24, 0x70	; 112
    2ba8:	91 e0       	ldi	r25, 0x01	; 1
    2baa:	9c 83       	std	Y+4, r25	; 0x04
    2bac:	8b 83       	std	Y+3, r24	; 0x03
    2bae:	8b 81       	ldd	r24, Y+3	; 0x03
    2bb0:	9c 81       	ldd	r25, Y+4	; 0x04
    2bb2:	01 97       	sbiw	r24, 0x01	; 1
    2bb4:	f1 f7       	brne	.-4      	; 0x2bb2 <rotate_left_90+0xc0>
    2bb6:	9c 83       	std	Y+4, r25	; 0x04
    2bb8:	8b 83       	std	Y+3, r24	; 0x03
		while(__ticks)
		{
			// wait 1/10 ms
			_delay_loop_2(((F_CPU) / 4e3) / 10);
			__ticks --;
    2bba:	8d 81       	ldd	r24, Y+5	; 0x05
    2bbc:	9e 81       	ldd	r25, Y+6	; 0x06
    2bbe:	01 97       	sbiw	r24, 0x01	; 1
    2bc0:	9e 83       	std	Y+6, r25	; 0x06
    2bc2:	8d 83       	std	Y+5, r24	; 0x05
		__ticks = 1;
	else if (__tmp > 65535)
	{
		//	__ticks = requested delay in 1/10 ms
		__ticks = (uint16_t) (__ms * 10.0);
		while(__ticks)
    2bc4:	8d 81       	ldd	r24, Y+5	; 0x05
    2bc6:	9e 81       	ldd	r25, Y+6	; 0x06
    2bc8:	00 97       	sbiw	r24, 0x00	; 0
    2bca:	69 f7       	brne	.-38     	; 0x2ba6 <rotate_left_90+0xb4>
    2bcc:	14 c0       	rjmp	.+40     	; 0x2bf6 <rotate_left_90+0x104>
			__ticks --;
		}
		return;
	}
	else
		__ticks = (uint16_t)__tmp;
    2bce:	6f 81       	ldd	r22, Y+7	; 0x07
    2bd0:	78 85       	ldd	r23, Y+8	; 0x08
    2bd2:	89 85       	ldd	r24, Y+9	; 0x09
    2bd4:	9a 85       	ldd	r25, Y+10	; 0x0a
    2bd6:	0e 94 5a 1f 	call	0x3eb4	; 0x3eb4 <__fixunssfsi>
    2bda:	dc 01       	movw	r26, r24
    2bdc:	cb 01       	movw	r24, r22
    2bde:	9e 83       	std	Y+6, r25	; 0x06
    2be0:	8d 83       	std	Y+5, r24	; 0x05
    2be2:	8d 81       	ldd	r24, Y+5	; 0x05
    2be4:	9e 81       	ldd	r25, Y+6	; 0x06
    2be6:	9a 83       	std	Y+2, r25	; 0x02
    2be8:	89 83       	std	Y+1, r24	; 0x01
    2bea:	89 81       	ldd	r24, Y+1	; 0x01
    2bec:	9a 81       	ldd	r25, Y+2	; 0x02
    2bee:	01 97       	sbiw	r24, 0x01	; 1
    2bf0:	f1 f7       	brne	.-4      	; 0x2bee <rotate_left_90+0xfc>
    2bf2:	9a 83       	std	Y+2, r25	; 0x02
    2bf4:	89 83       	std	Y+1, r24	; 0x01
	_delay_ms(300); 
	while(1)
	   {
		   
			if(mid_wl()  <wlth)
    2bf6:	0e 94 63 12 	call	0x24c6	; 0x24c6 <mid_wl>
    2bfa:	88 32       	cpi	r24, 0x28	; 40
    2bfc:	38 f4       	brcc	.+14     	; 0x2c0c <rotate_left_90+0x11a>
		    {
				rot_left();
    2bfe:	0e 94 14 12 	call	0x2428	; 0x2428 <rot_left>
				velocity(240, 240);
    2c02:	80 ef       	ldi	r24, 0xF0	; 240
    2c04:	60 ef       	ldi	r22, 0xF0	; 240
    2c06:	0e 94 63 0a 	call	0x14c6	; 0x14c6 <velocity>
    2c0a:	0f c0       	rjmp	.+30     	; 0x2c2a <rotate_left_90+0x138>
			}
		    else if((mid_wl()>wlth))
    2c0c:	0e 94 63 12 	call	0x24c6	; 0x24c6 <mid_wl>
    2c10:	89 32       	cpi	r24, 0x29	; 41
    2c12:	58 f0       	brcs	.+22     	; 0x2c2a <rotate_left_90+0x138>
			{
				stop();
    2c14:	0e 94 00 12 	call	0x2400	; 0x2400 <stop>
				break;
			}
			r = 1;
			l = 0;
		}
}
    2c18:	2e 96       	adiw	r28, 0x0e	; 14
    2c1a:	0f b6       	in	r0, 0x3f	; 63
    2c1c:	f8 94       	cli
    2c1e:	de bf       	out	0x3e, r29	; 62
    2c20:	0f be       	out	0x3f, r0	; 63
    2c22:	cd bf       	out	0x3d, r28	; 61
    2c24:	cf 91       	pop	r28
    2c26:	df 91       	pop	r29
    2c28:	08 95       	ret
			{
				stop();
			
				break;
			}
			r = 1;
    2c2a:	81 e0       	ldi	r24, 0x01	; 1
    2c2c:	80 93 43 04 	sts	0x0443, r24
			l = 0;
    2c30:	10 92 42 04 	sts	0x0442, r1
    2c34:	e0 cf       	rjmp	.-64     	; 0x2bf6 <rotate_left_90+0x104>

00002c36 <uart0_init>:
// desired baud rate:9600
// actual baud rate:9600 (error 0.0%)
// char size: 8 bit
// parity: Disabled
void uart0_init(void)
{
    2c36:	df 93       	push	r29
    2c38:	cf 93       	push	r28
    2c3a:	cd b7       	in	r28, 0x3d	; 61
    2c3c:	de b7       	in	r29, 0x3e	; 62
 UCSR0B = 0x00; //disable while setting baud rate
    2c3e:	e1 ec       	ldi	r30, 0xC1	; 193
    2c40:	f0 e0       	ldi	r31, 0x00	; 0
    2c42:	10 82       	st	Z, r1
 UCSR0A = 0x00;
    2c44:	e0 ec       	ldi	r30, 0xC0	; 192
    2c46:	f0 e0       	ldi	r31, 0x00	; 0
    2c48:	10 82       	st	Z, r1
 UCSR0C = 0x06;
    2c4a:	e2 ec       	ldi	r30, 0xC2	; 194
    2c4c:	f0 e0       	ldi	r31, 0x00	; 0
    2c4e:	86 e0       	ldi	r24, 0x06	; 6
    2c50:	80 83       	st	Z, r24
 UBRR0L = 0x5F; //set baud rate lo
    2c52:	e4 ec       	ldi	r30, 0xC4	; 196
    2c54:	f0 e0       	ldi	r31, 0x00	; 0
    2c56:	8f e5       	ldi	r24, 0x5F	; 95
    2c58:	80 83       	st	Z, r24
 UBRR0H = 0x00; //set baud rate hi
    2c5a:	e5 ec       	ldi	r30, 0xC5	; 197
    2c5c:	f0 e0       	ldi	r31, 0x00	; 0
    2c5e:	10 82       	st	Z, r1
 UCSR0B = 0x98;
    2c60:	e1 ec       	ldi	r30, 0xC1	; 193
    2c62:	f0 e0       	ldi	r31, 0x00	; 0
    2c64:	88 e9       	ldi	r24, 0x98	; 152
    2c66:	80 83       	st	Z, r24
}
    2c68:	cf 91       	pop	r28
    2c6a:	df 91       	pop	r29
    2c6c:	08 95       	ret

00002c6e <transmitByte>:


void transmitByte(uint8_t data) {
    2c6e:	df 93       	push	r29
    2c70:	cf 93       	push	r28
    2c72:	0f 92       	push	r0
    2c74:	cd b7       	in	r28, 0x3d	; 61
    2c76:	de b7       	in	r29, 0x3e	; 62
    2c78:	89 83       	std	Y+1, r24	; 0x01
                                     /* Wait for empty transmit buffer */
  loop_until_bit_is_set(UCSR0A, UDRE0);
    2c7a:	e0 ec       	ldi	r30, 0xC0	; 192
    2c7c:	f0 e0       	ldi	r31, 0x00	; 0
    2c7e:	80 81       	ld	r24, Z
    2c80:	88 2f       	mov	r24, r24
    2c82:	90 e0       	ldi	r25, 0x00	; 0
    2c84:	80 72       	andi	r24, 0x20	; 32
    2c86:	90 70       	andi	r25, 0x00	; 0
    2c88:	00 97       	sbiw	r24, 0x00	; 0
    2c8a:	b9 f3       	breq	.-18     	; 0x2c7a <transmitByte+0xc>
  UDR0 = data;                                            /* send data */
    2c8c:	e6 ec       	ldi	r30, 0xC6	; 198
    2c8e:	f0 e0       	ldi	r31, 0x00	; 0
    2c90:	89 81       	ldd	r24, Y+1	; 0x01
    2c92:	80 83       	st	Z, r24
}
    2c94:	0f 90       	pop	r0
    2c96:	cf 91       	pop	r28
    2c98:	df 91       	pop	r29
    2c9a:	08 95       	ret

00002c9c <__vector_25>:



SIGNAL(SIG_USART0_RECV) 		// ISR for receive complete interrupt
{
    2c9c:	1f 92       	push	r1
    2c9e:	0f 92       	push	r0
    2ca0:	0f b6       	in	r0, 0x3f	; 63
    2ca2:	0f 92       	push	r0
    2ca4:	00 90 5b 00 	lds	r0, 0x005B
    2ca8:	0f 92       	push	r0
    2caa:	11 24       	eor	r1, r1
    2cac:	2f 93       	push	r18
    2cae:	3f 93       	push	r19
    2cb0:	4f 93       	push	r20
    2cb2:	5f 93       	push	r21
    2cb4:	6f 93       	push	r22
    2cb6:	7f 93       	push	r23
    2cb8:	8f 93       	push	r24
    2cba:	9f 93       	push	r25
    2cbc:	af 93       	push	r26
    2cbe:	bf 93       	push	r27
    2cc0:	ef 93       	push	r30
    2cc2:	ff 93       	push	r31
    2cc4:	df 93       	push	r29
    2cc6:	cf 93       	push	r28
    2cc8:	cd b7       	in	r28, 0x3d	; 61
    2cca:	de b7       	in	r29, 0x3e	; 62
	data = UDR0; 				//making copy of data from UDR0 in 'data' variable 
    2ccc:	e6 ec       	ldi	r30, 0xC6	; 198
    2cce:	f0 e0       	ldi	r31, 0x00	; 0
    2cd0:	80 81       	ld	r24, Z
    2cd2:	80 93 55 04 	sts	0x0455, r24

	UDR0 = data; 				//echo data back to PC
    2cd6:	e6 ec       	ldi	r30, 0xC6	; 198
    2cd8:	f0 e0       	ldi	r31, 0x00	; 0
    2cda:	80 91 55 04 	lds	r24, 0x0455
    2cde:	80 83       	st	Z, r24

		if(data == 0x38 && flag==0) //ASCII value of 8
    2ce0:	80 91 55 04 	lds	r24, 0x0455
    2ce4:	88 33       	cpi	r24, 0x38	; 56
    2ce6:	51 f4       	brne	.+20     	; 0x2cfc <__vector_25+0x60>
    2ce8:	80 91 00 02 	lds	r24, 0x0200
    2cec:	90 91 01 02 	lds	r25, 0x0201
    2cf0:	00 97       	sbiw	r24, 0x00	; 0
    2cf2:	21 f4       	brne	.+8      	; 0x2cfc <__vector_25+0x60>
		{
			PORTA=0x06;  //forward
    2cf4:	e2 e2       	ldi	r30, 0x22	; 34
    2cf6:	f0 e0       	ldi	r31, 0x00	; 0
    2cf8:	86 e0       	ldi	r24, 0x06	; 6
    2cfa:	80 83       	st	Z, r24
		}

		if(data == 0x32 && flag==0) //ASCII value of 2
    2cfc:	80 91 55 04 	lds	r24, 0x0455
    2d00:	82 33       	cpi	r24, 0x32	; 50
    2d02:	51 f4       	brne	.+20     	; 0x2d18 <__vector_25+0x7c>
    2d04:	80 91 00 02 	lds	r24, 0x0200
    2d08:	90 91 01 02 	lds	r25, 0x0201
    2d0c:	00 97       	sbiw	r24, 0x00	; 0
    2d0e:	21 f4       	brne	.+8      	; 0x2d18 <__vector_25+0x7c>
		{
			PORTA=0x09; //back
    2d10:	e2 e2       	ldi	r30, 0x22	; 34
    2d12:	f0 e0       	ldi	r31, 0x00	; 0
    2d14:	89 e0       	ldi	r24, 0x09	; 9
    2d16:	80 83       	st	Z, r24
		}

		if(data == 0x34 && flag==0) //ASCII value of 4
    2d18:	80 91 55 04 	lds	r24, 0x0455
    2d1c:	84 33       	cpi	r24, 0x34	; 52
    2d1e:	51 f4       	brne	.+20     	; 0x2d34 <__vector_25+0x98>
    2d20:	80 91 00 02 	lds	r24, 0x0200
    2d24:	90 91 01 02 	lds	r25, 0x0201
    2d28:	00 97       	sbiw	r24, 0x00	; 0
    2d2a:	21 f4       	brne	.+8      	; 0x2d34 <__vector_25+0x98>
		{
			PORTA=0x05;  //left
    2d2c:	e2 e2       	ldi	r30, 0x22	; 34
    2d2e:	f0 e0       	ldi	r31, 0x00	; 0
    2d30:	85 e0       	ldi	r24, 0x05	; 5
    2d32:	80 83       	st	Z, r24
		}

		if(data == 0x36 && flag==0) //ASCII value of 6
    2d34:	80 91 55 04 	lds	r24, 0x0455
    2d38:	86 33       	cpi	r24, 0x36	; 54
    2d3a:	51 f4       	brne	.+20     	; 0x2d50 <__vector_25+0xb4>
    2d3c:	80 91 00 02 	lds	r24, 0x0200
    2d40:	90 91 01 02 	lds	r25, 0x0201
    2d44:	00 97       	sbiw	r24, 0x00	; 0
    2d46:	21 f4       	brne	.+8      	; 0x2d50 <__vector_25+0xb4>
		{
			PORTA=0x0A; //right
    2d48:	e2 e2       	ldi	r30, 0x22	; 34
    2d4a:	f0 e0       	ldi	r31, 0x00	; 0
    2d4c:	8a e0       	ldi	r24, 0x0A	; 10
    2d4e:	80 83       	st	Z, r24
		}

		if(data == 0x35 && flag==0) //ASCII value of 5
    2d50:	80 91 55 04 	lds	r24, 0x0455
    2d54:	85 33       	cpi	r24, 0x35	; 53
    2d56:	49 f4       	brne	.+18     	; 0x2d6a <__vector_25+0xce>
    2d58:	80 91 00 02 	lds	r24, 0x0200
    2d5c:	90 91 01 02 	lds	r25, 0x0201
    2d60:	00 97       	sbiw	r24, 0x00	; 0
    2d62:	19 f4       	brne	.+6      	; 0x2d6a <__vector_25+0xce>
		{
			PORTA=0x00; //stop
    2d64:	e2 e2       	ldi	r30, 0x22	; 34
    2d66:	f0 e0       	ldi	r31, 0x00	; 0
    2d68:	10 82       	st	Z, r1
		}

		if(data == 0x37 && flag==0) //ASCII value of 7
    2d6a:	80 91 55 04 	lds	r24, 0x0455
    2d6e:	87 33       	cpi	r24, 0x37	; 55
    2d70:	51 f4       	brne	.+20     	; 0x2d86 <__vector_25+0xea>
    2d72:	80 91 00 02 	lds	r24, 0x0200
    2d76:	90 91 01 02 	lds	r25, 0x0201
    2d7a:	00 97       	sbiw	r24, 0x00	; 0
    2d7c:	21 f4       	brne	.+8      	; 0x2d86 <__vector_25+0xea>
		{
			buzzer_on(5000);
    2d7e:	88 e8       	ldi	r24, 0x88	; 136
    2d80:	93 e1       	ldi	r25, 0x13	; 19
    2d82:	0e 94 14 11 	call	0x2228	; 0x2228 <buzzer_on>
		}

		if(data == 0x39 && flag==0) //ASCII value of 9
    2d86:	80 91 55 04 	lds	r24, 0x0455
    2d8a:	89 33       	cpi	r24, 0x39	; 57
    2d8c:	41 f4       	brne	.+16     	; 0x2d9e <__vector_25+0x102>
    2d8e:	80 91 00 02 	lds	r24, 0x0200
    2d92:	90 91 01 02 	lds	r25, 0x0201
    2d96:	00 97       	sbiw	r24, 0x00	; 0
    2d98:	11 f4       	brne	.+4      	; 0x2d9e <__vector_25+0x102>
		{
			buzzer_off();
    2d9a:	0e 94 06 11 	call	0x220c	; 0x220c <buzzer_off>
		}
		if(data == 0x41 && flag==0) //ASCII value of A to hand he control back
    2d9e:	80 91 55 04 	lds	r24, 0x0455
    2da2:	81 34       	cpi	r24, 0x41	; 65
    2da4:	61 f4       	brne	.+24     	; 0x2dbe <__vector_25+0x122>
    2da6:	80 91 00 02 	lds	r24, 0x0200
    2daa:	90 91 01 02 	lds	r25, 0x0201
    2dae:	00 97       	sbiw	r24, 0x00	; 0
    2db0:	31 f4       	brne	.+12     	; 0x2dbe <__vector_25+0x122>
		{
			flag=1;
    2db2:	81 e0       	ldi	r24, 0x01	; 1
    2db4:	90 e0       	ldi	r25, 0x00	; 0
    2db6:	90 93 01 02 	sts	0x0201, r25
    2dba:	80 93 00 02 	sts	0x0200, r24
		}
		if(data == 0x44 && flag==0) //ASCII value to to drop the cone, D
    2dbe:	80 91 55 04 	lds	r24, 0x0455
    2dc2:	84 34       	cpi	r24, 0x44	; 68
    2dc4:	61 f4       	brne	.+24     	; 0x2dde <__vector_25+0x142>
    2dc6:	80 91 00 02 	lds	r24, 0x0200
    2dca:	90 91 01 02 	lds	r25, 0x0201
    2dce:	00 97       	sbiw	r24, 0x00	; 0
    2dd0:	31 f4       	brne	.+12     	; 0x2dde <__vector_25+0x142>
		{
			buzzer_ON();
    2dd2:	0e 94 b5 11 	call	0x236a	; 0x236a <buzzer_ON>
			drop_cone();
    2dd6:	0e 94 a6 0d 	call	0x1b4c	; 0x1b4c <drop_cone>
			buzzer_off();
    2dda:	0e 94 06 11 	call	0x220c	; 0x220c <buzzer_off>
		// if(data == 0x52 && flag==0) //ASCII value slow right, R
		// {
		// 	rot_right();
		// 	velocity(vth,vth);
		// }
		if(data == 0x53 && flag==0) //ASCII value slow , S
    2dde:	80 91 55 04 	lds	r24, 0x0455
    2de2:	83 35       	cpi	r24, 0x53	; 83
    2de4:	51 f4       	brne	.+20     	; 0x2dfa <__vector_25+0x15e>
    2de6:	80 91 00 02 	lds	r24, 0x0200
    2dea:	90 91 01 02 	lds	r25, 0x0201
    2dee:	00 97       	sbiw	r24, 0x00	; 0
    2df0:	21 f4       	brne	.+8      	; 0x2dfa <__vector_25+0x15e>
		{
			velocity(vth,vth);
    2df2:	86 e9       	ldi	r24, 0x96	; 150
    2df4:	66 e9       	ldi	r22, 0x96	; 150
    2df6:	0e 94 63 0a 	call	0x14c6	; 0x14c6 <velocity>
		}
		if(data == 0x46 && flag==0) //ASCII value F fast
    2dfa:	80 91 55 04 	lds	r24, 0x0455
    2dfe:	86 34       	cpi	r24, 0x46	; 70
    2e00:	51 f4       	brne	.+20     	; 0x2e16 <__vector_25+0x17a>
    2e02:	80 91 00 02 	lds	r24, 0x0200
    2e06:	90 91 01 02 	lds	r25, 0x0201
    2e0a:	00 97       	sbiw	r24, 0x00	; 0
    2e0c:	21 f4       	brne	.+8      	; 0x2e16 <__vector_25+0x17a>
		{
			velocity(200,200);
    2e0e:	88 ec       	ldi	r24, 0xC8	; 200
    2e10:	68 ec       	ldi	r22, 0xC8	; 200
    2e12:	0e 94 63 0a 	call	0x14c6	; 0x14c6 <velocity>
		}
		if(data == 0x47 && flag==0) //ASCII value superfast
    2e16:	80 91 55 04 	lds	r24, 0x0455
    2e1a:	87 34       	cpi	r24, 0x47	; 71
    2e1c:	51 f4       	brne	.+20     	; 0x2e32 <__vector_25+0x196>
    2e1e:	80 91 00 02 	lds	r24, 0x0200
    2e22:	90 91 01 02 	lds	r25, 0x0201
    2e26:	00 97       	sbiw	r24, 0x00	; 0
    2e28:	21 f4       	brne	.+8      	; 0x2e32 <__vector_25+0x196>
		{
			velocity(255,255);
    2e2a:	8f ef       	ldi	r24, 0xFF	; 255
    2e2c:	6f ef       	ldi	r22, 0xFF	; 255
    2e2e:	0e 94 63 0a 	call	0x14c6	; 0x14c6 <velocity>
		}
		

}
    2e32:	cf 91       	pop	r28
    2e34:	df 91       	pop	r29
    2e36:	ff 91       	pop	r31
    2e38:	ef 91       	pop	r30
    2e3a:	bf 91       	pop	r27
    2e3c:	af 91       	pop	r26
    2e3e:	9f 91       	pop	r25
    2e40:	8f 91       	pop	r24
    2e42:	7f 91       	pop	r23
    2e44:	6f 91       	pop	r22
    2e46:	5f 91       	pop	r21
    2e48:	4f 91       	pop	r20
    2e4a:	3f 91       	pop	r19
    2e4c:	2f 91       	pop	r18
    2e4e:	0f 90       	pop	r0
    2e50:	00 92 5b 00 	sts	0x005B, r0
    2e54:	0f 90       	pop	r0
    2e56:	0f be       	out	0x3f, r0	; 63
    2e58:	0f 90       	pop	r0
    2e5a:	1f 90       	pop	r1
    2e5c:	18 95       	reti

00002e5e <init_xbee>:


//Function To Initialize all The Devices
void init_xbee()
{
    2e5e:	df 93       	push	r29
    2e60:	cf 93       	push	r28
    2e62:	cd b7       	in	r28, 0x3d	; 61
    2e64:	de b7       	in	r29, 0x3e	; 62
 cli(); //Clears the global interrupts
    2e66:	f8 94       	cli
 //port_init();  //Initializes all the ports
 uart0_init(); //Initailize UART1 for serial communiaction
    2e68:	0e 94 1b 16 	call	0x2c36	; 0x2c36 <uart0_init>
 sei();   //Enables the global interrupts
    2e6c:	78 94       	sei
}
    2e6e:	cf 91       	pop	r28
    2e70:	df 91       	pop	r29
    2e72:	08 95       	ret

00002e74 <main>:

//Main Function
int main(void)
{
    2e74:	df 93       	push	r29
    2e76:	cf 93       	push	r28
    2e78:	cd b7       	in	r28, 0x3d	; 61
    2e7a:	de b7       	in	r29, 0x3e	; 62
    2e7c:	62 97       	sbiw	r28, 0x12	; 18
    2e7e:	0f b6       	in	r0, 0x3f	; 63
    2e80:	f8 94       	cli
    2e82:	de bf       	out	0x3e, r29	; 62
    2e84:	0f be       	out	0x3f, r0	; 63
    2e86:	cd bf       	out	0x3d, r28	; 61
	int i,loop;
	cur_node=base_station;
    2e88:	80 91 04 02 	lds	r24, 0x0204
    2e8c:	90 91 05 02 	lds	r25, 0x0205
    2e90:	90 93 5b 04 	sts	0x045B, r25
    2e94:	80 93 5a 04 	sts	0x045A, r24
	actionlist=action_space;	
    2e98:	80 e7       	ldi	r24, 0x70	; 112
    2e9a:	93 e0       	ldi	r25, 0x03	; 3
    2e9c:	90 93 4b 04 	sts	0x044B, r25
    2ea0:	80 93 4a 04 	sts	0x044A, r24
	
	//printf("bridge_node=");
	//scanf("%d",&dispatch_point);
	init_devices();
    2ea4:	0e 94 b7 10 	call	0x216e	; 0x216e <init_devices>
	servo_1(90);//returning height
    2ea8:	8a e5       	ldi	r24, 0x5A	; 90
    2eaa:	0e 94 23 0b 	call	0x1646	; 0x1646 <servo_1>
    2eae:	80 e0       	ldi	r24, 0x00	; 0
    2eb0:	90 e0       	ldi	r25, 0x00	; 0
    2eb2:	aa e7       	ldi	r26, 0x7A	; 122
    2eb4:	b4 e4       	ldi	r27, 0x44	; 68
    2eb6:	8b 87       	std	Y+11, r24	; 0x0b
    2eb8:	9c 87       	std	Y+12, r25	; 0x0c
    2eba:	ad 87       	std	Y+13, r26	; 0x0d
    2ebc:	be 87       	std	Y+14, r27	; 0x0e
 */
void
_delay_ms(double __ms)
{
	uint16_t __ticks;
	double __tmp = ((F_CPU) / 4e3) * __ms;
    2ebe:	6b 85       	ldd	r22, Y+11	; 0x0b
    2ec0:	7c 85       	ldd	r23, Y+12	; 0x0c
    2ec2:	8d 85       	ldd	r24, Y+13	; 0x0d
    2ec4:	9e 85       	ldd	r25, Y+14	; 0x0e
    2ec6:	26 e6       	ldi	r18, 0x66	; 102
    2ec8:	36 e6       	ldi	r19, 0x66	; 102
    2eca:	46 e6       	ldi	r20, 0x66	; 102
    2ecc:	55 e4       	ldi	r21, 0x45	; 69
    2ece:	0e 94 30 21 	call	0x4260	; 0x4260 <__mulsf3>
    2ed2:	dc 01       	movw	r26, r24
    2ed4:	cb 01       	movw	r24, r22
    2ed6:	8f 83       	std	Y+7, r24	; 0x07
    2ed8:	98 87       	std	Y+8, r25	; 0x08
    2eda:	a9 87       	std	Y+9, r26	; 0x09
    2edc:	ba 87       	std	Y+10, r27	; 0x0a
	if (__tmp < 1.0)
    2ede:	6f 81       	ldd	r22, Y+7	; 0x07
    2ee0:	78 85       	ldd	r23, Y+8	; 0x08
    2ee2:	89 85       	ldd	r24, Y+9	; 0x09
    2ee4:	9a 85       	ldd	r25, Y+10	; 0x0a
    2ee6:	20 e0       	ldi	r18, 0x00	; 0
    2ee8:	30 e0       	ldi	r19, 0x00	; 0
    2eea:	40 e8       	ldi	r20, 0x80	; 128
    2eec:	5f e3       	ldi	r21, 0x3F	; 63
    2eee:	0e 94 36 23 	call	0x466c	; 0x466c <__ltsf2>
    2ef2:	88 23       	and	r24, r24
    2ef4:	2c f4       	brge	.+10     	; 0x2f00 <main+0x8c>
		__ticks = 1;
    2ef6:	81 e0       	ldi	r24, 0x01	; 1
    2ef8:	90 e0       	ldi	r25, 0x00	; 0
    2efa:	9e 83       	std	Y+6, r25	; 0x06
    2efc:	8d 83       	std	Y+5, r24	; 0x05
    2efe:	3f c0       	rjmp	.+126    	; 0x2f7e <main+0x10a>
	else if (__tmp > 65535)
    2f00:	6f 81       	ldd	r22, Y+7	; 0x07
    2f02:	78 85       	ldd	r23, Y+8	; 0x08
    2f04:	89 85       	ldd	r24, Y+9	; 0x09
    2f06:	9a 85       	ldd	r25, Y+10	; 0x0a
    2f08:	20 e0       	ldi	r18, 0x00	; 0
    2f0a:	3f ef       	ldi	r19, 0xFF	; 255
    2f0c:	4f e7       	ldi	r20, 0x7F	; 127
    2f0e:	57 e4       	ldi	r21, 0x47	; 71
    2f10:	0e 94 d6 22 	call	0x45ac	; 0x45ac <__gtsf2>
    2f14:	18 16       	cp	r1, r24
    2f16:	4c f5       	brge	.+82     	; 0x2f6a <main+0xf6>
	{
		//	__ticks = requested delay in 1/10 ms
		__ticks = (uint16_t) (__ms * 10.0);
    2f18:	6b 85       	ldd	r22, Y+11	; 0x0b
    2f1a:	7c 85       	ldd	r23, Y+12	; 0x0c
    2f1c:	8d 85       	ldd	r24, Y+13	; 0x0d
    2f1e:	9e 85       	ldd	r25, Y+14	; 0x0e
    2f20:	20 e0       	ldi	r18, 0x00	; 0
    2f22:	30 e0       	ldi	r19, 0x00	; 0
    2f24:	40 e2       	ldi	r20, 0x20	; 32
    2f26:	51 e4       	ldi	r21, 0x41	; 65
    2f28:	0e 94 30 21 	call	0x4260	; 0x4260 <__mulsf3>
    2f2c:	dc 01       	movw	r26, r24
    2f2e:	cb 01       	movw	r24, r22
    2f30:	bc 01       	movw	r22, r24
    2f32:	cd 01       	movw	r24, r26
    2f34:	0e 94 5a 1f 	call	0x3eb4	; 0x3eb4 <__fixunssfsi>
    2f38:	dc 01       	movw	r26, r24
    2f3a:	cb 01       	movw	r24, r22
    2f3c:	9e 83       	std	Y+6, r25	; 0x06
    2f3e:	8d 83       	std	Y+5, r24	; 0x05
    2f40:	0f c0       	rjmp	.+30     	; 0x2f60 <main+0xec>
    2f42:	80 e7       	ldi	r24, 0x70	; 112
    2f44:	91 e0       	ldi	r25, 0x01	; 1
    2f46:	9c 83       	std	Y+4, r25	; 0x04
    2f48:	8b 83       	std	Y+3, r24	; 0x03
    2f4a:	8b 81       	ldd	r24, Y+3	; 0x03
    2f4c:	9c 81       	ldd	r25, Y+4	; 0x04
    2f4e:	01 97       	sbiw	r24, 0x01	; 1
    2f50:	f1 f7       	brne	.-4      	; 0x2f4e <main+0xda>
    2f52:	9c 83       	std	Y+4, r25	; 0x04
    2f54:	8b 83       	std	Y+3, r24	; 0x03
		while(__ticks)
		{
			// wait 1/10 ms
			_delay_loop_2(((F_CPU) / 4e3) / 10);
			__ticks --;
    2f56:	8d 81       	ldd	r24, Y+5	; 0x05
    2f58:	9e 81       	ldd	r25, Y+6	; 0x06
    2f5a:	01 97       	sbiw	r24, 0x01	; 1
    2f5c:	9e 83       	std	Y+6, r25	; 0x06
    2f5e:	8d 83       	std	Y+5, r24	; 0x05
		__ticks = 1;
	else if (__tmp > 65535)
	{
		//	__ticks = requested delay in 1/10 ms
		__ticks = (uint16_t) (__ms * 10.0);
		while(__ticks)
    2f60:	8d 81       	ldd	r24, Y+5	; 0x05
    2f62:	9e 81       	ldd	r25, Y+6	; 0x06
    2f64:	00 97       	sbiw	r24, 0x00	; 0
    2f66:	69 f7       	brne	.-38     	; 0x2f42 <main+0xce>
    2f68:	14 c0       	rjmp	.+40     	; 0x2f92 <main+0x11e>
			__ticks --;
		}
		return;
	}
	else
		__ticks = (uint16_t)__tmp;
    2f6a:	6f 81       	ldd	r22, Y+7	; 0x07
    2f6c:	78 85       	ldd	r23, Y+8	; 0x08
    2f6e:	89 85       	ldd	r24, Y+9	; 0x09
    2f70:	9a 85       	ldd	r25, Y+10	; 0x0a
    2f72:	0e 94 5a 1f 	call	0x3eb4	; 0x3eb4 <__fixunssfsi>
    2f76:	dc 01       	movw	r26, r24
    2f78:	cb 01       	movw	r24, r22
    2f7a:	9e 83       	std	Y+6, r25	; 0x06
    2f7c:	8d 83       	std	Y+5, r24	; 0x05
    2f7e:	8d 81       	ldd	r24, Y+5	; 0x05
    2f80:	9e 81       	ldd	r25, Y+6	; 0x06
    2f82:	9a 83       	std	Y+2, r25	; 0x02
    2f84:	89 83       	std	Y+1, r24	; 0x01
    2f86:	89 81       	ldd	r24, Y+1	; 0x01
    2f88:	9a 81       	ldd	r25, Y+2	; 0x02
    2f8a:	01 97       	sbiw	r24, 0x01	; 1
    2f8c:	f1 f7       	brne	.-4      	; 0x2f8a <main+0x116>
    2f8e:	9a 83       	std	Y+2, r25	; 0x02
    2f90:	89 83       	std	Y+1, r24	; 0x01
	_delay_ms(1000);//fixing servo1 right
	if(dispatch_point==10)
    2f92:	80 91 02 02 	lds	r24, 0x0202
    2f96:	90 91 03 02 	lds	r25, 0x0203
    2f9a:	8a 30       	cpi	r24, 0x0A	; 10
    2f9c:	91 05       	cpc	r25, r1
    2f9e:	29 f4       	brne	.+10     	; 0x2faa <main+0x136>
	{
		loop=2;
    2fa0:	82 e0       	ldi	r24, 0x02	; 2
    2fa2:	90 e0       	ldi	r25, 0x00	; 0
    2fa4:	98 8b       	std	Y+16, r25	; 0x10
    2fa6:	8f 87       	std	Y+15, r24	; 0x0f
    2fa8:	0b c0       	rjmp	.+22     	; 0x2fc0 <main+0x14c>
		/*printf("node1=");
		scanf("%d",&node1);
		printf("node2=");
		scanf("%d",&node2);*/
	}
	else if(dispatch_point==11)
    2faa:	80 91 02 02 	lds	r24, 0x0202
    2fae:	90 91 03 02 	lds	r25, 0x0203
    2fb2:	8b 30       	cpi	r24, 0x0B	; 11
    2fb4:	91 05       	cpc	r25, r1
    2fb6:	21 f4       	brne	.+8      	; 0x2fc0 <main+0x14c>
	{
		loop=4;
    2fb8:	84 e0       	ldi	r24, 0x04	; 4
    2fba:	90 e0       	ldi	r25, 0x00	; 0
    2fbc:	98 8b       	std	Y+16, r25	; 0x10
    2fbe:	8f 87       	std	Y+15, r24	; 0x0f
		scanf("%d",&node3);
		printf("node4=");
		scanf("%d",&node4);*/
	}

	if(loop==2)
    2fc0:	8f 85       	ldd	r24, Y+15	; 0x0f
    2fc2:	98 89       	ldd	r25, Y+16	; 0x10
    2fc4:	82 30       	cpi	r24, 0x02	; 2
    2fc6:	91 05       	cpc	r25, r1
    2fc8:	99 f5       	brne	.+102    	; 0x3030 <main+0x1bc>
	{
		store=fetch_storepoint();
    2fca:	0e 94 61 18 	call	0x30c2	; 0x30c2 <fetch_storepoint>
    2fce:	90 93 4f 04 	sts	0x044F, r25
    2fd2:	80 93 4e 04 	sts	0x044E, r24
		next_node=store;
    2fd6:	80 91 4e 04 	lds	r24, 0x044E
    2fda:	90 91 4f 04 	lds	r25, 0x044F
    2fde:	90 93 47 04 	sts	0x0447, r25
    2fe2:	80 93 46 04 	sts	0x0446, r24
		findactionspace(cur_node,next_node);
    2fe6:	80 91 5a 04 	lds	r24, 0x045A
    2fea:	90 91 5b 04 	lds	r25, 0x045B
    2fee:	20 91 46 04 	lds	r18, 0x0446
    2ff2:	30 91 47 04 	lds	r19, 0x0447
    2ff6:	b9 01       	movw	r22, r18
    2ff8:	0e 94 33 1b 	call	0x3666	; 0x3666 <findactionspace>
		store=fetch_storepoint();
    2ffc:	0e 94 61 18 	call	0x30c2	; 0x30c2 <fetch_storepoint>
    3000:	90 93 4f 04 	sts	0x044F, r25
    3004:	80 93 4e 04 	sts	0x044E, r24
		next_node=store;
    3008:	80 91 4e 04 	lds	r24, 0x044E
    300c:	90 91 4f 04 	lds	r25, 0x044F
    3010:	90 93 47 04 	sts	0x0447, r25
    3014:	80 93 46 04 	sts	0x0446, r24
		findactionspace(cur_node,next_node);
    3018:	80 91 5a 04 	lds	r24, 0x045A
    301c:	90 91 5b 04 	lds	r25, 0x045B
    3020:	20 91 46 04 	lds	r18, 0x0446
    3024:	30 91 47 04 	lds	r19, 0x0447
    3028:	b9 01       	movw	r22, r18
    302a:	0e 94 33 1b 	call	0x3666	; 0x3666 <findactionspace>
    302e:	2b c0       	rjmp	.+86     	; 0x3086 <main+0x212>
	}
	else if(loop==4)
    3030:	8f 85       	ldd	r24, Y+15	; 0x0f
    3032:	98 89       	ldd	r25, Y+16	; 0x10
    3034:	84 30       	cpi	r24, 0x04	; 4
    3036:	91 05       	cpc	r25, r1
    3038:	31 f5       	brne	.+76     	; 0x3086 <main+0x212>
	{
		for(i=0;i<4;i++)
    303a:	1a 8a       	std	Y+18, r1	; 0x12
    303c:	19 8a       	std	Y+17, r1	; 0x11
    303e:	1e c0       	rjmp	.+60     	; 0x307c <main+0x208>
		{
			store=fetch_storepoint();
    3040:	0e 94 61 18 	call	0x30c2	; 0x30c2 <fetch_storepoint>
    3044:	90 93 4f 04 	sts	0x044F, r25
    3048:	80 93 4e 04 	sts	0x044E, r24
			next_node=store;
    304c:	80 91 4e 04 	lds	r24, 0x044E
    3050:	90 91 4f 04 	lds	r25, 0x044F
    3054:	90 93 47 04 	sts	0x0447, r25
    3058:	80 93 46 04 	sts	0x0446, r24
			findactionspace(cur_node,next_node);
    305c:	80 91 5a 04 	lds	r24, 0x045A
    3060:	90 91 5b 04 	lds	r25, 0x045B
    3064:	20 91 46 04 	lds	r18, 0x0446
    3068:	30 91 47 04 	lds	r19, 0x0447
    306c:	b9 01       	movw	r22, r18
    306e:	0e 94 33 1b 	call	0x3666	; 0x3666 <findactionspace>
		next_node=store;
		findactionspace(cur_node,next_node);
	}
	else if(loop==4)
	{
		for(i=0;i<4;i++)
    3072:	89 89       	ldd	r24, Y+17	; 0x11
    3074:	9a 89       	ldd	r25, Y+18	; 0x12
    3076:	01 96       	adiw	r24, 0x01	; 1
    3078:	9a 8b       	std	Y+18, r25	; 0x12
    307a:	89 8b       	std	Y+17, r24	; 0x11
    307c:	89 89       	ldd	r24, Y+17	; 0x11
    307e:	9a 89       	ldd	r25, Y+18	; 0x12
    3080:	84 30       	cpi	r24, 0x04	; 4
    3082:	91 05       	cpc	r25, r1
    3084:	ec f2       	brlt	.-70     	; 0x3040 <main+0x1cc>
			store=fetch_storepoint();
			next_node=store;
			findactionspace(cur_node,next_node);
		}
	}		
	action_space[action_counter]=7;
    3086:	80 91 6e 03 	lds	r24, 0x036E
    308a:	90 91 6f 03 	lds	r25, 0x036F
    308e:	88 0f       	add	r24, r24
    3090:	99 1f       	adc	r25, r25
    3092:	fc 01       	movw	r30, r24
    3094:	e0 59       	subi	r30, 0x90	; 144
    3096:	fc 4f       	sbci	r31, 0xFC	; 252
    3098:	87 e0       	ldi	r24, 0x07	; 7
    309a:	90 e0       	ldi	r25, 0x00	; 0
    309c:	91 83       	std	Z+1, r25	; 0x01
    309e:	80 83       	st	Z, r24
	//	flag=0;
	//while(1);
	display_actions(actionlist);
    30a0:	80 91 4a 04 	lds	r24, 0x044A
    30a4:	90 91 4b 04 	lds	r25, 0x044B
    30a8:	0e 94 bc 18 	call	0x3178	; 0x3178 <display_actions>
    30ac:	80 e0       	ldi	r24, 0x00	; 0
    30ae:	90 e0       	ldi	r25, 0x00	; 0
	
}
    30b0:	62 96       	adiw	r28, 0x12	; 18
    30b2:	0f b6       	in	r0, 0x3f	; 63
    30b4:	f8 94       	cli
    30b6:	de bf       	out	0x3e, r29	; 62
    30b8:	0f be       	out	0x3f, r0	; 63
    30ba:	cd bf       	out	0x3d, r28	; 61
    30bc:	cf 91       	pop	r28
    30be:	df 91       	pop	r29
    30c0:	08 95       	ret

000030c2 <fetch_storepoint>:

int fetch_storepoint()
{
    30c2:	df 93       	push	r29
    30c4:	cf 93       	push	r28
    30c6:	00 d0       	rcall	.+0      	; 0x30c8 <fetch_storepoint+0x6>
    30c8:	0f 92       	push	r0
    30ca:	cd b7       	in	r28, 0x3d	; 61
    30cc:	de b7       	in	r29, 0x3e	; 62
	if(temp_switch==0)
    30ce:	80 91 38 04 	lds	r24, 0x0438
    30d2:	90 91 39 04 	lds	r25, 0x0439
    30d6:	00 97       	sbiw	r24, 0x00	; 0
    30d8:	59 f4       	brne	.+22     	; 0x30f0 <fetch_storepoint+0x2e>
	{
		temp_switch=1;		
    30da:	81 e0       	ldi	r24, 0x01	; 1
    30dc:	90 e0       	ldi	r25, 0x00	; 0
    30de:	90 93 39 04 	sts	0x0439, r25
    30e2:	80 93 38 04 	sts	0x0438, r24
		return 4;//node1;
    30e6:	84 e0       	ldi	r24, 0x04	; 4
    30e8:	90 e0       	ldi	r25, 0x00	; 0
    30ea:	9a 83       	std	Y+2, r25	; 0x02
    30ec:	89 83       	std	Y+1, r24	; 0x01
    30ee:	37 c0       	rjmp	.+110    	; 0x315e <fetch_storepoint+0x9c>
	}
	else if(temp_switch==1)
    30f0:	80 91 38 04 	lds	r24, 0x0438
    30f4:	90 91 39 04 	lds	r25, 0x0439
    30f8:	81 30       	cpi	r24, 0x01	; 1
    30fa:	91 05       	cpc	r25, r1
    30fc:	59 f4       	brne	.+22     	; 0x3114 <fetch_storepoint+0x52>
	{
		temp_switch=2;
    30fe:	82 e0       	ldi	r24, 0x02	; 2
    3100:	90 e0       	ldi	r25, 0x00	; 0
    3102:	90 93 39 04 	sts	0x0439, r25
    3106:	80 93 38 04 	sts	0x0438, r24
		return 3;//node2;
    310a:	83 e0       	ldi	r24, 0x03	; 3
    310c:	90 e0       	ldi	r25, 0x00	; 0
    310e:	9a 83       	std	Y+2, r25	; 0x02
    3110:	89 83       	std	Y+1, r24	; 0x01
    3112:	25 c0       	rjmp	.+74     	; 0x315e <fetch_storepoint+0x9c>
	}	
	else if(temp_switch==2)
    3114:	80 91 38 04 	lds	r24, 0x0438
    3118:	90 91 39 04 	lds	r25, 0x0439
    311c:	82 30       	cpi	r24, 0x02	; 2
    311e:	91 05       	cpc	r25, r1
    3120:	59 f4       	brne	.+22     	; 0x3138 <fetch_storepoint+0x76>
	{
		temp_switch=3;
    3122:	83 e0       	ldi	r24, 0x03	; 3
    3124:	90 e0       	ldi	r25, 0x00	; 0
    3126:	90 93 39 04 	sts	0x0439, r25
    312a:	80 93 38 04 	sts	0x0438, r24
		return 6;//node3;
    312e:	86 e0       	ldi	r24, 0x06	; 6
    3130:	90 e0       	ldi	r25, 0x00	; 0
    3132:	9a 83       	std	Y+2, r25	; 0x02
    3134:	89 83       	std	Y+1, r24	; 0x01
    3136:	13 c0       	rjmp	.+38     	; 0x315e <fetch_storepoint+0x9c>
	}
	else if(temp_switch==3)
    3138:	80 91 38 04 	lds	r24, 0x0438
    313c:	90 91 39 04 	lds	r25, 0x0439
    3140:	83 30       	cpi	r24, 0x03	; 3
    3142:	91 05       	cpc	r25, r1
    3144:	59 f4       	brne	.+22     	; 0x315c <fetch_storepoint+0x9a>
	{
		temp_switch=4;
    3146:	84 e0       	ldi	r24, 0x04	; 4
    3148:	90 e0       	ldi	r25, 0x00	; 0
    314a:	90 93 39 04 	sts	0x0439, r25
    314e:	80 93 38 04 	sts	0x0438, r24
		return 1;//node4;
    3152:	81 e0       	ldi	r24, 0x01	; 1
    3154:	90 e0       	ldi	r25, 0x00	; 0
    3156:	9a 83       	std	Y+2, r25	; 0x02
    3158:	89 83       	std	Y+1, r24	; 0x01
    315a:	01 c0       	rjmp	.+2      	; 0x315e <fetch_storepoint+0x9c>
    315c:	04 c0       	rjmp	.+8      	; 0x3166 <fetch_storepoint+0xa4>
	}
}
    315e:	89 81       	ldd	r24, Y+1	; 0x01
    3160:	9a 81       	ldd	r25, Y+2	; 0x02
    3162:	9c 83       	std	Y+4, r25	; 0x04
    3164:	8b 83       	std	Y+3, r24	; 0x03
    3166:	8b 81       	ldd	r24, Y+3	; 0x03
    3168:	9c 81       	ldd	r25, Y+4	; 0x04
    316a:	0f 90       	pop	r0
    316c:	0f 90       	pop	r0
    316e:	0f 90       	pop	r0
    3170:	0f 90       	pop	r0
    3172:	cf 91       	pop	r28
    3174:	df 91       	pop	r29
    3176:	08 95       	ret

00003178 <display_actions>:

void display_actions(int actionlist[])
{
    3178:	df 93       	push	r29
    317a:	cf 93       	push	r28
    317c:	cd b7       	in	r28, 0x3d	; 61
    317e:	de b7       	in	r29, 0x3e	; 62
    3180:	68 97       	sbiw	r28, 0x18	; 24
    3182:	0f b6       	in	r0, 0x3f	; 63
    3184:	f8 94       	cli
    3186:	de bf       	out	0x3e, r29	; 62
    3188:	0f be       	out	0x3f, r0	; 63
    318a:	cd bf       	out	0x3d, r28	; 61
    318c:	9a 8b       	std	Y+18, r25	; 0x12
    318e:	89 8b       	std	Y+17, r24	; 0x11
	int i;
	//printf("move fwd\n");
	lcd_wr_command(0x01);
    3190:	81 e0       	ldi	r24, 0x01	; 1
    3192:	0e 94 3f 06 	call	0xc7e	; 0xc7e <lcd_wr_command>
	lcd_string("move fwd");
    3196:	86 e0       	ldi	r24, 0x06	; 6
    3198:	92 e0       	ldi	r25, 0x02	; 2
    319a:	0e 94 fd 08 	call	0x11fa	; 0x11fa <lcd_string>
	follow_path();
    319e:	0e 94 ad 1e 	call	0x3d5a	; 0x3d5a <follow_path>
	
	for(i=0; actionlist[i+1] !=7 ;i++)
    31a2:	18 8a       	std	Y+16, r1	; 0x10
    31a4:	1f 86       	std	Y+15, r1	; 0x0f
    31a6:	45 c2       	rjmp	.+1162   	; 0x3632 <display_actions+0x4ba>
	{
		//printf("actionlist_value=%d\n",actionlist[i]);
		if(actionlist[i+1]==5)
    31a8:	8f 85       	ldd	r24, Y+15	; 0x0f
    31aa:	98 89       	ldd	r25, Y+16	; 0x10
    31ac:	01 96       	adiw	r24, 0x01	; 1
    31ae:	9c 01       	movw	r18, r24
    31b0:	22 0f       	add	r18, r18
    31b2:	33 1f       	adc	r19, r19
    31b4:	89 89       	ldd	r24, Y+17	; 0x11
    31b6:	9a 89       	ldd	r25, Y+18	; 0x12
    31b8:	fc 01       	movw	r30, r24
    31ba:	e2 0f       	add	r30, r18
    31bc:	f3 1f       	adc	r31, r19
    31be:	80 81       	ld	r24, Z
    31c0:	91 81       	ldd	r25, Z+1	; 0x01
    31c2:	85 30       	cpi	r24, 0x05	; 5
    31c4:	91 05       	cpc	r25, r1
    31c6:	31 f5       	brne	.+76     	; 0x3214 <display_actions+0x9c>
		{
			//printf("stopped\n");
			stop();
    31c8:	0e 94 00 12 	call	0x2400	; 0x2400 <stop>
			
			//printf("***PICK NUMBER **\n");
			lcd_wr_command(0x01);
    31cc:	81 e0       	ldi	r24, 0x01	; 1
    31ce:	0e 94 3f 06 	call	0xc7e	; 0xc7e <lcd_wr_command>
			lcd_string("picking number");
    31d2:	8f e0       	ldi	r24, 0x0F	; 15
    31d4:	92 e0       	ldi	r25, 0x02	; 2
    31d6:	0e 94 fd 08 	call	0x11fa	; 0x11fa <lcd_string>
			//detect node
			//detect_node();

			//adjustment for arm and picking up of the number
			//distance_mm('b',0);
			pick_up_cone();
    31da:	0e 94 bf 0b 	call	0x177e	; 0x177e <pick_up_cone>
			//distance_mm('f',80);
			actionlist[i+1]=actionlist[i];
    31de:	8f 85       	ldd	r24, Y+15	; 0x0f
    31e0:	98 89       	ldd	r25, Y+16	; 0x10
    31e2:	01 96       	adiw	r24, 0x01	; 1
    31e4:	9c 01       	movw	r18, r24
    31e6:	22 0f       	add	r18, r18
    31e8:	33 1f       	adc	r19, r19
    31ea:	89 89       	ldd	r24, Y+17	; 0x11
    31ec:	9a 89       	ldd	r25, Y+18	; 0x12
    31ee:	dc 01       	movw	r26, r24
    31f0:	a2 0f       	add	r26, r18
    31f2:	b3 1f       	adc	r27, r19
    31f4:	8f 85       	ldd	r24, Y+15	; 0x0f
    31f6:	98 89       	ldd	r25, Y+16	; 0x10
    31f8:	9c 01       	movw	r18, r24
    31fa:	22 0f       	add	r18, r18
    31fc:	33 1f       	adc	r19, r19
    31fe:	89 89       	ldd	r24, Y+17	; 0x11
    3200:	9a 89       	ldd	r25, Y+18	; 0x12
    3202:	fc 01       	movw	r30, r24
    3204:	e2 0f       	add	r30, r18
    3206:	f3 1f       	adc	r31, r19
    3208:	80 81       	ld	r24, Z
    320a:	91 81       	ldd	r25, Z+1	; 0x01
    320c:	11 96       	adiw	r26, 0x01	; 1
    320e:	9c 93       	st	X, r25
    3210:	8e 93       	st	-X, r24
    3212:	0a c2       	rjmp	.+1044   	; 0x3628 <display_actions+0x4b0>
		}
		else if(actionlist[i+1]==6)//for handling control back to bot
    3214:	8f 85       	ldd	r24, Y+15	; 0x0f
    3216:	98 89       	ldd	r25, Y+16	; 0x10
    3218:	01 96       	adiw	r24, 0x01	; 1
    321a:	9c 01       	movw	r18, r24
    321c:	22 0f       	add	r18, r18
    321e:	33 1f       	adc	r19, r19
    3220:	89 89       	ldd	r24, Y+17	; 0x11
    3222:	9a 89       	ldd	r25, Y+18	; 0x12
    3224:	fc 01       	movw	r30, r24
    3226:	e2 0f       	add	r30, r18
    3228:	f3 1f       	adc	r31, r19
    322a:	80 81       	ld	r24, Z
    322c:	91 81       	ldd	r25, Z+1	; 0x01
    322e:	86 30       	cpi	r24, 0x06	; 6
    3230:	91 05       	cpc	r25, r1
    3232:	a9 f5       	brne	.+106    	; 0x329e <display_actions+0x126>
		{
			//printf("stopped\n");
			stop();
    3234:	0e 94 00 12 	call	0x2400	; 0x2400 <stop>

			//printf("***HANDLING CONTROL TO PC **\n");
			lcd_wr_command(0x01);
    3238:	81 e0       	ldi	r24, 0x01	; 1
    323a:	0e 94 3f 06 	call	0xc7e	; 0xc7e <lcd_wr_command>
			lcd_string("handling control to pc");
    323e:	8e e1       	ldi	r24, 0x1E	; 30
    3240:	92 e0       	ldi	r25, 0x02	; 2
    3242:	0e 94 fd 08 	call	0x11fa	; 0x11fa <lcd_string>
			transmitByte('I');
    3246:	89 e4       	ldi	r24, 0x49	; 73
    3248:	0e 94 37 16 	call	0x2c6e	; 0x2c6e <transmitByte>
			flag=0;
    324c:	10 92 01 02 	sts	0x0201, r1
    3250:	10 92 00 02 	sts	0x0200, r1
			buzzer_ON();
    3254:	0e 94 b5 11 	call	0x236a	; 0x236a <buzzer_ON>
			while(flag==0);
    3258:	80 91 00 02 	lds	r24, 0x0200
    325c:	90 91 01 02 	lds	r25, 0x0201
    3260:	00 97       	sbiw	r24, 0x00	; 0
    3262:	d1 f3       	breq	.-12     	; 0x3258 <display_actions+0xe0>
			//drop_cone();
			buzzer_off();
    3264:	0e 94 06 11 	call	0x220c	; 0x220c <buzzer_off>
			actionlist[i+1]=actionlist[i];
    3268:	8f 85       	ldd	r24, Y+15	; 0x0f
    326a:	98 89       	ldd	r25, Y+16	; 0x10
    326c:	01 96       	adiw	r24, 0x01	; 1
    326e:	9c 01       	movw	r18, r24
    3270:	22 0f       	add	r18, r18
    3272:	33 1f       	adc	r19, r19
    3274:	89 89       	ldd	r24, Y+17	; 0x11
    3276:	9a 89       	ldd	r25, Y+18	; 0x12
    3278:	dc 01       	movw	r26, r24
    327a:	a2 0f       	add	r26, r18
    327c:	b3 1f       	adc	r27, r19
    327e:	8f 85       	ldd	r24, Y+15	; 0x0f
    3280:	98 89       	ldd	r25, Y+16	; 0x10
    3282:	9c 01       	movw	r18, r24
    3284:	22 0f       	add	r18, r18
    3286:	33 1f       	adc	r19, r19
    3288:	89 89       	ldd	r24, Y+17	; 0x11
    328a:	9a 89       	ldd	r25, Y+18	; 0x12
    328c:	fc 01       	movw	r30, r24
    328e:	e2 0f       	add	r30, r18
    3290:	f3 1f       	adc	r31, r19
    3292:	80 81       	ld	r24, Z
    3294:	91 81       	ldd	r25, Z+1	; 0x01
    3296:	11 96       	adiw	r26, 0x01	; 1
    3298:	9c 93       	st	X, r25
    329a:	8e 93       	st	-X, r24
    329c:	c5 c1       	rjmp	.+906    	; 0x3628 <display_actions+0x4b0>
		}
		else
		{
			if(abs(actionlist[i]-actionlist[i+1]) ==0)
    329e:	8f 85       	ldd	r24, Y+15	; 0x0f
    32a0:	98 89       	ldd	r25, Y+16	; 0x10
    32a2:	9c 01       	movw	r18, r24
    32a4:	22 0f       	add	r18, r18
    32a6:	33 1f       	adc	r19, r19
    32a8:	89 89       	ldd	r24, Y+17	; 0x11
    32aa:	9a 89       	ldd	r25, Y+18	; 0x12
    32ac:	fc 01       	movw	r30, r24
    32ae:	e2 0f       	add	r30, r18
    32b0:	f3 1f       	adc	r31, r19
    32b2:	40 81       	ld	r20, Z
    32b4:	51 81       	ldd	r21, Z+1	; 0x01
    32b6:	8f 85       	ldd	r24, Y+15	; 0x0f
    32b8:	98 89       	ldd	r25, Y+16	; 0x10
    32ba:	01 96       	adiw	r24, 0x01	; 1
    32bc:	9c 01       	movw	r18, r24
    32be:	22 0f       	add	r18, r18
    32c0:	33 1f       	adc	r19, r19
    32c2:	89 89       	ldd	r24, Y+17	; 0x11
    32c4:	9a 89       	ldd	r25, Y+18	; 0x12
    32c6:	fc 01       	movw	r30, r24
    32c8:	e2 0f       	add	r30, r18
    32ca:	f3 1f       	adc	r31, r19
    32cc:	80 81       	ld	r24, Z
    32ce:	91 81       	ldd	r25, Z+1	; 0x01
    32d0:	48 17       	cp	r20, r24
    32d2:	59 07       	cpc	r21, r25
    32d4:	09 f0       	breq	.+2      	; 0x32d8 <display_actions+0x160>
    32d6:	83 c0       	rjmp	.+262    	; 0x33de <display_actions+0x266>
			{
			
				//printf("no change in direction\n");
				lcd_wr_command(0x01);
    32d8:	81 e0       	ldi	r24, 0x01	; 1
    32da:	0e 94 3f 06 	call	0xc7e	; 0xc7e <lcd_wr_command>
				lcd_string("no change in direction");
    32de:	85 e3       	ldi	r24, 0x35	; 53
    32e0:	92 e0       	ldi	r25, 0x02	; 2
    32e2:	0e 94 fd 08 	call	0x11fa	; 0x11fa <lcd_string>
    32e6:	80 e0       	ldi	r24, 0x00	; 0
    32e8:	90 e0       	ldi	r25, 0x00	; 0
    32ea:	aa e7       	ldi	r26, 0x7A	; 122
    32ec:	b4 e4       	ldi	r27, 0x44	; 68
    32ee:	8b 87       	std	Y+11, r24	; 0x0b
    32f0:	9c 87       	std	Y+12, r25	; 0x0c
    32f2:	ad 87       	std	Y+13, r26	; 0x0d
    32f4:	be 87       	std	Y+14, r27	; 0x0e
 */
void
_delay_ms(double __ms)
{
	uint16_t __ticks;
	double __tmp = ((F_CPU) / 4e3) * __ms;
    32f6:	6b 85       	ldd	r22, Y+11	; 0x0b
    32f8:	7c 85       	ldd	r23, Y+12	; 0x0c
    32fa:	8d 85       	ldd	r24, Y+13	; 0x0d
    32fc:	9e 85       	ldd	r25, Y+14	; 0x0e
    32fe:	26 e6       	ldi	r18, 0x66	; 102
    3300:	36 e6       	ldi	r19, 0x66	; 102
    3302:	46 e6       	ldi	r20, 0x66	; 102
    3304:	55 e4       	ldi	r21, 0x45	; 69
    3306:	0e 94 30 21 	call	0x4260	; 0x4260 <__mulsf3>
    330a:	dc 01       	movw	r26, r24
    330c:	cb 01       	movw	r24, r22
    330e:	8f 83       	std	Y+7, r24	; 0x07
    3310:	98 87       	std	Y+8, r25	; 0x08
    3312:	a9 87       	std	Y+9, r26	; 0x09
    3314:	ba 87       	std	Y+10, r27	; 0x0a
	if (__tmp < 1.0)
    3316:	6f 81       	ldd	r22, Y+7	; 0x07
    3318:	78 85       	ldd	r23, Y+8	; 0x08
    331a:	89 85       	ldd	r24, Y+9	; 0x09
    331c:	9a 85       	ldd	r25, Y+10	; 0x0a
    331e:	20 e0       	ldi	r18, 0x00	; 0
    3320:	30 e0       	ldi	r19, 0x00	; 0
    3322:	40 e8       	ldi	r20, 0x80	; 128
    3324:	5f e3       	ldi	r21, 0x3F	; 63
    3326:	0e 94 36 23 	call	0x466c	; 0x466c <__ltsf2>
    332a:	88 23       	and	r24, r24
    332c:	2c f4       	brge	.+10     	; 0x3338 <display_actions+0x1c0>
		__ticks = 1;
    332e:	81 e0       	ldi	r24, 0x01	; 1
    3330:	90 e0       	ldi	r25, 0x00	; 0
    3332:	9e 83       	std	Y+6, r25	; 0x06
    3334:	8d 83       	std	Y+5, r24	; 0x05
    3336:	3f c0       	rjmp	.+126    	; 0x33b6 <display_actions+0x23e>
	else if (__tmp > 65535)
    3338:	6f 81       	ldd	r22, Y+7	; 0x07
    333a:	78 85       	ldd	r23, Y+8	; 0x08
    333c:	89 85       	ldd	r24, Y+9	; 0x09
    333e:	9a 85       	ldd	r25, Y+10	; 0x0a
    3340:	20 e0       	ldi	r18, 0x00	; 0
    3342:	3f ef       	ldi	r19, 0xFF	; 255
    3344:	4f e7       	ldi	r20, 0x7F	; 127
    3346:	57 e4       	ldi	r21, 0x47	; 71
    3348:	0e 94 d6 22 	call	0x45ac	; 0x45ac <__gtsf2>
    334c:	18 16       	cp	r1, r24
    334e:	4c f5       	brge	.+82     	; 0x33a2 <display_actions+0x22a>
	{
		//	__ticks = requested delay in 1/10 ms
		__ticks = (uint16_t) (__ms * 10.0);
    3350:	6b 85       	ldd	r22, Y+11	; 0x0b
    3352:	7c 85       	ldd	r23, Y+12	; 0x0c
    3354:	8d 85       	ldd	r24, Y+13	; 0x0d
    3356:	9e 85       	ldd	r25, Y+14	; 0x0e
    3358:	20 e0       	ldi	r18, 0x00	; 0
    335a:	30 e0       	ldi	r19, 0x00	; 0
    335c:	40 e2       	ldi	r20, 0x20	; 32
    335e:	51 e4       	ldi	r21, 0x41	; 65
    3360:	0e 94 30 21 	call	0x4260	; 0x4260 <__mulsf3>
    3364:	dc 01       	movw	r26, r24
    3366:	cb 01       	movw	r24, r22
    3368:	bc 01       	movw	r22, r24
    336a:	cd 01       	movw	r24, r26
    336c:	0e 94 5a 1f 	call	0x3eb4	; 0x3eb4 <__fixunssfsi>
    3370:	dc 01       	movw	r26, r24
    3372:	cb 01       	movw	r24, r22
    3374:	9e 83       	std	Y+6, r25	; 0x06
    3376:	8d 83       	std	Y+5, r24	; 0x05
    3378:	0f c0       	rjmp	.+30     	; 0x3398 <display_actions+0x220>
    337a:	80 e7       	ldi	r24, 0x70	; 112
    337c:	91 e0       	ldi	r25, 0x01	; 1
    337e:	9c 83       	std	Y+4, r25	; 0x04
    3380:	8b 83       	std	Y+3, r24	; 0x03
    3382:	8b 81       	ldd	r24, Y+3	; 0x03
    3384:	9c 81       	ldd	r25, Y+4	; 0x04
    3386:	01 97       	sbiw	r24, 0x01	; 1
    3388:	f1 f7       	brne	.-4      	; 0x3386 <display_actions+0x20e>
    338a:	9c 83       	std	Y+4, r25	; 0x04
    338c:	8b 83       	std	Y+3, r24	; 0x03
		while(__ticks)
		{
			// wait 1/10 ms
			_delay_loop_2(((F_CPU) / 4e3) / 10);
			__ticks --;
    338e:	8d 81       	ldd	r24, Y+5	; 0x05
    3390:	9e 81       	ldd	r25, Y+6	; 0x06
    3392:	01 97       	sbiw	r24, 0x01	; 1
    3394:	9e 83       	std	Y+6, r25	; 0x06
    3396:	8d 83       	std	Y+5, r24	; 0x05
		__ticks = 1;
	else if (__tmp > 65535)
	{
		//	__ticks = requested delay in 1/10 ms
		__ticks = (uint16_t) (__ms * 10.0);
		while(__ticks)
    3398:	8d 81       	ldd	r24, Y+5	; 0x05
    339a:	9e 81       	ldd	r25, Y+6	; 0x06
    339c:	00 97       	sbiw	r24, 0x00	; 0
    339e:	69 f7       	brne	.-38     	; 0x337a <display_actions+0x202>
    33a0:	14 c0       	rjmp	.+40     	; 0x33ca <display_actions+0x252>
			__ticks --;
		}
		return;
	}
	else
		__ticks = (uint16_t)__tmp;
    33a2:	6f 81       	ldd	r22, Y+7	; 0x07
    33a4:	78 85       	ldd	r23, Y+8	; 0x08
    33a6:	89 85       	ldd	r24, Y+9	; 0x09
    33a8:	9a 85       	ldd	r25, Y+10	; 0x0a
    33aa:	0e 94 5a 1f 	call	0x3eb4	; 0x3eb4 <__fixunssfsi>
    33ae:	dc 01       	movw	r26, r24
    33b0:	cb 01       	movw	r24, r22
    33b2:	9e 83       	std	Y+6, r25	; 0x06
    33b4:	8d 83       	std	Y+5, r24	; 0x05
    33b6:	8d 81       	ldd	r24, Y+5	; 0x05
    33b8:	9e 81       	ldd	r25, Y+6	; 0x06
    33ba:	9a 83       	std	Y+2, r25	; 0x02
    33bc:	89 83       	std	Y+1, r24	; 0x01
    33be:	89 81       	ldd	r24, Y+1	; 0x01
    33c0:	9a 81       	ldd	r25, Y+2	; 0x02
    33c2:	01 97       	sbiw	r24, 0x01	; 1
    33c4:	f1 f7       	brne	.-4      	; 0x33c2 <display_actions+0x24a>
    33c6:	9a 83       	std	Y+2, r25	; 0x02
    33c8:	89 83       	std	Y+1, r24	; 0x01
				_delay_ms(1000);
			
	
				//printf("move fwd\n");
				lcd_wr_command(0x01);
    33ca:	81 e0       	ldi	r24, 0x01	; 1
    33cc:	0e 94 3f 06 	call	0xc7e	; 0xc7e <lcd_wr_command>
				lcd_string("move fwd");
    33d0:	86 e0       	ldi	r24, 0x06	; 6
    33d2:	92 e0       	ldi	r25, 0x02	; 2
    33d4:	0e 94 fd 08 	call	0x11fa	; 0x11fa <lcd_string>
				follow_path();
    33d8:	0e 94 ad 1e 	call	0x3d5a	; 0x3d5a <follow_path>
    33dc:	25 c1       	rjmp	.+586    	; 0x3628 <display_actions+0x4b0>
			

			}

			else if (abs(actionlist[i]-actionlist[i+1]) ==1)
    33de:	8f 85       	ldd	r24, Y+15	; 0x0f
    33e0:	98 89       	ldd	r25, Y+16	; 0x10
    33e2:	9c 01       	movw	r18, r24
    33e4:	22 0f       	add	r18, r18
    33e6:	33 1f       	adc	r19, r19
    33e8:	89 89       	ldd	r24, Y+17	; 0x11
    33ea:	9a 89       	ldd	r25, Y+18	; 0x12
    33ec:	fc 01       	movw	r30, r24
    33ee:	e2 0f       	add	r30, r18
    33f0:	f3 1f       	adc	r31, r19
    33f2:	40 81       	ld	r20, Z
    33f4:	51 81       	ldd	r21, Z+1	; 0x01
    33f6:	8f 85       	ldd	r24, Y+15	; 0x0f
    33f8:	98 89       	ldd	r25, Y+16	; 0x10
    33fa:	01 96       	adiw	r24, 0x01	; 1
    33fc:	9c 01       	movw	r18, r24
    33fe:	22 0f       	add	r18, r18
    3400:	33 1f       	adc	r19, r19
    3402:	89 89       	ldd	r24, Y+17	; 0x11
    3404:	9a 89       	ldd	r25, Y+18	; 0x12
    3406:	fc 01       	movw	r30, r24
    3408:	e2 0f       	add	r30, r18
    340a:	f3 1f       	adc	r31, r19
    340c:	80 81       	ld	r24, Z
    340e:	91 81       	ldd	r25, Z+1	; 0x01
    3410:	9a 01       	movw	r18, r20
    3412:	28 1b       	sub	r18, r24
    3414:	39 0b       	sbc	r19, r25
    3416:	c9 01       	movw	r24, r18
    3418:	98 8f       	std	Y+24, r25	; 0x18
    341a:	8f 8b       	std	Y+23, r24	; 0x17
    341c:	8f 89       	ldd	r24, Y+23	; 0x17
    341e:	98 8d       	ldd	r25, Y+24	; 0x18
    3420:	99 23       	and	r25, r25
    3422:	3c f4       	brge	.+14     	; 0x3432 <display_actions+0x2ba>
    3424:	2f 89       	ldd	r18, Y+23	; 0x17
    3426:	38 8d       	ldd	r19, Y+24	; 0x18
    3428:	30 95       	com	r19
    342a:	21 95       	neg	r18
    342c:	3f 4f       	sbci	r19, 0xFF	; 255
    342e:	38 8f       	std	Y+24, r19	; 0x18
    3430:	2f 8b       	std	Y+23, r18	; 0x17
    3432:	8f 89       	ldd	r24, Y+23	; 0x17
    3434:	98 8d       	ldd	r25, Y+24	; 0x18
    3436:	81 30       	cpi	r24, 0x01	; 1
    3438:	91 05       	cpc	r25, r1
    343a:	09 f0       	breq	.+2      	; 0x343e <display_actions+0x2c6>
    343c:	42 c0       	rjmp	.+132    	; 0x34c2 <display_actions+0x34a>
			{
			
				if(actionlist[i]<actionlist[i+1])
    343e:	8f 85       	ldd	r24, Y+15	; 0x0f
    3440:	98 89       	ldd	r25, Y+16	; 0x10
    3442:	9c 01       	movw	r18, r24
    3444:	22 0f       	add	r18, r18
    3446:	33 1f       	adc	r19, r19
    3448:	89 89       	ldd	r24, Y+17	; 0x11
    344a:	9a 89       	ldd	r25, Y+18	; 0x12
    344c:	fc 01       	movw	r30, r24
    344e:	e2 0f       	add	r30, r18
    3450:	f3 1f       	adc	r31, r19
    3452:	40 81       	ld	r20, Z
    3454:	51 81       	ldd	r21, Z+1	; 0x01
    3456:	8f 85       	ldd	r24, Y+15	; 0x0f
    3458:	98 89       	ldd	r25, Y+16	; 0x10
    345a:	01 96       	adiw	r24, 0x01	; 1
    345c:	9c 01       	movw	r18, r24
    345e:	22 0f       	add	r18, r18
    3460:	33 1f       	adc	r19, r19
    3462:	89 89       	ldd	r24, Y+17	; 0x11
    3464:	9a 89       	ldd	r25, Y+18	; 0x12
    3466:	fc 01       	movw	r30, r24
    3468:	e2 0f       	add	r30, r18
    346a:	f3 1f       	adc	r31, r19
    346c:	80 81       	ld	r24, Z
    346e:	91 81       	ldd	r25, Z+1	; 0x01
    3470:	48 17       	cp	r20, r24
    3472:	59 07       	cpc	r21, r25
    3474:	9c f4       	brge	.+38     	; 0x349c <display_actions+0x324>
				{
					//printf("moving left 90deg\n");
					lcd_wr_command(0x01);
    3476:	81 e0       	ldi	r24, 0x01	; 1
    3478:	0e 94 3f 06 	call	0xc7e	; 0xc7e <lcd_wr_command>
					lcd_string("rotate left");
    347c:	8c e4       	ldi	r24, 0x4C	; 76
    347e:	92 e0       	ldi	r25, 0x02	; 2
    3480:	0e 94 fd 08 	call	0x11fa	; 0x11fa <lcd_string>
					rotate_left_901();
    3484:	0e 94 33 13 	call	0x2666	; 0x2666 <rotate_left_901>
				
				
					//printf("move fwd\n");
					lcd_wr_command(0x01);
    3488:	81 e0       	ldi	r24, 0x01	; 1
    348a:	0e 94 3f 06 	call	0xc7e	; 0xc7e <lcd_wr_command>
					lcd_string("move fwd");
    348e:	86 e0       	ldi	r24, 0x06	; 6
    3490:	92 e0       	ldi	r25, 0x02	; 2
    3492:	0e 94 fd 08 	call	0x11fa	; 0x11fa <lcd_string>
					follow_path();
    3496:	0e 94 ad 1e 	call	0x3d5a	; 0x3d5a <follow_path>
    349a:	c6 c0       	rjmp	.+396    	; 0x3628 <display_actions+0x4b0>
				}
				else
				{
				
					//printf("moving right 90 deg\n");
					lcd_wr_command(0x01);
    349c:	81 e0       	ldi	r24, 0x01	; 1
    349e:	0e 94 3f 06 	call	0xc7e	; 0xc7e <lcd_wr_command>
					lcd_string("rotate right");
    34a2:	88 e5       	ldi	r24, 0x58	; 88
    34a4:	92 e0       	ldi	r25, 0x02	; 2
    34a6:	0e 94 fd 08 	call	0x11fa	; 0x11fa <lcd_string>
					rotate_right_901();
    34aa:	0e 94 77 12 	call	0x24ee	; 0x24ee <rotate_right_901>
				
				
				
					//printf("move fwd\n");
					lcd_wr_command(0x01);
    34ae:	81 e0       	ldi	r24, 0x01	; 1
    34b0:	0e 94 3f 06 	call	0xc7e	; 0xc7e <lcd_wr_command>
					lcd_string("move fwd");
    34b4:	86 e0       	ldi	r24, 0x06	; 6
    34b6:	92 e0       	ldi	r25, 0x02	; 2
    34b8:	0e 94 fd 08 	call	0x11fa	; 0x11fa <lcd_string>
					follow_path();
    34bc:	0e 94 ad 1e 	call	0x3d5a	; 0x3d5a <follow_path>
    34c0:	b3 c0       	rjmp	.+358    	; 0x3628 <display_actions+0x4b0>
				
				}

			}
			else if (abs(actionlist[i]-actionlist[i+1]) ==2)
    34c2:	8f 85       	ldd	r24, Y+15	; 0x0f
    34c4:	98 89       	ldd	r25, Y+16	; 0x10
    34c6:	9c 01       	movw	r18, r24
    34c8:	22 0f       	add	r18, r18
    34ca:	33 1f       	adc	r19, r19
    34cc:	89 89       	ldd	r24, Y+17	; 0x11
    34ce:	9a 89       	ldd	r25, Y+18	; 0x12
    34d0:	fc 01       	movw	r30, r24
    34d2:	e2 0f       	add	r30, r18
    34d4:	f3 1f       	adc	r31, r19
    34d6:	40 81       	ld	r20, Z
    34d8:	51 81       	ldd	r21, Z+1	; 0x01
    34da:	8f 85       	ldd	r24, Y+15	; 0x0f
    34dc:	98 89       	ldd	r25, Y+16	; 0x10
    34de:	01 96       	adiw	r24, 0x01	; 1
    34e0:	9c 01       	movw	r18, r24
    34e2:	22 0f       	add	r18, r18
    34e4:	33 1f       	adc	r19, r19
    34e6:	89 89       	ldd	r24, Y+17	; 0x11
    34e8:	9a 89       	ldd	r25, Y+18	; 0x12
    34ea:	fc 01       	movw	r30, r24
    34ec:	e2 0f       	add	r30, r18
    34ee:	f3 1f       	adc	r31, r19
    34f0:	80 81       	ld	r24, Z
    34f2:	91 81       	ldd	r25, Z+1	; 0x01
    34f4:	9a 01       	movw	r18, r20
    34f6:	28 1b       	sub	r18, r24
    34f8:	39 0b       	sbc	r19, r25
    34fa:	c9 01       	movw	r24, r18
    34fc:	9e 8b       	std	Y+22, r25	; 0x16
    34fe:	8d 8b       	std	Y+21, r24	; 0x15
    3500:	8d 89       	ldd	r24, Y+21	; 0x15
    3502:	9e 89       	ldd	r25, Y+22	; 0x16
    3504:	99 23       	and	r25, r25
    3506:	3c f4       	brge	.+14     	; 0x3516 <display_actions+0x39e>
    3508:	2d 89       	ldd	r18, Y+21	; 0x15
    350a:	3e 89       	ldd	r19, Y+22	; 0x16
    350c:	30 95       	com	r19
    350e:	21 95       	neg	r18
    3510:	3f 4f       	sbci	r19, 0xFF	; 255
    3512:	3e 8b       	std	Y+22, r19	; 0x16
    3514:	2d 8b       	std	Y+21, r18	; 0x15
    3516:	8d 89       	ldd	r24, Y+21	; 0x15
    3518:	9e 89       	ldd	r25, Y+22	; 0x16
    351a:	82 30       	cpi	r24, 0x02	; 2
    351c:	91 05       	cpc	r25, r1
    351e:	99 f4       	brne	.+38     	; 0x3546 <display_actions+0x3ce>
			{
			
				//printf("moving left 90deg twice\n");
				lcd_wr_command(0x01);
    3520:	81 e0       	ldi	r24, 0x01	; 1
    3522:	0e 94 3f 06 	call	0xc7e	; 0xc7e <lcd_wr_command>
				lcd_string("rotate left");
    3526:	8c e4       	ldi	r24, 0x4C	; 76
    3528:	92 e0       	ldi	r25, 0x02	; 2
    352a:	0e 94 fd 08 	call	0x11fa	; 0x11fa <lcd_string>
				// rotate_left_901();
				// lcd_wr_command(0x01);
				// lcd_string("rotate left");
				// rotate_left_901();
				rotate_180();
    352e:	0e 94 eb 13 	call	0x27d6	; 0x27d6 <rotate_180>
			
			
			
				//printf("move fwd\n");
				lcd_wr_command(0x01);
    3532:	81 e0       	ldi	r24, 0x01	; 1
    3534:	0e 94 3f 06 	call	0xc7e	; 0xc7e <lcd_wr_command>
				lcd_string("move fwd");
    3538:	86 e0       	ldi	r24, 0x06	; 6
    353a:	92 e0       	ldi	r25, 0x02	; 2
    353c:	0e 94 fd 08 	call	0x11fa	; 0x11fa <lcd_string>
				follow_path();
    3540:	0e 94 ad 1e 	call	0x3d5a	; 0x3d5a <follow_path>
    3544:	71 c0       	rjmp	.+226    	; 0x3628 <display_actions+0x4b0>
			

			}
			else if (abs(actionlist[i]-actionlist[i+1]) ==3)
    3546:	8f 85       	ldd	r24, Y+15	; 0x0f
    3548:	98 89       	ldd	r25, Y+16	; 0x10
    354a:	9c 01       	movw	r18, r24
    354c:	22 0f       	add	r18, r18
    354e:	33 1f       	adc	r19, r19
    3550:	89 89       	ldd	r24, Y+17	; 0x11
    3552:	9a 89       	ldd	r25, Y+18	; 0x12
    3554:	fc 01       	movw	r30, r24
    3556:	e2 0f       	add	r30, r18
    3558:	f3 1f       	adc	r31, r19
    355a:	40 81       	ld	r20, Z
    355c:	51 81       	ldd	r21, Z+1	; 0x01
    355e:	8f 85       	ldd	r24, Y+15	; 0x0f
    3560:	98 89       	ldd	r25, Y+16	; 0x10
    3562:	01 96       	adiw	r24, 0x01	; 1
    3564:	9c 01       	movw	r18, r24
    3566:	22 0f       	add	r18, r18
    3568:	33 1f       	adc	r19, r19
    356a:	89 89       	ldd	r24, Y+17	; 0x11
    356c:	9a 89       	ldd	r25, Y+18	; 0x12
    356e:	fc 01       	movw	r30, r24
    3570:	e2 0f       	add	r30, r18
    3572:	f3 1f       	adc	r31, r19
    3574:	80 81       	ld	r24, Z
    3576:	91 81       	ldd	r25, Z+1	; 0x01
    3578:	9a 01       	movw	r18, r20
    357a:	28 1b       	sub	r18, r24
    357c:	39 0b       	sbc	r19, r25
    357e:	c9 01       	movw	r24, r18
    3580:	9c 8b       	std	Y+20, r25	; 0x14
    3582:	8b 8b       	std	Y+19, r24	; 0x13
    3584:	8b 89       	ldd	r24, Y+19	; 0x13
    3586:	9c 89       	ldd	r25, Y+20	; 0x14
    3588:	99 23       	and	r25, r25
    358a:	3c f4       	brge	.+14     	; 0x359a <display_actions+0x422>
    358c:	2b 89       	ldd	r18, Y+19	; 0x13
    358e:	3c 89       	ldd	r19, Y+20	; 0x14
    3590:	30 95       	com	r19
    3592:	21 95       	neg	r18
    3594:	3f 4f       	sbci	r19, 0xFF	; 255
    3596:	3c 8b       	std	Y+20, r19	; 0x14
    3598:	2b 8b       	std	Y+19, r18	; 0x13
    359a:	8b 89       	ldd	r24, Y+19	; 0x13
    359c:	9c 89       	ldd	r25, Y+20	; 0x14
    359e:	83 30       	cpi	r24, 0x03	; 3
    35a0:	91 05       	cpc	r25, r1
    35a2:	09 f0       	breq	.+2      	; 0x35a6 <display_actions+0x42e>
    35a4:	41 c0       	rjmp	.+130    	; 0x3628 <display_actions+0x4b0>
			{
				if(actionlist[i]>actionlist[i+1])
    35a6:	8f 85       	ldd	r24, Y+15	; 0x0f
    35a8:	98 89       	ldd	r25, Y+16	; 0x10
    35aa:	9c 01       	movw	r18, r24
    35ac:	22 0f       	add	r18, r18
    35ae:	33 1f       	adc	r19, r19
    35b0:	89 89       	ldd	r24, Y+17	; 0x11
    35b2:	9a 89       	ldd	r25, Y+18	; 0x12
    35b4:	fc 01       	movw	r30, r24
    35b6:	e2 0f       	add	r30, r18
    35b8:	f3 1f       	adc	r31, r19
    35ba:	40 81       	ld	r20, Z
    35bc:	51 81       	ldd	r21, Z+1	; 0x01
    35be:	8f 85       	ldd	r24, Y+15	; 0x0f
    35c0:	98 89       	ldd	r25, Y+16	; 0x10
    35c2:	01 96       	adiw	r24, 0x01	; 1
    35c4:	9c 01       	movw	r18, r24
    35c6:	22 0f       	add	r18, r18
    35c8:	33 1f       	adc	r19, r19
    35ca:	89 89       	ldd	r24, Y+17	; 0x11
    35cc:	9a 89       	ldd	r25, Y+18	; 0x12
    35ce:	fc 01       	movw	r30, r24
    35d0:	e2 0f       	add	r30, r18
    35d2:	f3 1f       	adc	r31, r19
    35d4:	80 81       	ld	r24, Z
    35d6:	91 81       	ldd	r25, Z+1	; 0x01
    35d8:	84 17       	cp	r24, r20
    35da:	95 07       	cpc	r25, r21
    35dc:	9c f4       	brge	.+38     	; 0x3604 <display_actions+0x48c>
				{
				
					//printf("moving left 90deg\n");
					lcd_wr_command(0x01);
    35de:	81 e0       	ldi	r24, 0x01	; 1
    35e0:	0e 94 3f 06 	call	0xc7e	; 0xc7e <lcd_wr_command>
					lcd_string("rotate left");
    35e4:	8c e4       	ldi	r24, 0x4C	; 76
    35e6:	92 e0       	ldi	r25, 0x02	; 2
    35e8:	0e 94 fd 08 	call	0x11fa	; 0x11fa <lcd_string>
					rotate_left_901();
    35ec:	0e 94 33 13 	call	0x2666	; 0x2666 <rotate_left_901>
				
				
					//printf("move fwd\n");
					lcd_wr_command(0x01);
    35f0:	81 e0       	ldi	r24, 0x01	; 1
    35f2:	0e 94 3f 06 	call	0xc7e	; 0xc7e <lcd_wr_command>
					lcd_string("move fwd");
    35f6:	86 e0       	ldi	r24, 0x06	; 6
    35f8:	92 e0       	ldi	r25, 0x02	; 2
    35fa:	0e 94 fd 08 	call	0x11fa	; 0x11fa <lcd_string>
					follow_path();
    35fe:	0e 94 ad 1e 	call	0x3d5a	; 0x3d5a <follow_path>
    3602:	12 c0       	rjmp	.+36     	; 0x3628 <display_actions+0x4b0>
				}
				else
				{
				
					//printf("moving right 90 deg\n");
					lcd_wr_command(0x01);
    3604:	81 e0       	ldi	r24, 0x01	; 1
    3606:	0e 94 3f 06 	call	0xc7e	; 0xc7e <lcd_wr_command>
					lcd_string("rotate right");
    360a:	88 e5       	ldi	r24, 0x58	; 88
    360c:	92 e0       	ldi	r25, 0x02	; 2
    360e:	0e 94 fd 08 	call	0x11fa	; 0x11fa <lcd_string>
					rotate_right_901();
    3612:	0e 94 77 12 	call	0x24ee	; 0x24ee <rotate_right_901>
				
				
				
					//printf("move fwd\n");
					lcd_wr_command(0x01);
    3616:	81 e0       	ldi	r24, 0x01	; 1
    3618:	0e 94 3f 06 	call	0xc7e	; 0xc7e <lcd_wr_command>
					lcd_string("move fwd");
    361c:	86 e0       	ldi	r24, 0x06	; 6
    361e:	92 e0       	ldi	r25, 0x02	; 2
    3620:	0e 94 fd 08 	call	0x11fa	; 0x11fa <lcd_string>
					follow_path();
    3624:	0e 94 ad 1e 	call	0x3d5a	; 0x3d5a <follow_path>
	//printf("move fwd\n");
	lcd_wr_command(0x01);
	lcd_string("move fwd");
	follow_path();
	
	for(i=0; actionlist[i+1] !=7 ;i++)
    3628:	8f 85       	ldd	r24, Y+15	; 0x0f
    362a:	98 89       	ldd	r25, Y+16	; 0x10
    362c:	01 96       	adiw	r24, 0x01	; 1
    362e:	98 8b       	std	Y+16, r25	; 0x10
    3630:	8f 87       	std	Y+15, r24	; 0x0f
    3632:	8f 85       	ldd	r24, Y+15	; 0x0f
    3634:	98 89       	ldd	r25, Y+16	; 0x10
    3636:	01 96       	adiw	r24, 0x01	; 1
    3638:	9c 01       	movw	r18, r24
    363a:	22 0f       	add	r18, r18
    363c:	33 1f       	adc	r19, r19
    363e:	89 89       	ldd	r24, Y+17	; 0x11
    3640:	9a 89       	ldd	r25, Y+18	; 0x12
    3642:	fc 01       	movw	r30, r24
    3644:	e2 0f       	add	r30, r18
    3646:	f3 1f       	adc	r31, r19
    3648:	80 81       	ld	r24, Z
    364a:	91 81       	ldd	r25, Z+1	; 0x01
    364c:	87 30       	cpi	r24, 0x07	; 7
    364e:	91 05       	cpc	r25, r1
    3650:	09 f0       	breq	.+2      	; 0x3654 <display_actions+0x4dc>
    3652:	aa cd       	rjmp	.-1196   	; 0x31a8 <display_actions+0x30>
			}
		}
		
	}

}
    3654:	68 96       	adiw	r28, 0x18	; 24
    3656:	0f b6       	in	r0, 0x3f	; 63
    3658:	f8 94       	cli
    365a:	de bf       	out	0x3e, r29	; 62
    365c:	0f be       	out	0x3f, r0	; 63
    365e:	cd bf       	out	0x3d, r28	; 61
    3660:	cf 91       	pop	r28
    3662:	df 91       	pop	r29
    3664:	08 95       	ret

00003666 <findactionspace>:

void findactionspace()
{
    3666:	df 93       	push	r29
    3668:	cf 93       	push	r28
    366a:	cd b7       	in	r28, 0x3d	; 61
    366c:	de b7       	in	r29, 0x3e	; 62
	move(cur_node,next_node);
    366e:	80 91 5a 04 	lds	r24, 0x045A
    3672:	90 91 5b 04 	lds	r25, 0x045B
    3676:	20 91 46 04 	lds	r18, 0x0446
    367a:	30 91 47 04 	lds	r19, 0x0447
    367e:	b9 01       	movw	r22, r18
    3680:	0e 94 8b 1b 	call	0x3716	; 0x3716 <move>
	
	cur_node=base_station;
    3684:	80 91 04 02 	lds	r24, 0x0204
    3688:	90 91 05 02 	lds	r25, 0x0205
    368c:	90 93 5b 04 	sts	0x045B, r25
    3690:	80 93 5a 04 	sts	0x045A, r24
	next_node=dispatch_point;
    3694:	80 91 02 02 	lds	r24, 0x0202
    3698:	90 91 03 02 	lds	r25, 0x0203
    369c:	90 93 47 04 	sts	0x0447, r25
    36a0:	80 93 46 04 	sts	0x0446, r24
	move(cur_node,next_node);
    36a4:	80 91 5a 04 	lds	r24, 0x045A
    36a8:	90 91 5b 04 	lds	r25, 0x045B
    36ac:	20 91 46 04 	lds	r18, 0x0446
    36b0:	30 91 47 04 	lds	r19, 0x0447
    36b4:	b9 01       	movw	r22, r18
    36b6:	0e 94 8b 1b 	call	0x3716	; 0x3716 <move>
		
	cur_node=dispatch_point;
    36ba:	80 91 02 02 	lds	r24, 0x0202
    36be:	90 91 03 02 	lds	r25, 0x0203
    36c2:	90 93 5b 04 	sts	0x045B, r25
    36c6:	80 93 5a 04 	sts	0x045A, r24
	next_node=base_station;
    36ca:	80 91 04 02 	lds	r24, 0x0204
    36ce:	90 91 05 02 	lds	r25, 0x0205
    36d2:	90 93 47 04 	sts	0x0447, r25
    36d6:	80 93 46 04 	sts	0x0446, r24
	move(cur_node,next_node);
    36da:	80 91 5a 04 	lds	r24, 0x045A
    36de:	90 91 5b 04 	lds	r25, 0x045B
    36e2:	20 91 46 04 	lds	r18, 0x0446
    36e6:	30 91 47 04 	lds	r19, 0x0447
    36ea:	b9 01       	movw	r22, r18
    36ec:	0e 94 8b 1b 	call	0x3716	; 0x3716 <move>
	
	cur_node=base_station;
    36f0:	80 91 04 02 	lds	r24, 0x0204
    36f4:	90 91 05 02 	lds	r25, 0x0205
    36f8:	90 93 5b 04 	sts	0x045B, r25
    36fc:	80 93 5a 04 	sts	0x045A, r24
	next_node=store;		
    3700:	80 91 4e 04 	lds	r24, 0x044E
    3704:	90 91 4f 04 	lds	r25, 0x044F
    3708:	90 93 47 04 	sts	0x0447, r25
    370c:	80 93 46 04 	sts	0x0446, r24
	
}
    3710:	cf 91       	pop	r28
    3712:	df 91       	pop	r29
    3714:	08 95       	ret

00003716 <move>:

void move(int from, int to)
{
    3716:	df 93       	push	r29
    3718:	cf 93       	push	r28
    371a:	00 d0       	rcall	.+0      	; 0x371c <move+0x6>
    371c:	0f 92       	push	r0
    371e:	cd b7       	in	r28, 0x3d	; 61
    3720:	de b7       	in	r29, 0x3e	; 62
    3722:	9a 83       	std	Y+2, r25	; 0x02
    3724:	89 83       	std	Y+1, r24	; 0x01
    3726:	7c 83       	std	Y+4, r23	; 0x04
    3728:	6b 83       	std	Y+3, r22	; 0x03
	if(from==base_station )
    372a:	20 91 04 02 	lds	r18, 0x0204
    372e:	30 91 05 02 	lds	r19, 0x0205
    3732:	89 81       	ldd	r24, Y+1	; 0x01
    3734:	9a 81       	ldd	r25, Y+2	; 0x02
    3736:	82 17       	cp	r24, r18
    3738:	93 07       	cpc	r25, r19
    373a:	09 f0       	breq	.+2      	; 0x373e <move+0x28>
    373c:	9e c2       	rjmp	.+1340   	; 0x3c7a <move+0x564>
	{
		if(to==store)
    373e:	20 91 4e 04 	lds	r18, 0x044E
    3742:	30 91 4f 04 	lds	r19, 0x044F
    3746:	8b 81       	ldd	r24, Y+3	; 0x03
    3748:	9c 81       	ldd	r25, Y+4	; 0x04
    374a:	82 17       	cp	r24, r18
    374c:	93 07       	cpc	r25, r19
    374e:	09 f0       	breq	.+2      	; 0x3752 <move+0x3c>
    3750:	04 c2       	rjmp	.+1032   	; 0x3b5a <move+0x444>
		{
			if(store==4)
    3752:	80 91 4e 04 	lds	r24, 0x044E
    3756:	90 91 4f 04 	lds	r25, 0x044F
    375a:	84 30       	cpi	r24, 0x04	; 4
    375c:	91 05       	cpc	r25, r1
    375e:	09 f0       	breq	.+2      	; 0x3762 <move+0x4c>
    3760:	65 c0       	rjmp	.+202    	; 0x382c <move+0x116>
			{
				action_space[action_counter++]=4;
    3762:	20 91 6e 03 	lds	r18, 0x036E
    3766:	30 91 6f 03 	lds	r19, 0x036F
    376a:	c9 01       	movw	r24, r18
    376c:	88 0f       	add	r24, r24
    376e:	99 1f       	adc	r25, r25
    3770:	fc 01       	movw	r30, r24
    3772:	e0 59       	subi	r30, 0x90	; 144
    3774:	fc 4f       	sbci	r31, 0xFC	; 252
    3776:	84 e0       	ldi	r24, 0x04	; 4
    3778:	90 e0       	ldi	r25, 0x00	; 0
    377a:	91 83       	std	Z+1, r25	; 0x01
    377c:	80 83       	st	Z, r24
    377e:	c9 01       	movw	r24, r18
    3780:	01 96       	adiw	r24, 0x01	; 1
    3782:	90 93 6f 03 	sts	0x036F, r25
    3786:	80 93 6e 03 	sts	0x036E, r24
				action_space[action_counter++]=3;
    378a:	20 91 6e 03 	lds	r18, 0x036E
    378e:	30 91 6f 03 	lds	r19, 0x036F
    3792:	c9 01       	movw	r24, r18
    3794:	88 0f       	add	r24, r24
    3796:	99 1f       	adc	r25, r25
    3798:	fc 01       	movw	r30, r24
    379a:	e0 59       	subi	r30, 0x90	; 144
    379c:	fc 4f       	sbci	r31, 0xFC	; 252
    379e:	83 e0       	ldi	r24, 0x03	; 3
    37a0:	90 e0       	ldi	r25, 0x00	; 0
    37a2:	91 83       	std	Z+1, r25	; 0x01
    37a4:	80 83       	st	Z, r24
    37a6:	c9 01       	movw	r24, r18
    37a8:	01 96       	adiw	r24, 0x01	; 1
    37aa:	90 93 6f 03 	sts	0x036F, r25
    37ae:	80 93 6e 03 	sts	0x036E, r24

				action_space[action_counter++]=5;
    37b2:	20 91 6e 03 	lds	r18, 0x036E
    37b6:	30 91 6f 03 	lds	r19, 0x036F
    37ba:	c9 01       	movw	r24, r18
    37bc:	88 0f       	add	r24, r24
    37be:	99 1f       	adc	r25, r25
    37c0:	fc 01       	movw	r30, r24
    37c2:	e0 59       	subi	r30, 0x90	; 144
    37c4:	fc 4f       	sbci	r31, 0xFC	; 252
    37c6:	85 e0       	ldi	r24, 0x05	; 5
    37c8:	90 e0       	ldi	r25, 0x00	; 0
    37ca:	91 83       	std	Z+1, r25	; 0x01
    37cc:	80 83       	st	Z, r24
    37ce:	c9 01       	movw	r24, r18
    37d0:	01 96       	adiw	r24, 0x01	; 1
    37d2:	90 93 6f 03 	sts	0x036F, r25
    37d6:	80 93 6e 03 	sts	0x036E, r24

				action_space[action_counter++]=1;
    37da:	20 91 6e 03 	lds	r18, 0x036E
    37de:	30 91 6f 03 	lds	r19, 0x036F
    37e2:	c9 01       	movw	r24, r18
    37e4:	88 0f       	add	r24, r24
    37e6:	99 1f       	adc	r25, r25
    37e8:	fc 01       	movw	r30, r24
    37ea:	e0 59       	subi	r30, 0x90	; 144
    37ec:	fc 4f       	sbci	r31, 0xFC	; 252
    37ee:	81 e0       	ldi	r24, 0x01	; 1
    37f0:	90 e0       	ldi	r25, 0x00	; 0
    37f2:	91 83       	std	Z+1, r25	; 0x01
    37f4:	80 83       	st	Z, r24
    37f6:	c9 01       	movw	r24, r18
    37f8:	01 96       	adiw	r24, 0x01	; 1
    37fa:	90 93 6f 03 	sts	0x036F, r25
    37fe:	80 93 6e 03 	sts	0x036E, r24
				action_space[action_counter++]=2;
    3802:	20 91 6e 03 	lds	r18, 0x036E
    3806:	30 91 6f 03 	lds	r19, 0x036F
    380a:	c9 01       	movw	r24, r18
    380c:	88 0f       	add	r24, r24
    380e:	99 1f       	adc	r25, r25
    3810:	fc 01       	movw	r30, r24
    3812:	e0 59       	subi	r30, 0x90	; 144
    3814:	fc 4f       	sbci	r31, 0xFC	; 252
    3816:	82 e0       	ldi	r24, 0x02	; 2
    3818:	90 e0       	ldi	r25, 0x00	; 0
    381a:	91 83       	std	Z+1, r25	; 0x01
    381c:	80 83       	st	Z, r24
    381e:	c9 01       	movw	r24, r18
    3820:	01 96       	adiw	r24, 0x01	; 1
    3822:	90 93 6f 03 	sts	0x036F, r25
    3826:	80 93 6e 03 	sts	0x036E, r24
    382a:	27 c2       	rjmp	.+1102   	; 0x3c7a <move+0x564>
			
			}
			else if(store==6)
    382c:	80 91 4e 04 	lds	r24, 0x044E
    3830:	90 91 4f 04 	lds	r25, 0x044F
    3834:	86 30       	cpi	r24, 0x06	; 6
    3836:	91 05       	cpc	r25, r1
    3838:	09 f0       	breq	.+2      	; 0x383c <move+0x126>
    383a:	65 c0       	rjmp	.+202    	; 0x3906 <move+0x1f0>
			{
				action_space[action_counter++]=4;
    383c:	20 91 6e 03 	lds	r18, 0x036E
    3840:	30 91 6f 03 	lds	r19, 0x036F
    3844:	c9 01       	movw	r24, r18
    3846:	88 0f       	add	r24, r24
    3848:	99 1f       	adc	r25, r25
    384a:	fc 01       	movw	r30, r24
    384c:	e0 59       	subi	r30, 0x90	; 144
    384e:	fc 4f       	sbci	r31, 0xFC	; 252
    3850:	84 e0       	ldi	r24, 0x04	; 4
    3852:	90 e0       	ldi	r25, 0x00	; 0
    3854:	91 83       	std	Z+1, r25	; 0x01
    3856:	80 83       	st	Z, r24
    3858:	c9 01       	movw	r24, r18
    385a:	01 96       	adiw	r24, 0x01	; 1
    385c:	90 93 6f 03 	sts	0x036F, r25
    3860:	80 93 6e 03 	sts	0x036E, r24
				action_space[action_counter++]=1;
    3864:	20 91 6e 03 	lds	r18, 0x036E
    3868:	30 91 6f 03 	lds	r19, 0x036F
    386c:	c9 01       	movw	r24, r18
    386e:	88 0f       	add	r24, r24
    3870:	99 1f       	adc	r25, r25
    3872:	fc 01       	movw	r30, r24
    3874:	e0 59       	subi	r30, 0x90	; 144
    3876:	fc 4f       	sbci	r31, 0xFC	; 252
    3878:	81 e0       	ldi	r24, 0x01	; 1
    387a:	90 e0       	ldi	r25, 0x00	; 0
    387c:	91 83       	std	Z+1, r25	; 0x01
    387e:	80 83       	st	Z, r24
    3880:	c9 01       	movw	r24, r18
    3882:	01 96       	adiw	r24, 0x01	; 1
    3884:	90 93 6f 03 	sts	0x036F, r25
    3888:	80 93 6e 03 	sts	0x036E, r24

				action_space[action_counter++]=5;
    388c:	20 91 6e 03 	lds	r18, 0x036E
    3890:	30 91 6f 03 	lds	r19, 0x036F
    3894:	c9 01       	movw	r24, r18
    3896:	88 0f       	add	r24, r24
    3898:	99 1f       	adc	r25, r25
    389a:	fc 01       	movw	r30, r24
    389c:	e0 59       	subi	r30, 0x90	; 144
    389e:	fc 4f       	sbci	r31, 0xFC	; 252
    38a0:	85 e0       	ldi	r24, 0x05	; 5
    38a2:	90 e0       	ldi	r25, 0x00	; 0
    38a4:	91 83       	std	Z+1, r25	; 0x01
    38a6:	80 83       	st	Z, r24
    38a8:	c9 01       	movw	r24, r18
    38aa:	01 96       	adiw	r24, 0x01	; 1
    38ac:	90 93 6f 03 	sts	0x036F, r25
    38b0:	80 93 6e 03 	sts	0x036E, r24

				action_space[action_counter++]=3;
    38b4:	20 91 6e 03 	lds	r18, 0x036E
    38b8:	30 91 6f 03 	lds	r19, 0x036F
    38bc:	c9 01       	movw	r24, r18
    38be:	88 0f       	add	r24, r24
    38c0:	99 1f       	adc	r25, r25
    38c2:	fc 01       	movw	r30, r24
    38c4:	e0 59       	subi	r30, 0x90	; 144
    38c6:	fc 4f       	sbci	r31, 0xFC	; 252
    38c8:	83 e0       	ldi	r24, 0x03	; 3
    38ca:	90 e0       	ldi	r25, 0x00	; 0
    38cc:	91 83       	std	Z+1, r25	; 0x01
    38ce:	80 83       	st	Z, r24
    38d0:	c9 01       	movw	r24, r18
    38d2:	01 96       	adiw	r24, 0x01	; 1
    38d4:	90 93 6f 03 	sts	0x036F, r25
    38d8:	80 93 6e 03 	sts	0x036E, r24
				action_space[action_counter++]=2;
    38dc:	20 91 6e 03 	lds	r18, 0x036E
    38e0:	30 91 6f 03 	lds	r19, 0x036F
    38e4:	c9 01       	movw	r24, r18
    38e6:	88 0f       	add	r24, r24
    38e8:	99 1f       	adc	r25, r25
    38ea:	fc 01       	movw	r30, r24
    38ec:	e0 59       	subi	r30, 0x90	; 144
    38ee:	fc 4f       	sbci	r31, 0xFC	; 252
    38f0:	82 e0       	ldi	r24, 0x02	; 2
    38f2:	90 e0       	ldi	r25, 0x00	; 0
    38f4:	91 83       	std	Z+1, r25	; 0x01
    38f6:	80 83       	st	Z, r24
    38f8:	c9 01       	movw	r24, r18
    38fa:	01 96       	adiw	r24, 0x01	; 1
    38fc:	90 93 6f 03 	sts	0x036F, r25
    3900:	80 93 6e 03 	sts	0x036E, r24
    3904:	ba c1       	rjmp	.+884    	; 0x3c7a <move+0x564>

			}
			else if(store==1)
    3906:	80 91 4e 04 	lds	r24, 0x044E
    390a:	90 91 4f 04 	lds	r25, 0x044F
    390e:	81 30       	cpi	r24, 0x01	; 1
    3910:	91 05       	cpc	r25, r1
    3912:	09 f0       	breq	.+2      	; 0x3916 <move+0x200>
    3914:	8d c0       	rjmp	.+282    	; 0x3a30 <move+0x31a>
			{
				action_space[action_counter++]=4;
    3916:	20 91 6e 03 	lds	r18, 0x036E
    391a:	30 91 6f 03 	lds	r19, 0x036F
    391e:	c9 01       	movw	r24, r18
    3920:	88 0f       	add	r24, r24
    3922:	99 1f       	adc	r25, r25
    3924:	fc 01       	movw	r30, r24
    3926:	e0 59       	subi	r30, 0x90	; 144
    3928:	fc 4f       	sbci	r31, 0xFC	; 252
    392a:	84 e0       	ldi	r24, 0x04	; 4
    392c:	90 e0       	ldi	r25, 0x00	; 0
    392e:	91 83       	std	Z+1, r25	; 0x01
    3930:	80 83       	st	Z, r24
    3932:	c9 01       	movw	r24, r18
    3934:	01 96       	adiw	r24, 0x01	; 1
    3936:	90 93 6f 03 	sts	0x036F, r25
    393a:	80 93 6e 03 	sts	0x036E, r24
				action_space[action_counter++]=4;
    393e:	20 91 6e 03 	lds	r18, 0x036E
    3942:	30 91 6f 03 	lds	r19, 0x036F
    3946:	c9 01       	movw	r24, r18
    3948:	88 0f       	add	r24, r24
    394a:	99 1f       	adc	r25, r25
    394c:	fc 01       	movw	r30, r24
    394e:	e0 59       	subi	r30, 0x90	; 144
    3950:	fc 4f       	sbci	r31, 0xFC	; 252
    3952:	84 e0       	ldi	r24, 0x04	; 4
    3954:	90 e0       	ldi	r25, 0x00	; 0
    3956:	91 83       	std	Z+1, r25	; 0x01
    3958:	80 83       	st	Z, r24
    395a:	c9 01       	movw	r24, r18
    395c:	01 96       	adiw	r24, 0x01	; 1
    395e:	90 93 6f 03 	sts	0x036F, r25
    3962:	80 93 6e 03 	sts	0x036E, r24
				action_space[action_counter++]=3;
    3966:	20 91 6e 03 	lds	r18, 0x036E
    396a:	30 91 6f 03 	lds	r19, 0x036F
    396e:	c9 01       	movw	r24, r18
    3970:	88 0f       	add	r24, r24
    3972:	99 1f       	adc	r25, r25
    3974:	fc 01       	movw	r30, r24
    3976:	e0 59       	subi	r30, 0x90	; 144
    3978:	fc 4f       	sbci	r31, 0xFC	; 252
    397a:	83 e0       	ldi	r24, 0x03	; 3
    397c:	90 e0       	ldi	r25, 0x00	; 0
    397e:	91 83       	std	Z+1, r25	; 0x01
    3980:	80 83       	st	Z, r24
    3982:	c9 01       	movw	r24, r18
    3984:	01 96       	adiw	r24, 0x01	; 1
    3986:	90 93 6f 03 	sts	0x036F, r25
    398a:	80 93 6e 03 	sts	0x036E, r24

				action_space[action_counter++]=5;
    398e:	20 91 6e 03 	lds	r18, 0x036E
    3992:	30 91 6f 03 	lds	r19, 0x036F
    3996:	c9 01       	movw	r24, r18
    3998:	88 0f       	add	r24, r24
    399a:	99 1f       	adc	r25, r25
    399c:	fc 01       	movw	r30, r24
    399e:	e0 59       	subi	r30, 0x90	; 144
    39a0:	fc 4f       	sbci	r31, 0xFC	; 252
    39a2:	85 e0       	ldi	r24, 0x05	; 5
    39a4:	90 e0       	ldi	r25, 0x00	; 0
    39a6:	91 83       	std	Z+1, r25	; 0x01
    39a8:	80 83       	st	Z, r24
    39aa:	c9 01       	movw	r24, r18
    39ac:	01 96       	adiw	r24, 0x01	; 1
    39ae:	90 93 6f 03 	sts	0x036F, r25
    39b2:	80 93 6e 03 	sts	0x036E, r24

				action_space[action_counter++]=1;
    39b6:	20 91 6e 03 	lds	r18, 0x036E
    39ba:	30 91 6f 03 	lds	r19, 0x036F
    39be:	c9 01       	movw	r24, r18
    39c0:	88 0f       	add	r24, r24
    39c2:	99 1f       	adc	r25, r25
    39c4:	fc 01       	movw	r30, r24
    39c6:	e0 59       	subi	r30, 0x90	; 144
    39c8:	fc 4f       	sbci	r31, 0xFC	; 252
    39ca:	81 e0       	ldi	r24, 0x01	; 1
    39cc:	90 e0       	ldi	r25, 0x00	; 0
    39ce:	91 83       	std	Z+1, r25	; 0x01
    39d0:	80 83       	st	Z, r24
    39d2:	c9 01       	movw	r24, r18
    39d4:	01 96       	adiw	r24, 0x01	; 1
    39d6:	90 93 6f 03 	sts	0x036F, r25
    39da:	80 93 6e 03 	sts	0x036E, r24
				action_space[action_counter++]=2;
    39de:	20 91 6e 03 	lds	r18, 0x036E
    39e2:	30 91 6f 03 	lds	r19, 0x036F
    39e6:	c9 01       	movw	r24, r18
    39e8:	88 0f       	add	r24, r24
    39ea:	99 1f       	adc	r25, r25
    39ec:	fc 01       	movw	r30, r24
    39ee:	e0 59       	subi	r30, 0x90	; 144
    39f0:	fc 4f       	sbci	r31, 0xFC	; 252
    39f2:	82 e0       	ldi	r24, 0x02	; 2
    39f4:	90 e0       	ldi	r25, 0x00	; 0
    39f6:	91 83       	std	Z+1, r25	; 0x01
    39f8:	80 83       	st	Z, r24
    39fa:	c9 01       	movw	r24, r18
    39fc:	01 96       	adiw	r24, 0x01	; 1
    39fe:	90 93 6f 03 	sts	0x036F, r25
    3a02:	80 93 6e 03 	sts	0x036E, r24
				action_space[action_counter++]=2;
    3a06:	20 91 6e 03 	lds	r18, 0x036E
    3a0a:	30 91 6f 03 	lds	r19, 0x036F
    3a0e:	c9 01       	movw	r24, r18
    3a10:	88 0f       	add	r24, r24
    3a12:	99 1f       	adc	r25, r25
    3a14:	fc 01       	movw	r30, r24
    3a16:	e0 59       	subi	r30, 0x90	; 144
    3a18:	fc 4f       	sbci	r31, 0xFC	; 252
    3a1a:	82 e0       	ldi	r24, 0x02	; 2
    3a1c:	90 e0       	ldi	r25, 0x00	; 0
    3a1e:	91 83       	std	Z+1, r25	; 0x01
    3a20:	80 83       	st	Z, r24
    3a22:	c9 01       	movw	r24, r18
    3a24:	01 96       	adiw	r24, 0x01	; 1
    3a26:	90 93 6f 03 	sts	0x036F, r25
    3a2a:	80 93 6e 03 	sts	0x036E, r24
    3a2e:	25 c1       	rjmp	.+586    	; 0x3c7a <move+0x564>

			}
			else if(store==3)
    3a30:	80 91 4e 04 	lds	r24, 0x044E
    3a34:	90 91 4f 04 	lds	r25, 0x044F
    3a38:	83 30       	cpi	r24, 0x03	; 3
    3a3a:	91 05       	cpc	r25, r1
    3a3c:	09 f0       	breq	.+2      	; 0x3a40 <move+0x32a>
    3a3e:	1d c1       	rjmp	.+570    	; 0x3c7a <move+0x564>
			{
				action_space[action_counter++]=4;
    3a40:	20 91 6e 03 	lds	r18, 0x036E
    3a44:	30 91 6f 03 	lds	r19, 0x036F
    3a48:	c9 01       	movw	r24, r18
    3a4a:	88 0f       	add	r24, r24
    3a4c:	99 1f       	adc	r25, r25
    3a4e:	fc 01       	movw	r30, r24
    3a50:	e0 59       	subi	r30, 0x90	; 144
    3a52:	fc 4f       	sbci	r31, 0xFC	; 252
    3a54:	84 e0       	ldi	r24, 0x04	; 4
    3a56:	90 e0       	ldi	r25, 0x00	; 0
    3a58:	91 83       	std	Z+1, r25	; 0x01
    3a5a:	80 83       	st	Z, r24
    3a5c:	c9 01       	movw	r24, r18
    3a5e:	01 96       	adiw	r24, 0x01	; 1
    3a60:	90 93 6f 03 	sts	0x036F, r25
    3a64:	80 93 6e 03 	sts	0x036E, r24
				action_space[action_counter++]=4;
    3a68:	20 91 6e 03 	lds	r18, 0x036E
    3a6c:	30 91 6f 03 	lds	r19, 0x036F
    3a70:	c9 01       	movw	r24, r18
    3a72:	88 0f       	add	r24, r24
    3a74:	99 1f       	adc	r25, r25
    3a76:	fc 01       	movw	r30, r24
    3a78:	e0 59       	subi	r30, 0x90	; 144
    3a7a:	fc 4f       	sbci	r31, 0xFC	; 252
    3a7c:	84 e0       	ldi	r24, 0x04	; 4
    3a7e:	90 e0       	ldi	r25, 0x00	; 0
    3a80:	91 83       	std	Z+1, r25	; 0x01
    3a82:	80 83       	st	Z, r24
    3a84:	c9 01       	movw	r24, r18
    3a86:	01 96       	adiw	r24, 0x01	; 1
    3a88:	90 93 6f 03 	sts	0x036F, r25
    3a8c:	80 93 6e 03 	sts	0x036E, r24
				action_space[action_counter++]=1;
    3a90:	20 91 6e 03 	lds	r18, 0x036E
    3a94:	30 91 6f 03 	lds	r19, 0x036F
    3a98:	c9 01       	movw	r24, r18
    3a9a:	88 0f       	add	r24, r24
    3a9c:	99 1f       	adc	r25, r25
    3a9e:	fc 01       	movw	r30, r24
    3aa0:	e0 59       	subi	r30, 0x90	; 144
    3aa2:	fc 4f       	sbci	r31, 0xFC	; 252
    3aa4:	81 e0       	ldi	r24, 0x01	; 1
    3aa6:	90 e0       	ldi	r25, 0x00	; 0
    3aa8:	91 83       	std	Z+1, r25	; 0x01
    3aaa:	80 83       	st	Z, r24
    3aac:	c9 01       	movw	r24, r18
    3aae:	01 96       	adiw	r24, 0x01	; 1
    3ab0:	90 93 6f 03 	sts	0x036F, r25
    3ab4:	80 93 6e 03 	sts	0x036E, r24

				action_space[action_counter++]=5;
    3ab8:	20 91 6e 03 	lds	r18, 0x036E
    3abc:	30 91 6f 03 	lds	r19, 0x036F
    3ac0:	c9 01       	movw	r24, r18
    3ac2:	88 0f       	add	r24, r24
    3ac4:	99 1f       	adc	r25, r25
    3ac6:	fc 01       	movw	r30, r24
    3ac8:	e0 59       	subi	r30, 0x90	; 144
    3aca:	fc 4f       	sbci	r31, 0xFC	; 252
    3acc:	85 e0       	ldi	r24, 0x05	; 5
    3ace:	90 e0       	ldi	r25, 0x00	; 0
    3ad0:	91 83       	std	Z+1, r25	; 0x01
    3ad2:	80 83       	st	Z, r24
    3ad4:	c9 01       	movw	r24, r18
    3ad6:	01 96       	adiw	r24, 0x01	; 1
    3ad8:	90 93 6f 03 	sts	0x036F, r25
    3adc:	80 93 6e 03 	sts	0x036E, r24

				action_space[action_counter++]=3;
    3ae0:	20 91 6e 03 	lds	r18, 0x036E
    3ae4:	30 91 6f 03 	lds	r19, 0x036F
    3ae8:	c9 01       	movw	r24, r18
    3aea:	88 0f       	add	r24, r24
    3aec:	99 1f       	adc	r25, r25
    3aee:	fc 01       	movw	r30, r24
    3af0:	e0 59       	subi	r30, 0x90	; 144
    3af2:	fc 4f       	sbci	r31, 0xFC	; 252
    3af4:	83 e0       	ldi	r24, 0x03	; 3
    3af6:	90 e0       	ldi	r25, 0x00	; 0
    3af8:	91 83       	std	Z+1, r25	; 0x01
    3afa:	80 83       	st	Z, r24
    3afc:	c9 01       	movw	r24, r18
    3afe:	01 96       	adiw	r24, 0x01	; 1
    3b00:	90 93 6f 03 	sts	0x036F, r25
    3b04:	80 93 6e 03 	sts	0x036E, r24
				action_space[action_counter++]=2;
    3b08:	20 91 6e 03 	lds	r18, 0x036E
    3b0c:	30 91 6f 03 	lds	r19, 0x036F
    3b10:	c9 01       	movw	r24, r18
    3b12:	88 0f       	add	r24, r24
    3b14:	99 1f       	adc	r25, r25
    3b16:	fc 01       	movw	r30, r24
    3b18:	e0 59       	subi	r30, 0x90	; 144
    3b1a:	fc 4f       	sbci	r31, 0xFC	; 252
    3b1c:	82 e0       	ldi	r24, 0x02	; 2
    3b1e:	90 e0       	ldi	r25, 0x00	; 0
    3b20:	91 83       	std	Z+1, r25	; 0x01
    3b22:	80 83       	st	Z, r24
    3b24:	c9 01       	movw	r24, r18
    3b26:	01 96       	adiw	r24, 0x01	; 1
    3b28:	90 93 6f 03 	sts	0x036F, r25
    3b2c:	80 93 6e 03 	sts	0x036E, r24
				action_space[action_counter++]=2;
    3b30:	20 91 6e 03 	lds	r18, 0x036E
    3b34:	30 91 6f 03 	lds	r19, 0x036F
    3b38:	c9 01       	movw	r24, r18
    3b3a:	88 0f       	add	r24, r24
    3b3c:	99 1f       	adc	r25, r25
    3b3e:	fc 01       	movw	r30, r24
    3b40:	e0 59       	subi	r30, 0x90	; 144
    3b42:	fc 4f       	sbci	r31, 0xFC	; 252
    3b44:	82 e0       	ldi	r24, 0x02	; 2
    3b46:	90 e0       	ldi	r25, 0x00	; 0
    3b48:	91 83       	std	Z+1, r25	; 0x01
    3b4a:	80 83       	st	Z, r24
    3b4c:	c9 01       	movw	r24, r18
    3b4e:	01 96       	adiw	r24, 0x01	; 1
    3b50:	90 93 6f 03 	sts	0x036F, r25
    3b54:	80 93 6e 03 	sts	0x036E, r24
    3b58:	90 c0       	rjmp	.+288    	; 0x3c7a <move+0x564>

			}
			
		}

		else if(to==dispatch_point)
    3b5a:	20 91 02 02 	lds	r18, 0x0202
    3b5e:	30 91 03 02 	lds	r19, 0x0203
    3b62:	8b 81       	ldd	r24, Y+3	; 0x03
    3b64:	9c 81       	ldd	r25, Y+4	; 0x04
    3b66:	82 17       	cp	r24, r18
    3b68:	93 07       	cpc	r25, r19
    3b6a:	09 f0       	breq	.+2      	; 0x3b6e <move+0x458>
    3b6c:	86 c0       	rjmp	.+268    	; 0x3c7a <move+0x564>
		{
			if(dispatch_point==10)
    3b6e:	80 91 02 02 	lds	r24, 0x0202
    3b72:	90 91 03 02 	lds	r25, 0x0203
    3b76:	8a 30       	cpi	r24, 0x0A	; 10
    3b78:	91 05       	cpc	r25, r1
    3b7a:	e1 f5       	brne	.+120    	; 0x3bf4 <move+0x4de>
			{
				action_space[action_counter++]=3;
    3b7c:	20 91 6e 03 	lds	r18, 0x036E
    3b80:	30 91 6f 03 	lds	r19, 0x036F
    3b84:	c9 01       	movw	r24, r18
    3b86:	88 0f       	add	r24, r24
    3b88:	99 1f       	adc	r25, r25
    3b8a:	fc 01       	movw	r30, r24
    3b8c:	e0 59       	subi	r30, 0x90	; 144
    3b8e:	fc 4f       	sbci	r31, 0xFC	; 252
    3b90:	83 e0       	ldi	r24, 0x03	; 3
    3b92:	90 e0       	ldi	r25, 0x00	; 0
    3b94:	91 83       	std	Z+1, r25	; 0x01
    3b96:	80 83       	st	Z, r24
    3b98:	c9 01       	movw	r24, r18
    3b9a:	01 96       	adiw	r24, 0x01	; 1
    3b9c:	90 93 6f 03 	sts	0x036F, r25
    3ba0:	80 93 6e 03 	sts	0x036E, r24
				action_space[action_counter++]=2;
    3ba4:	20 91 6e 03 	lds	r18, 0x036E
    3ba8:	30 91 6f 03 	lds	r19, 0x036F
    3bac:	c9 01       	movw	r24, r18
    3bae:	88 0f       	add	r24, r24
    3bb0:	99 1f       	adc	r25, r25
    3bb2:	fc 01       	movw	r30, r24
    3bb4:	e0 59       	subi	r30, 0x90	; 144
    3bb6:	fc 4f       	sbci	r31, 0xFC	; 252
    3bb8:	82 e0       	ldi	r24, 0x02	; 2
    3bba:	90 e0       	ldi	r25, 0x00	; 0
    3bbc:	91 83       	std	Z+1, r25	; 0x01
    3bbe:	80 83       	st	Z, r24
    3bc0:	c9 01       	movw	r24, r18
    3bc2:	01 96       	adiw	r24, 0x01	; 1
    3bc4:	90 93 6f 03 	sts	0x036F, r25
    3bc8:	80 93 6e 03 	sts	0x036E, r24

				action_space[action_counter++]=6;
    3bcc:	20 91 6e 03 	lds	r18, 0x036E
    3bd0:	30 91 6f 03 	lds	r19, 0x036F
    3bd4:	c9 01       	movw	r24, r18
    3bd6:	88 0f       	add	r24, r24
    3bd8:	99 1f       	adc	r25, r25
    3bda:	fc 01       	movw	r30, r24
    3bdc:	e0 59       	subi	r30, 0x90	; 144
    3bde:	fc 4f       	sbci	r31, 0xFC	; 252
    3be0:	86 e0       	ldi	r24, 0x06	; 6
    3be2:	90 e0       	ldi	r25, 0x00	; 0
    3be4:	91 83       	std	Z+1, r25	; 0x01
    3be6:	80 83       	st	Z, r24
    3be8:	c9 01       	movw	r24, r18
    3bea:	01 96       	adiw	r24, 0x01	; 1
    3bec:	90 93 6f 03 	sts	0x036F, r25
    3bf0:	80 93 6e 03 	sts	0x036E, r24
			}
			if(dispatch_point==11)
    3bf4:	80 91 02 02 	lds	r24, 0x0202
    3bf8:	90 91 03 02 	lds	r25, 0x0203
    3bfc:	8b 30       	cpi	r24, 0x0B	; 11
    3bfe:	91 05       	cpc	r25, r1
    3c00:	e1 f5       	brne	.+120    	; 0x3c7a <move+0x564>
			{
				action_space[action_counter++]=1;
    3c02:	20 91 6e 03 	lds	r18, 0x036E
    3c06:	30 91 6f 03 	lds	r19, 0x036F
    3c0a:	c9 01       	movw	r24, r18
    3c0c:	88 0f       	add	r24, r24
    3c0e:	99 1f       	adc	r25, r25
    3c10:	fc 01       	movw	r30, r24
    3c12:	e0 59       	subi	r30, 0x90	; 144
    3c14:	fc 4f       	sbci	r31, 0xFC	; 252
    3c16:	81 e0       	ldi	r24, 0x01	; 1
    3c18:	90 e0       	ldi	r25, 0x00	; 0
    3c1a:	91 83       	std	Z+1, r25	; 0x01
    3c1c:	80 83       	st	Z, r24
    3c1e:	c9 01       	movw	r24, r18
    3c20:	01 96       	adiw	r24, 0x01	; 1
    3c22:	90 93 6f 03 	sts	0x036F, r25
    3c26:	80 93 6e 03 	sts	0x036E, r24
				action_space[action_counter++]=2;
    3c2a:	20 91 6e 03 	lds	r18, 0x036E
    3c2e:	30 91 6f 03 	lds	r19, 0x036F
    3c32:	c9 01       	movw	r24, r18
    3c34:	88 0f       	add	r24, r24
    3c36:	99 1f       	adc	r25, r25
    3c38:	fc 01       	movw	r30, r24
    3c3a:	e0 59       	subi	r30, 0x90	; 144
    3c3c:	fc 4f       	sbci	r31, 0xFC	; 252
    3c3e:	82 e0       	ldi	r24, 0x02	; 2
    3c40:	90 e0       	ldi	r25, 0x00	; 0
    3c42:	91 83       	std	Z+1, r25	; 0x01
    3c44:	80 83       	st	Z, r24
    3c46:	c9 01       	movw	r24, r18
    3c48:	01 96       	adiw	r24, 0x01	; 1
    3c4a:	90 93 6f 03 	sts	0x036F, r25
    3c4e:	80 93 6e 03 	sts	0x036E, r24

				action_space[action_counter++]=6;				
    3c52:	20 91 6e 03 	lds	r18, 0x036E
    3c56:	30 91 6f 03 	lds	r19, 0x036F
    3c5a:	c9 01       	movw	r24, r18
    3c5c:	88 0f       	add	r24, r24
    3c5e:	99 1f       	adc	r25, r25
    3c60:	fc 01       	movw	r30, r24
    3c62:	e0 59       	subi	r30, 0x90	; 144
    3c64:	fc 4f       	sbci	r31, 0xFC	; 252
    3c66:	86 e0       	ldi	r24, 0x06	; 6
    3c68:	90 e0       	ldi	r25, 0x00	; 0
    3c6a:	91 83       	std	Z+1, r25	; 0x01
    3c6c:	80 83       	st	Z, r24
    3c6e:	c9 01       	movw	r24, r18
    3c70:	01 96       	adiw	r24, 0x01	; 1
    3c72:	90 93 6f 03 	sts	0x036F, r25
    3c76:	80 93 6e 03 	sts	0x036E, r24
			}
		}
	}
	if(from==dispatch_point)
    3c7a:	20 91 02 02 	lds	r18, 0x0202
    3c7e:	30 91 03 02 	lds	r19, 0x0203
    3c82:	89 81       	ldd	r24, Y+1	; 0x01
    3c84:	9a 81       	ldd	r25, Y+2	; 0x02
    3c86:	82 17       	cp	r24, r18
    3c88:	93 07       	cpc	r25, r19
    3c8a:	09 f0       	breq	.+2      	; 0x3c8e <move+0x578>
    3c8c:	5f c0       	rjmp	.+190    	; 0x3d4c <move+0x636>
	{
		if(dispatch_point==10)
    3c8e:	80 91 02 02 	lds	r24, 0x0202
    3c92:	90 91 03 02 	lds	r25, 0x0203
    3c96:	8a 30       	cpi	r24, 0x0A	; 10
    3c98:	91 05       	cpc	r25, r1
    3c9a:	49 f5       	brne	.+82     	; 0x3cee <move+0x5d8>
		{
			action_space[action_counter++]=4;
    3c9c:	20 91 6e 03 	lds	r18, 0x036E
    3ca0:	30 91 6f 03 	lds	r19, 0x036F
    3ca4:	c9 01       	movw	r24, r18
    3ca6:	88 0f       	add	r24, r24
    3ca8:	99 1f       	adc	r25, r25
    3caa:	fc 01       	movw	r30, r24
    3cac:	e0 59       	subi	r30, 0x90	; 144
    3cae:	fc 4f       	sbci	r31, 0xFC	; 252
    3cb0:	84 e0       	ldi	r24, 0x04	; 4
    3cb2:	90 e0       	ldi	r25, 0x00	; 0
    3cb4:	91 83       	std	Z+1, r25	; 0x01
    3cb6:	80 83       	st	Z, r24
    3cb8:	c9 01       	movw	r24, r18
    3cba:	01 96       	adiw	r24, 0x01	; 1
    3cbc:	90 93 6f 03 	sts	0x036F, r25
    3cc0:	80 93 6e 03 	sts	0x036E, r24
			action_space[action_counter++]=1;
    3cc4:	20 91 6e 03 	lds	r18, 0x036E
    3cc8:	30 91 6f 03 	lds	r19, 0x036F
    3ccc:	c9 01       	movw	r24, r18
    3cce:	88 0f       	add	r24, r24
    3cd0:	99 1f       	adc	r25, r25
    3cd2:	fc 01       	movw	r30, r24
    3cd4:	e0 59       	subi	r30, 0x90	; 144
    3cd6:	fc 4f       	sbci	r31, 0xFC	; 252
    3cd8:	81 e0       	ldi	r24, 0x01	; 1
    3cda:	90 e0       	ldi	r25, 0x00	; 0
    3cdc:	91 83       	std	Z+1, r25	; 0x01
    3cde:	80 83       	st	Z, r24
    3ce0:	c9 01       	movw	r24, r18
    3ce2:	01 96       	adiw	r24, 0x01	; 1
    3ce4:	90 93 6f 03 	sts	0x036F, r25
    3ce8:	80 93 6e 03 	sts	0x036E, r24
    3cec:	2f c0       	rjmp	.+94     	; 0x3d4c <move+0x636>
		}
		
		else if(dispatch_point==11)
    3cee:	80 91 02 02 	lds	r24, 0x0202
    3cf2:	90 91 03 02 	lds	r25, 0x0203
    3cf6:	8b 30       	cpi	r24, 0x0B	; 11
    3cf8:	91 05       	cpc	r25, r1
    3cfa:	41 f5       	brne	.+80     	; 0x3d4c <move+0x636>
		{
			action_space[action_counter++]=4;
    3cfc:	20 91 6e 03 	lds	r18, 0x036E
    3d00:	30 91 6f 03 	lds	r19, 0x036F
    3d04:	c9 01       	movw	r24, r18
    3d06:	88 0f       	add	r24, r24
    3d08:	99 1f       	adc	r25, r25
    3d0a:	fc 01       	movw	r30, r24
    3d0c:	e0 59       	subi	r30, 0x90	; 144
    3d0e:	fc 4f       	sbci	r31, 0xFC	; 252
    3d10:	84 e0       	ldi	r24, 0x04	; 4
    3d12:	90 e0       	ldi	r25, 0x00	; 0
    3d14:	91 83       	std	Z+1, r25	; 0x01
    3d16:	80 83       	st	Z, r24
    3d18:	c9 01       	movw	r24, r18
    3d1a:	01 96       	adiw	r24, 0x01	; 1
    3d1c:	90 93 6f 03 	sts	0x036F, r25
    3d20:	80 93 6e 03 	sts	0x036E, r24
			action_space[action_counter++]=3;
    3d24:	20 91 6e 03 	lds	r18, 0x036E
    3d28:	30 91 6f 03 	lds	r19, 0x036F
    3d2c:	c9 01       	movw	r24, r18
    3d2e:	88 0f       	add	r24, r24
    3d30:	99 1f       	adc	r25, r25
    3d32:	fc 01       	movw	r30, r24
    3d34:	e0 59       	subi	r30, 0x90	; 144
    3d36:	fc 4f       	sbci	r31, 0xFC	; 252
    3d38:	83 e0       	ldi	r24, 0x03	; 3
    3d3a:	90 e0       	ldi	r25, 0x00	; 0
    3d3c:	91 83       	std	Z+1, r25	; 0x01
    3d3e:	80 83       	st	Z, r24
    3d40:	c9 01       	movw	r24, r18
    3d42:	01 96       	adiw	r24, 0x01	; 1
    3d44:	90 93 6f 03 	sts	0x036F, r25
    3d48:	80 93 6e 03 	sts	0x036E, r24
		}

	}

}
    3d4c:	0f 90       	pop	r0
    3d4e:	0f 90       	pop	r0
    3d50:	0f 90       	pop	r0
    3d52:	0f 90       	pop	r0
    3d54:	cf 91       	pop	r28
    3d56:	df 91       	pop	r29
    3d58:	08 95       	ret

00003d5a <follow_path>:
void follow_path()
{
    3d5a:	df 93       	push	r29
    3d5c:	cf 93       	push	r28
    3d5e:	00 d0       	rcall	.+0      	; 0x3d60 <follow_path+0x6>
    3d60:	0f 92       	push	r0
    3d62:	cd b7       	in	r28, 0x3d	; 61
    3d64:	de b7       	in	r29, 0x3e	; 62
	unsigned char Left_white_line,Center_white_line,Right_white_line;
	unsigned char th=wlth;
    3d66:	88 e2       	ldi	r24, 0x28	; 40
    3d68:	89 83       	std	Y+1, r24	; 0x01
	forward();
    3d6a:	0e 94 f6 11 	call	0x23ec	; 0x23ec <forward>
	while(1)
	{
		Left_white_line = adc_convert(3);	//Getting data of Left WL Sensor
    3d6e:	83 e0       	ldi	r24, 0x03	; 3
    3d70:	0e 94 78 0a 	call	0x14f0	; 0x14f0 <adc_convert>
    3d74:	8c 83       	std	Y+4, r24	; 0x04
		Center_white_line = adc_convert(2);	//Getting data of Center WL Sensor
    3d76:	82 e0       	ldi	r24, 0x02	; 2
    3d78:	0e 94 78 0a 	call	0x14f0	; 0x14f0 <adc_convert>
    3d7c:	8b 83       	std	Y+3, r24	; 0x03
		Right_white_line = adc_convert(1);	//Getting data of Right WL Sensor
    3d7e:	81 e0       	ldi	r24, 0x01	; 1
    3d80:	0e 94 78 0a 	call	0x14f0	; 0x14f0 <adc_convert>
    3d84:	8a 83       	std	Y+2, r24	; 0x02
		//print_sensor(2,5,2);	//Prints Value of White Line Sensor2
		//print_sensor(2,9,1);	//Prints Value of White Line Sensor3
		
		

		if(Left_white_line<th && Center_white_line<th && Right_white_line<th)  //www
    3d86:	9c 81       	ldd	r25, Y+4	; 0x04
    3d88:	89 81       	ldd	r24, Y+1	; 0x01
    3d8a:	98 17       	cp	r25, r24
    3d8c:	70 f4       	brcc	.+28     	; 0x3daa <follow_path+0x50>
    3d8e:	9b 81       	ldd	r25, Y+3	; 0x03
    3d90:	89 81       	ldd	r24, Y+1	; 0x01
    3d92:	98 17       	cp	r25, r24
    3d94:	50 f4       	brcc	.+20     	; 0x3daa <follow_path+0x50>
    3d96:	9a 81       	ldd	r25, Y+2	; 0x02
    3d98:	89 81       	ldd	r24, Y+1	; 0x01
    3d9a:	98 17       	cp	r25, r24
    3d9c:	30 f4       	brcc	.+12     	; 0x3daa <follow_path+0x50>
		{
			//backward();
			forward();
    3d9e:	0e 94 f6 11 	call	0x23ec	; 0x23ec <forward>
			velocity(vth,vth);//forward
    3da2:	86 e9       	ldi	r24, 0x96	; 150
    3da4:	66 e9       	ldi	r22, 0x96	; 150
    3da6:	0e 94 63 0a 	call	0x14c6	; 0x14c6 <velocity>
			//forward();
		}

		if(Left_white_line<th && Center_white_line<th && Right_white_line>th)  //wwb -- left
    3daa:	9c 81       	ldd	r25, Y+4	; 0x04
    3dac:	89 81       	ldd	r24, Y+1	; 0x01
    3dae:	98 17       	cp	r25, r24
    3db0:	80 f4       	brcc	.+32     	; 0x3dd2 <follow_path+0x78>
    3db2:	9b 81       	ldd	r25, Y+3	; 0x03
    3db4:	89 81       	ldd	r24, Y+1	; 0x01
    3db6:	98 17       	cp	r25, r24
    3db8:	60 f4       	brcc	.+24     	; 0x3dd2 <follow_path+0x78>
    3dba:	9a 81       	ldd	r25, Y+2	; 0x02
    3dbc:	89 81       	ldd	r24, Y+1	; 0x01
    3dbe:	89 17       	cp	r24, r25
    3dc0:	40 f4       	brcc	.+16     	; 0x3dd2 <follow_path+0x78>
		{
			//velocity(180,220);//left turn
			stop();
    3dc2:	0e 94 00 12 	call	0x2400	; 0x2400 <stop>
			rot_right();
    3dc6:	0e 94 1e 12 	call	0x243c	; 0x243c <rot_right>
			velocity(vth,vth);
    3dca:	86 e9       	ldi	r24, 0x96	; 150
    3dcc:	66 e9       	ldi	r22, 0x96	; 150
    3dce:	0e 94 63 0a 	call	0x14c6	; 0x14c6 <velocity>
			
		}

		if(Left_white_line<th && Center_white_line>th && Right_white_line<th)  //wbw -- valid
    3dd2:	9c 81       	ldd	r25, Y+4	; 0x04
    3dd4:	89 81       	ldd	r24, Y+1	; 0x01
    3dd6:	98 17       	cp	r25, r24
    3dd8:	70 f4       	brcc	.+28     	; 0x3df6 <follow_path+0x9c>
    3dda:	9b 81       	ldd	r25, Y+3	; 0x03
    3ddc:	89 81       	ldd	r24, Y+1	; 0x01
    3dde:	89 17       	cp	r24, r25
    3de0:	50 f4       	brcc	.+20     	; 0x3df6 <follow_path+0x9c>
    3de2:	9a 81       	ldd	r25, Y+2	; 0x02
    3de4:	89 81       	ldd	r24, Y+1	; 0x01
    3de6:	98 17       	cp	r25, r24
    3de8:	30 f4       	brcc	.+12     	; 0x3df6 <follow_path+0x9c>
		{
			forward();
    3dea:	0e 94 f6 11 	call	0x23ec	; 0x23ec <forward>
			velocity(vth,vth);//forward
    3dee:	86 e9       	ldi	r24, 0x96	; 150
    3df0:	66 e9       	ldi	r22, 0x96	; 150
    3df2:	0e 94 63 0a 	call	0x14c6	; 0x14c6 <velocity>
			

		}

		if(Left_white_line<th && Center_white_line>th && Right_white_line>th)  //wbb -- more left
    3df6:	9c 81       	ldd	r25, Y+4	; 0x04
    3df8:	89 81       	ldd	r24, Y+1	; 0x01
    3dfa:	98 17       	cp	r25, r24
    3dfc:	80 f4       	brcc	.+32     	; 0x3e1e <follow_path+0xc4>
    3dfe:	9b 81       	ldd	r25, Y+3	; 0x03
    3e00:	89 81       	ldd	r24, Y+1	; 0x01
    3e02:	89 17       	cp	r24, r25
    3e04:	60 f4       	brcc	.+24     	; 0x3e1e <follow_path+0xc4>
    3e06:	9a 81       	ldd	r25, Y+2	; 0x02
    3e08:	89 81       	ldd	r24, Y+1	; 0x01
    3e0a:	89 17       	cp	r24, r25
    3e0c:	40 f4       	brcc	.+16     	; 0x3e1e <follow_path+0xc4>
		{
		//	velocity(175,220);
			//forward();
			//velocity(120,0);
			stop();
    3e0e:	0e 94 00 12 	call	0x2400	; 0x2400 <stop>
			rot_right();
    3e12:	0e 94 1e 12 	call	0x243c	; 0x243c <rot_right>
			velocity(vth,vth);
    3e16:	86 e9       	ldi	r24, 0x96	; 150
    3e18:	66 e9       	ldi	r22, 0x96	; 150
    3e1a:	0e 94 63 0a 	call	0x14c6	; 0x14c6 <velocity>
		}

		if(Left_white_line>th && Center_white_line<th && Right_white_line<th)  //bww -- right
    3e1e:	9c 81       	ldd	r25, Y+4	; 0x04
    3e20:	89 81       	ldd	r24, Y+1	; 0x01
    3e22:	89 17       	cp	r24, r25
    3e24:	80 f4       	brcc	.+32     	; 0x3e46 <follow_path+0xec>
    3e26:	9b 81       	ldd	r25, Y+3	; 0x03
    3e28:	89 81       	ldd	r24, Y+1	; 0x01
    3e2a:	98 17       	cp	r25, r24
    3e2c:	60 f4       	brcc	.+24     	; 0x3e46 <follow_path+0xec>
    3e2e:	9a 81       	ldd	r25, Y+2	; 0x02
    3e30:	89 81       	ldd	r24, Y+1	; 0x01
    3e32:	98 17       	cp	r25, r24
    3e34:	40 f4       	brcc	.+16     	; 0x3e46 <follow_path+0xec>
		{
		//	velocity(120,80);
			stop();
    3e36:	0e 94 00 12 	call	0x2400	; 0x2400 <stop>
			rot_left();
    3e3a:	0e 94 14 12 	call	0x2428	; 0x2428 <rot_left>
			velocity(vth,vth);
    3e3e:	86 e9       	ldi	r24, 0x96	; 150
    3e40:	66 e9       	ldi	r22, 0x96	; 150
    3e42:	0e 94 63 0a 	call	0x14c6	; 0x14c6 <velocity>
		{
		//	velocity(220,220);
			forward();
		}*/

		if(Left_white_line>th && Center_white_line>th && Right_white_line<th)  //bbw -- more right
    3e46:	9c 81       	ldd	r25, Y+4	; 0x04
    3e48:	89 81       	ldd	r24, Y+1	; 0x01
    3e4a:	89 17       	cp	r24, r25
    3e4c:	80 f4       	brcc	.+32     	; 0x3e6e <follow_path+0x114>
    3e4e:	9b 81       	ldd	r25, Y+3	; 0x03
    3e50:	89 81       	ldd	r24, Y+1	; 0x01
    3e52:	89 17       	cp	r24, r25
    3e54:	60 f4       	brcc	.+24     	; 0x3e6e <follow_path+0x114>
    3e56:	9a 81       	ldd	r25, Y+2	; 0x02
    3e58:	89 81       	ldd	r24, Y+1	; 0x01
    3e5a:	98 17       	cp	r25, r24
    3e5c:	40 f4       	brcc	.+16     	; 0x3e6e <follow_path+0x114>
		{
			//forward();
			//velocity(0,120);
			//rot_right();
			stop();
    3e5e:	0e 94 00 12 	call	0x2400	; 0x2400 <stop>
			rot_left();
    3e62:	0e 94 14 12 	call	0x2428	; 0x2428 <rot_left>
			velocity(vth,vth-30);
    3e66:	86 e9       	ldi	r24, 0x96	; 150
    3e68:	68 e7       	ldi	r22, 0x78	; 120
    3e6a:	0e 94 63 0a 	call	0x14c6	; 0x14c6 <velocity>
			
		}

		if((Left_white_line>th && Center_white_line>th && Right_white_line>th) )//|| (Left_white_line>(th+40) && Center_white_line>(th+40) && Right_white_line<th) || (Left_white_line<th && Center_white_line>(th+40) && Right_white_line>(th+40)))  //bbb
    3e6e:	9c 81       	ldd	r25, Y+4	; 0x04
    3e70:	89 81       	ldd	r24, Y+1	; 0x01
    3e72:	89 17       	cp	r24, r25
    3e74:	08 f0       	brcs	.+2      	; 0x3e78 <follow_path+0x11e>
    3e76:	7b cf       	rjmp	.-266    	; 0x3d6e <follow_path+0x14>
    3e78:	9b 81       	ldd	r25, Y+3	; 0x03
    3e7a:	89 81       	ldd	r24, Y+1	; 0x01
    3e7c:	89 17       	cp	r24, r25
    3e7e:	08 f0       	brcs	.+2      	; 0x3e82 <follow_path+0x128>
    3e80:	76 cf       	rjmp	.-276    	; 0x3d6e <follow_path+0x14>
    3e82:	9a 81       	ldd	r25, Y+2	; 0x02
    3e84:	89 81       	ldd	r24, Y+1	; 0x01
    3e86:	89 17       	cp	r24, r25
    3e88:	08 f0       	brcs	.+2      	; 0x3e8c <follow_path+0x132>
    3e8a:	71 cf       	rjmp	.-286    	; 0x3d6e <follow_path+0x14>
		{							//bbb or highBhighBwhite or whitehighBhighB
			stop();
    3e8c:	0e 94 00 12 	call	0x2400	; 0x2400 <stop>
			//_delay_ms(1000);
			//velocity(200,200);
			//while(Left_white_line>40 && Center_white_line>40 && Right_white_line>40);
			buzzer_on(500);
    3e90:	84 ef       	ldi	r24, 0xF4	; 244
    3e92:	91 e0       	ldi	r25, 0x01	; 1
    3e94:	0e 94 14 11 	call	0x2228	; 0x2228 <buzzer_on>
			distance_mm('f',40);
    3e98:	86 e6       	ldi	r24, 0x66	; 102
    3e9a:	68 e2       	ldi	r22, 0x28	; 40
    3e9c:	70 e0       	ldi	r23, 0x00	; 0
    3e9e:	0e 94 2e 10 	call	0x205c	; 0x205c <distance_mm>
			//velocity(0,0);
			stop();
    3ea2:	0e 94 00 12 	call	0x2400	; 0x2400 <stop>
		if(Center_white_line>40 && Left_white_line>40 && Right_white_line>40)
		{
			stop();
			velocity(0,0);
		} */
	}
    3ea6:	0f 90       	pop	r0
    3ea8:	0f 90       	pop	r0
    3eaa:	0f 90       	pop	r0
    3eac:	0f 90       	pop	r0
    3eae:	cf 91       	pop	r28
    3eb0:	df 91       	pop	r29
    3eb2:	08 95       	ret

00003eb4 <__fixunssfsi>:
    3eb4:	ef 92       	push	r14
    3eb6:	ff 92       	push	r15
    3eb8:	0f 93       	push	r16
    3eba:	1f 93       	push	r17
    3ebc:	7b 01       	movw	r14, r22
    3ebe:	8c 01       	movw	r16, r24
    3ec0:	20 e0       	ldi	r18, 0x00	; 0
    3ec2:	30 e0       	ldi	r19, 0x00	; 0
    3ec4:	40 e0       	ldi	r20, 0x00	; 0
    3ec6:	5f e4       	ldi	r21, 0x4F	; 79
    3ec8:	0e 94 06 23 	call	0x460c	; 0x460c <__gesf2>
    3ecc:	88 23       	and	r24, r24
    3ece:	8c f0       	brlt	.+34     	; 0x3ef2 <__fixunssfsi+0x3e>
    3ed0:	c8 01       	movw	r24, r16
    3ed2:	b7 01       	movw	r22, r14
    3ed4:	20 e0       	ldi	r18, 0x00	; 0
    3ed6:	30 e0       	ldi	r19, 0x00	; 0
    3ed8:	40 e0       	ldi	r20, 0x00	; 0
    3eda:	5f e4       	ldi	r21, 0x4F	; 79
    3edc:	0e 94 d2 20 	call	0x41a4	; 0x41a4 <__subsf3>
    3ee0:	0e 94 66 23 	call	0x46cc	; 0x46cc <__fixsfsi>
    3ee4:	9b 01       	movw	r18, r22
    3ee6:	ac 01       	movw	r20, r24
    3ee8:	20 50       	subi	r18, 0x00	; 0
    3eea:	30 40       	sbci	r19, 0x00	; 0
    3eec:	40 40       	sbci	r20, 0x00	; 0
    3eee:	50 48       	sbci	r21, 0x80	; 128
    3ef0:	06 c0       	rjmp	.+12     	; 0x3efe <__fixunssfsi+0x4a>
    3ef2:	c8 01       	movw	r24, r16
    3ef4:	b7 01       	movw	r22, r14
    3ef6:	0e 94 66 23 	call	0x46cc	; 0x46cc <__fixsfsi>
    3efa:	9b 01       	movw	r18, r22
    3efc:	ac 01       	movw	r20, r24
    3efe:	b9 01       	movw	r22, r18
    3f00:	ca 01       	movw	r24, r20
    3f02:	1f 91       	pop	r17
    3f04:	0f 91       	pop	r16
    3f06:	ff 90       	pop	r15
    3f08:	ef 90       	pop	r14
    3f0a:	08 95       	ret

00003f0c <_fpadd_parts>:
    3f0c:	a0 e0       	ldi	r26, 0x00	; 0
    3f0e:	b0 e0       	ldi	r27, 0x00	; 0
    3f10:	ec e8       	ldi	r30, 0x8C	; 140
    3f12:	ff e1       	ldi	r31, 0x1F	; 31
    3f14:	0c 94 3c 26 	jmp	0x4c78	; 0x4c78 <__prologue_saves__>
    3f18:	dc 01       	movw	r26, r24
    3f1a:	2b 01       	movw	r4, r22
    3f1c:	fa 01       	movw	r30, r20
    3f1e:	9c 91       	ld	r25, X
    3f20:	92 30       	cpi	r25, 0x02	; 2
    3f22:	08 f4       	brcc	.+2      	; 0x3f26 <_fpadd_parts+0x1a>
    3f24:	39 c1       	rjmp	.+626    	; 0x4198 <_fpadd_parts+0x28c>
    3f26:	eb 01       	movw	r28, r22
    3f28:	88 81       	ld	r24, Y
    3f2a:	82 30       	cpi	r24, 0x02	; 2
    3f2c:	08 f4       	brcc	.+2      	; 0x3f30 <_fpadd_parts+0x24>
    3f2e:	33 c1       	rjmp	.+614    	; 0x4196 <_fpadd_parts+0x28a>
    3f30:	94 30       	cpi	r25, 0x04	; 4
    3f32:	69 f4       	brne	.+26     	; 0x3f4e <_fpadd_parts+0x42>
    3f34:	84 30       	cpi	r24, 0x04	; 4
    3f36:	09 f0       	breq	.+2      	; 0x3f3a <_fpadd_parts+0x2e>
    3f38:	2f c1       	rjmp	.+606    	; 0x4198 <_fpadd_parts+0x28c>
    3f3a:	11 96       	adiw	r26, 0x01	; 1
    3f3c:	9c 91       	ld	r25, X
    3f3e:	11 97       	sbiw	r26, 0x01	; 1
    3f40:	89 81       	ldd	r24, Y+1	; 0x01
    3f42:	98 17       	cp	r25, r24
    3f44:	09 f4       	brne	.+2      	; 0x3f48 <_fpadd_parts+0x3c>
    3f46:	28 c1       	rjmp	.+592    	; 0x4198 <_fpadd_parts+0x28c>
    3f48:	a5 e6       	ldi	r26, 0x65	; 101
    3f4a:	b2 e0       	ldi	r27, 0x02	; 2
    3f4c:	25 c1       	rjmp	.+586    	; 0x4198 <_fpadd_parts+0x28c>
    3f4e:	84 30       	cpi	r24, 0x04	; 4
    3f50:	09 f4       	brne	.+2      	; 0x3f54 <_fpadd_parts+0x48>
    3f52:	21 c1       	rjmp	.+578    	; 0x4196 <_fpadd_parts+0x28a>
    3f54:	82 30       	cpi	r24, 0x02	; 2
    3f56:	a9 f4       	brne	.+42     	; 0x3f82 <_fpadd_parts+0x76>
    3f58:	92 30       	cpi	r25, 0x02	; 2
    3f5a:	09 f0       	breq	.+2      	; 0x3f5e <_fpadd_parts+0x52>
    3f5c:	1d c1       	rjmp	.+570    	; 0x4198 <_fpadd_parts+0x28c>
    3f5e:	9a 01       	movw	r18, r20
    3f60:	ad 01       	movw	r20, r26
    3f62:	88 e0       	ldi	r24, 0x08	; 8
    3f64:	ea 01       	movw	r28, r20
    3f66:	09 90       	ld	r0, Y+
    3f68:	ae 01       	movw	r20, r28
    3f6a:	e9 01       	movw	r28, r18
    3f6c:	09 92       	st	Y+, r0
    3f6e:	9e 01       	movw	r18, r28
    3f70:	81 50       	subi	r24, 0x01	; 1
    3f72:	c1 f7       	brne	.-16     	; 0x3f64 <_fpadd_parts+0x58>
    3f74:	e2 01       	movw	r28, r4
    3f76:	89 81       	ldd	r24, Y+1	; 0x01
    3f78:	11 96       	adiw	r26, 0x01	; 1
    3f7a:	9c 91       	ld	r25, X
    3f7c:	89 23       	and	r24, r25
    3f7e:	81 83       	std	Z+1, r24	; 0x01
    3f80:	08 c1       	rjmp	.+528    	; 0x4192 <_fpadd_parts+0x286>
    3f82:	92 30       	cpi	r25, 0x02	; 2
    3f84:	09 f4       	brne	.+2      	; 0x3f88 <_fpadd_parts+0x7c>
    3f86:	07 c1       	rjmp	.+526    	; 0x4196 <_fpadd_parts+0x28a>
    3f88:	12 96       	adiw	r26, 0x02	; 2
    3f8a:	2d 90       	ld	r2, X+
    3f8c:	3c 90       	ld	r3, X
    3f8e:	13 97       	sbiw	r26, 0x03	; 3
    3f90:	eb 01       	movw	r28, r22
    3f92:	8a 81       	ldd	r24, Y+2	; 0x02
    3f94:	9b 81       	ldd	r25, Y+3	; 0x03
    3f96:	14 96       	adiw	r26, 0x04	; 4
    3f98:	ad 90       	ld	r10, X+
    3f9a:	bd 90       	ld	r11, X+
    3f9c:	cd 90       	ld	r12, X+
    3f9e:	dc 90       	ld	r13, X
    3fa0:	17 97       	sbiw	r26, 0x07	; 7
    3fa2:	ec 80       	ldd	r14, Y+4	; 0x04
    3fa4:	fd 80       	ldd	r15, Y+5	; 0x05
    3fa6:	0e 81       	ldd	r16, Y+6	; 0x06
    3fa8:	1f 81       	ldd	r17, Y+7	; 0x07
    3faa:	91 01       	movw	r18, r2
    3fac:	28 1b       	sub	r18, r24
    3fae:	39 0b       	sbc	r19, r25
    3fb0:	b9 01       	movw	r22, r18
    3fb2:	37 ff       	sbrs	r19, 7
    3fb4:	04 c0       	rjmp	.+8      	; 0x3fbe <_fpadd_parts+0xb2>
    3fb6:	66 27       	eor	r22, r22
    3fb8:	77 27       	eor	r23, r23
    3fba:	62 1b       	sub	r22, r18
    3fbc:	73 0b       	sbc	r23, r19
    3fbe:	60 32       	cpi	r22, 0x20	; 32
    3fc0:	71 05       	cpc	r23, r1
    3fc2:	0c f0       	brlt	.+2      	; 0x3fc6 <_fpadd_parts+0xba>
    3fc4:	61 c0       	rjmp	.+194    	; 0x4088 <_fpadd_parts+0x17c>
    3fc6:	12 16       	cp	r1, r18
    3fc8:	13 06       	cpc	r1, r19
    3fca:	6c f5       	brge	.+90     	; 0x4026 <_fpadd_parts+0x11a>
    3fcc:	37 01       	movw	r6, r14
    3fce:	48 01       	movw	r8, r16
    3fd0:	06 2e       	mov	r0, r22
    3fd2:	04 c0       	rjmp	.+8      	; 0x3fdc <_fpadd_parts+0xd0>
    3fd4:	96 94       	lsr	r9
    3fd6:	87 94       	ror	r8
    3fd8:	77 94       	ror	r7
    3fda:	67 94       	ror	r6
    3fdc:	0a 94       	dec	r0
    3fde:	d2 f7       	brpl	.-12     	; 0x3fd4 <_fpadd_parts+0xc8>
    3fe0:	21 e0       	ldi	r18, 0x01	; 1
    3fe2:	30 e0       	ldi	r19, 0x00	; 0
    3fe4:	40 e0       	ldi	r20, 0x00	; 0
    3fe6:	50 e0       	ldi	r21, 0x00	; 0
    3fe8:	04 c0       	rjmp	.+8      	; 0x3ff2 <_fpadd_parts+0xe6>
    3fea:	22 0f       	add	r18, r18
    3fec:	33 1f       	adc	r19, r19
    3fee:	44 1f       	adc	r20, r20
    3ff0:	55 1f       	adc	r21, r21
    3ff2:	6a 95       	dec	r22
    3ff4:	d2 f7       	brpl	.-12     	; 0x3fea <_fpadd_parts+0xde>
    3ff6:	21 50       	subi	r18, 0x01	; 1
    3ff8:	30 40       	sbci	r19, 0x00	; 0
    3ffa:	40 40       	sbci	r20, 0x00	; 0
    3ffc:	50 40       	sbci	r21, 0x00	; 0
    3ffe:	2e 21       	and	r18, r14
    4000:	3f 21       	and	r19, r15
    4002:	40 23       	and	r20, r16
    4004:	51 23       	and	r21, r17
    4006:	21 15       	cp	r18, r1
    4008:	31 05       	cpc	r19, r1
    400a:	41 05       	cpc	r20, r1
    400c:	51 05       	cpc	r21, r1
    400e:	21 f0       	breq	.+8      	; 0x4018 <_fpadd_parts+0x10c>
    4010:	21 e0       	ldi	r18, 0x01	; 1
    4012:	30 e0       	ldi	r19, 0x00	; 0
    4014:	40 e0       	ldi	r20, 0x00	; 0
    4016:	50 e0       	ldi	r21, 0x00	; 0
    4018:	79 01       	movw	r14, r18
    401a:	8a 01       	movw	r16, r20
    401c:	e6 28       	or	r14, r6
    401e:	f7 28       	or	r15, r7
    4020:	08 29       	or	r16, r8
    4022:	19 29       	or	r17, r9
    4024:	3c c0       	rjmp	.+120    	; 0x409e <_fpadd_parts+0x192>
    4026:	23 2b       	or	r18, r19
    4028:	d1 f1       	breq	.+116    	; 0x409e <_fpadd_parts+0x192>
    402a:	26 0e       	add	r2, r22
    402c:	37 1e       	adc	r3, r23
    402e:	35 01       	movw	r6, r10
    4030:	46 01       	movw	r8, r12
    4032:	06 2e       	mov	r0, r22
    4034:	04 c0       	rjmp	.+8      	; 0x403e <_fpadd_parts+0x132>
    4036:	96 94       	lsr	r9
    4038:	87 94       	ror	r8
    403a:	77 94       	ror	r7
    403c:	67 94       	ror	r6
    403e:	0a 94       	dec	r0
    4040:	d2 f7       	brpl	.-12     	; 0x4036 <_fpadd_parts+0x12a>
    4042:	21 e0       	ldi	r18, 0x01	; 1
    4044:	30 e0       	ldi	r19, 0x00	; 0
    4046:	40 e0       	ldi	r20, 0x00	; 0
    4048:	50 e0       	ldi	r21, 0x00	; 0
    404a:	04 c0       	rjmp	.+8      	; 0x4054 <_fpadd_parts+0x148>
    404c:	22 0f       	add	r18, r18
    404e:	33 1f       	adc	r19, r19
    4050:	44 1f       	adc	r20, r20
    4052:	55 1f       	adc	r21, r21
    4054:	6a 95       	dec	r22
    4056:	d2 f7       	brpl	.-12     	; 0x404c <_fpadd_parts+0x140>
    4058:	21 50       	subi	r18, 0x01	; 1
    405a:	30 40       	sbci	r19, 0x00	; 0
    405c:	40 40       	sbci	r20, 0x00	; 0
    405e:	50 40       	sbci	r21, 0x00	; 0
    4060:	2a 21       	and	r18, r10
    4062:	3b 21       	and	r19, r11
    4064:	4c 21       	and	r20, r12
    4066:	5d 21       	and	r21, r13
    4068:	21 15       	cp	r18, r1
    406a:	31 05       	cpc	r19, r1
    406c:	41 05       	cpc	r20, r1
    406e:	51 05       	cpc	r21, r1
    4070:	21 f0       	breq	.+8      	; 0x407a <_fpadd_parts+0x16e>
    4072:	21 e0       	ldi	r18, 0x01	; 1
    4074:	30 e0       	ldi	r19, 0x00	; 0
    4076:	40 e0       	ldi	r20, 0x00	; 0
    4078:	50 e0       	ldi	r21, 0x00	; 0
    407a:	59 01       	movw	r10, r18
    407c:	6a 01       	movw	r12, r20
    407e:	a6 28       	or	r10, r6
    4080:	b7 28       	or	r11, r7
    4082:	c8 28       	or	r12, r8
    4084:	d9 28       	or	r13, r9
    4086:	0b c0       	rjmp	.+22     	; 0x409e <_fpadd_parts+0x192>
    4088:	82 15       	cp	r24, r2
    408a:	93 05       	cpc	r25, r3
    408c:	2c f0       	brlt	.+10     	; 0x4098 <_fpadd_parts+0x18c>
    408e:	1c 01       	movw	r2, r24
    4090:	aa 24       	eor	r10, r10
    4092:	bb 24       	eor	r11, r11
    4094:	65 01       	movw	r12, r10
    4096:	03 c0       	rjmp	.+6      	; 0x409e <_fpadd_parts+0x192>
    4098:	ee 24       	eor	r14, r14
    409a:	ff 24       	eor	r15, r15
    409c:	87 01       	movw	r16, r14
    409e:	11 96       	adiw	r26, 0x01	; 1
    40a0:	9c 91       	ld	r25, X
    40a2:	d2 01       	movw	r26, r4
    40a4:	11 96       	adiw	r26, 0x01	; 1
    40a6:	8c 91       	ld	r24, X
    40a8:	98 17       	cp	r25, r24
    40aa:	09 f4       	brne	.+2      	; 0x40ae <_fpadd_parts+0x1a2>
    40ac:	45 c0       	rjmp	.+138    	; 0x4138 <_fpadd_parts+0x22c>
    40ae:	99 23       	and	r25, r25
    40b0:	39 f0       	breq	.+14     	; 0x40c0 <_fpadd_parts+0x1b4>
    40b2:	a8 01       	movw	r20, r16
    40b4:	97 01       	movw	r18, r14
    40b6:	2a 19       	sub	r18, r10
    40b8:	3b 09       	sbc	r19, r11
    40ba:	4c 09       	sbc	r20, r12
    40bc:	5d 09       	sbc	r21, r13
    40be:	06 c0       	rjmp	.+12     	; 0x40cc <_fpadd_parts+0x1c0>
    40c0:	a6 01       	movw	r20, r12
    40c2:	95 01       	movw	r18, r10
    40c4:	2e 19       	sub	r18, r14
    40c6:	3f 09       	sbc	r19, r15
    40c8:	40 0b       	sbc	r20, r16
    40ca:	51 0b       	sbc	r21, r17
    40cc:	57 fd       	sbrc	r21, 7
    40ce:	08 c0       	rjmp	.+16     	; 0x40e0 <_fpadd_parts+0x1d4>
    40d0:	11 82       	std	Z+1, r1	; 0x01
    40d2:	33 82       	std	Z+3, r3	; 0x03
    40d4:	22 82       	std	Z+2, r2	; 0x02
    40d6:	24 83       	std	Z+4, r18	; 0x04
    40d8:	35 83       	std	Z+5, r19	; 0x05
    40da:	46 83       	std	Z+6, r20	; 0x06
    40dc:	57 83       	std	Z+7, r21	; 0x07
    40de:	1d c0       	rjmp	.+58     	; 0x411a <_fpadd_parts+0x20e>
    40e0:	81 e0       	ldi	r24, 0x01	; 1
    40e2:	81 83       	std	Z+1, r24	; 0x01
    40e4:	33 82       	std	Z+3, r3	; 0x03
    40e6:	22 82       	std	Z+2, r2	; 0x02
    40e8:	88 27       	eor	r24, r24
    40ea:	99 27       	eor	r25, r25
    40ec:	dc 01       	movw	r26, r24
    40ee:	82 1b       	sub	r24, r18
    40f0:	93 0b       	sbc	r25, r19
    40f2:	a4 0b       	sbc	r26, r20
    40f4:	b5 0b       	sbc	r27, r21
    40f6:	84 83       	std	Z+4, r24	; 0x04
    40f8:	95 83       	std	Z+5, r25	; 0x05
    40fa:	a6 83       	std	Z+6, r26	; 0x06
    40fc:	b7 83       	std	Z+7, r27	; 0x07
    40fe:	0d c0       	rjmp	.+26     	; 0x411a <_fpadd_parts+0x20e>
    4100:	22 0f       	add	r18, r18
    4102:	33 1f       	adc	r19, r19
    4104:	44 1f       	adc	r20, r20
    4106:	55 1f       	adc	r21, r21
    4108:	24 83       	std	Z+4, r18	; 0x04
    410a:	35 83       	std	Z+5, r19	; 0x05
    410c:	46 83       	std	Z+6, r20	; 0x06
    410e:	57 83       	std	Z+7, r21	; 0x07
    4110:	82 81       	ldd	r24, Z+2	; 0x02
    4112:	93 81       	ldd	r25, Z+3	; 0x03
    4114:	01 97       	sbiw	r24, 0x01	; 1
    4116:	93 83       	std	Z+3, r25	; 0x03
    4118:	82 83       	std	Z+2, r24	; 0x02
    411a:	24 81       	ldd	r18, Z+4	; 0x04
    411c:	35 81       	ldd	r19, Z+5	; 0x05
    411e:	46 81       	ldd	r20, Z+6	; 0x06
    4120:	57 81       	ldd	r21, Z+7	; 0x07
    4122:	da 01       	movw	r26, r20
    4124:	c9 01       	movw	r24, r18
    4126:	01 97       	sbiw	r24, 0x01	; 1
    4128:	a1 09       	sbc	r26, r1
    412a:	b1 09       	sbc	r27, r1
    412c:	8f 5f       	subi	r24, 0xFF	; 255
    412e:	9f 4f       	sbci	r25, 0xFF	; 255
    4130:	af 4f       	sbci	r26, 0xFF	; 255
    4132:	bf 43       	sbci	r27, 0x3F	; 63
    4134:	28 f3       	brcs	.-54     	; 0x4100 <_fpadd_parts+0x1f4>
    4136:	0b c0       	rjmp	.+22     	; 0x414e <_fpadd_parts+0x242>
    4138:	91 83       	std	Z+1, r25	; 0x01
    413a:	33 82       	std	Z+3, r3	; 0x03
    413c:	22 82       	std	Z+2, r2	; 0x02
    413e:	ea 0c       	add	r14, r10
    4140:	fb 1c       	adc	r15, r11
    4142:	0c 1d       	adc	r16, r12
    4144:	1d 1d       	adc	r17, r13
    4146:	e4 82       	std	Z+4, r14	; 0x04
    4148:	f5 82       	std	Z+5, r15	; 0x05
    414a:	06 83       	std	Z+6, r16	; 0x06
    414c:	17 83       	std	Z+7, r17	; 0x07
    414e:	83 e0       	ldi	r24, 0x03	; 3
    4150:	80 83       	st	Z, r24
    4152:	24 81       	ldd	r18, Z+4	; 0x04
    4154:	35 81       	ldd	r19, Z+5	; 0x05
    4156:	46 81       	ldd	r20, Z+6	; 0x06
    4158:	57 81       	ldd	r21, Z+7	; 0x07
    415a:	57 ff       	sbrs	r21, 7
    415c:	1a c0       	rjmp	.+52     	; 0x4192 <_fpadd_parts+0x286>
    415e:	c9 01       	movw	r24, r18
    4160:	aa 27       	eor	r26, r26
    4162:	97 fd       	sbrc	r25, 7
    4164:	a0 95       	com	r26
    4166:	ba 2f       	mov	r27, r26
    4168:	81 70       	andi	r24, 0x01	; 1
    416a:	90 70       	andi	r25, 0x00	; 0
    416c:	a0 70       	andi	r26, 0x00	; 0
    416e:	b0 70       	andi	r27, 0x00	; 0
    4170:	56 95       	lsr	r21
    4172:	47 95       	ror	r20
    4174:	37 95       	ror	r19
    4176:	27 95       	ror	r18
    4178:	82 2b       	or	r24, r18
    417a:	93 2b       	or	r25, r19
    417c:	a4 2b       	or	r26, r20
    417e:	b5 2b       	or	r27, r21
    4180:	84 83       	std	Z+4, r24	; 0x04
    4182:	95 83       	std	Z+5, r25	; 0x05
    4184:	a6 83       	std	Z+6, r26	; 0x06
    4186:	b7 83       	std	Z+7, r27	; 0x07
    4188:	82 81       	ldd	r24, Z+2	; 0x02
    418a:	93 81       	ldd	r25, Z+3	; 0x03
    418c:	01 96       	adiw	r24, 0x01	; 1
    418e:	93 83       	std	Z+3, r25	; 0x03
    4190:	82 83       	std	Z+2, r24	; 0x02
    4192:	df 01       	movw	r26, r30
    4194:	01 c0       	rjmp	.+2      	; 0x4198 <_fpadd_parts+0x28c>
    4196:	d2 01       	movw	r26, r4
    4198:	cd 01       	movw	r24, r26
    419a:	cd b7       	in	r28, 0x3d	; 61
    419c:	de b7       	in	r29, 0x3e	; 62
    419e:	e2 e1       	ldi	r30, 0x12	; 18
    41a0:	0c 94 58 26 	jmp	0x4cb0	; 0x4cb0 <__epilogue_restores__>

000041a4 <__subsf3>:
    41a4:	a0 e2       	ldi	r26, 0x20	; 32
    41a6:	b0 e0       	ldi	r27, 0x00	; 0
    41a8:	e8 ed       	ldi	r30, 0xD8	; 216
    41aa:	f0 e2       	ldi	r31, 0x20	; 32
    41ac:	0c 94 48 26 	jmp	0x4c90	; 0x4c90 <__prologue_saves__+0x18>
    41b0:	69 83       	std	Y+1, r22	; 0x01
    41b2:	7a 83       	std	Y+2, r23	; 0x02
    41b4:	8b 83       	std	Y+3, r24	; 0x03
    41b6:	9c 83       	std	Y+4, r25	; 0x04
    41b8:	2d 83       	std	Y+5, r18	; 0x05
    41ba:	3e 83       	std	Y+6, r19	; 0x06
    41bc:	4f 83       	std	Y+7, r20	; 0x07
    41be:	58 87       	std	Y+8, r21	; 0x08
    41c0:	e9 e0       	ldi	r30, 0x09	; 9
    41c2:	ee 2e       	mov	r14, r30
    41c4:	f1 2c       	mov	r15, r1
    41c6:	ec 0e       	add	r14, r28
    41c8:	fd 1e       	adc	r15, r29
    41ca:	ce 01       	movw	r24, r28
    41cc:	01 96       	adiw	r24, 0x01	; 1
    41ce:	b7 01       	movw	r22, r14
    41d0:	0e 94 57 25 	call	0x4aae	; 0x4aae <__unpack_f>
    41d4:	8e 01       	movw	r16, r28
    41d6:	0f 5e       	subi	r16, 0xEF	; 239
    41d8:	1f 4f       	sbci	r17, 0xFF	; 255
    41da:	ce 01       	movw	r24, r28
    41dc:	05 96       	adiw	r24, 0x05	; 5
    41de:	b8 01       	movw	r22, r16
    41e0:	0e 94 57 25 	call	0x4aae	; 0x4aae <__unpack_f>
    41e4:	8a 89       	ldd	r24, Y+18	; 0x12
    41e6:	91 e0       	ldi	r25, 0x01	; 1
    41e8:	89 27       	eor	r24, r25
    41ea:	8a 8b       	std	Y+18, r24	; 0x12
    41ec:	c7 01       	movw	r24, r14
    41ee:	b8 01       	movw	r22, r16
    41f0:	ae 01       	movw	r20, r28
    41f2:	47 5e       	subi	r20, 0xE7	; 231
    41f4:	5f 4f       	sbci	r21, 0xFF	; 255
    41f6:	0e 94 86 1f 	call	0x3f0c	; 0x3f0c <_fpadd_parts>
    41fa:	0e 94 82 24 	call	0x4904	; 0x4904 <__pack_f>
    41fe:	a0 96       	adiw	r28, 0x20	; 32
    4200:	e6 e0       	ldi	r30, 0x06	; 6
    4202:	0c 94 64 26 	jmp	0x4cc8	; 0x4cc8 <__epilogue_restores__+0x18>

00004206 <__addsf3>:
    4206:	a0 e2       	ldi	r26, 0x20	; 32
    4208:	b0 e0       	ldi	r27, 0x00	; 0
    420a:	e9 e0       	ldi	r30, 0x09	; 9
    420c:	f1 e2       	ldi	r31, 0x21	; 33
    420e:	0c 94 48 26 	jmp	0x4c90	; 0x4c90 <__prologue_saves__+0x18>
    4212:	69 83       	std	Y+1, r22	; 0x01
    4214:	7a 83       	std	Y+2, r23	; 0x02
    4216:	8b 83       	std	Y+3, r24	; 0x03
    4218:	9c 83       	std	Y+4, r25	; 0x04
    421a:	2d 83       	std	Y+5, r18	; 0x05
    421c:	3e 83       	std	Y+6, r19	; 0x06
    421e:	4f 83       	std	Y+7, r20	; 0x07
    4220:	58 87       	std	Y+8, r21	; 0x08
    4222:	f9 e0       	ldi	r31, 0x09	; 9
    4224:	ef 2e       	mov	r14, r31
    4226:	f1 2c       	mov	r15, r1
    4228:	ec 0e       	add	r14, r28
    422a:	fd 1e       	adc	r15, r29
    422c:	ce 01       	movw	r24, r28
    422e:	01 96       	adiw	r24, 0x01	; 1
    4230:	b7 01       	movw	r22, r14
    4232:	0e 94 57 25 	call	0x4aae	; 0x4aae <__unpack_f>
    4236:	8e 01       	movw	r16, r28
    4238:	0f 5e       	subi	r16, 0xEF	; 239
    423a:	1f 4f       	sbci	r17, 0xFF	; 255
    423c:	ce 01       	movw	r24, r28
    423e:	05 96       	adiw	r24, 0x05	; 5
    4240:	b8 01       	movw	r22, r16
    4242:	0e 94 57 25 	call	0x4aae	; 0x4aae <__unpack_f>
    4246:	c7 01       	movw	r24, r14
    4248:	b8 01       	movw	r22, r16
    424a:	ae 01       	movw	r20, r28
    424c:	47 5e       	subi	r20, 0xE7	; 231
    424e:	5f 4f       	sbci	r21, 0xFF	; 255
    4250:	0e 94 86 1f 	call	0x3f0c	; 0x3f0c <_fpadd_parts>
    4254:	0e 94 82 24 	call	0x4904	; 0x4904 <__pack_f>
    4258:	a0 96       	adiw	r28, 0x20	; 32
    425a:	e6 e0       	ldi	r30, 0x06	; 6
    425c:	0c 94 64 26 	jmp	0x4cc8	; 0x4cc8 <__epilogue_restores__+0x18>

00004260 <__mulsf3>:
    4260:	a0 e2       	ldi	r26, 0x20	; 32
    4262:	b0 e0       	ldi	r27, 0x00	; 0
    4264:	e6 e3       	ldi	r30, 0x36	; 54
    4266:	f1 e2       	ldi	r31, 0x21	; 33
    4268:	0c 94 3c 26 	jmp	0x4c78	; 0x4c78 <__prologue_saves__>
    426c:	69 83       	std	Y+1, r22	; 0x01
    426e:	7a 83       	std	Y+2, r23	; 0x02
    4270:	8b 83       	std	Y+3, r24	; 0x03
    4272:	9c 83       	std	Y+4, r25	; 0x04
    4274:	2d 83       	std	Y+5, r18	; 0x05
    4276:	3e 83       	std	Y+6, r19	; 0x06
    4278:	4f 83       	std	Y+7, r20	; 0x07
    427a:	58 87       	std	Y+8, r21	; 0x08
    427c:	ce 01       	movw	r24, r28
    427e:	01 96       	adiw	r24, 0x01	; 1
    4280:	be 01       	movw	r22, r28
    4282:	67 5f       	subi	r22, 0xF7	; 247
    4284:	7f 4f       	sbci	r23, 0xFF	; 255
    4286:	0e 94 57 25 	call	0x4aae	; 0x4aae <__unpack_f>
    428a:	ce 01       	movw	r24, r28
    428c:	05 96       	adiw	r24, 0x05	; 5
    428e:	be 01       	movw	r22, r28
    4290:	6f 5e       	subi	r22, 0xEF	; 239
    4292:	7f 4f       	sbci	r23, 0xFF	; 255
    4294:	0e 94 57 25 	call	0x4aae	; 0x4aae <__unpack_f>
    4298:	99 85       	ldd	r25, Y+9	; 0x09
    429a:	92 30       	cpi	r25, 0x02	; 2
    429c:	88 f0       	brcs	.+34     	; 0x42c0 <__mulsf3+0x60>
    429e:	89 89       	ldd	r24, Y+17	; 0x11
    42a0:	82 30       	cpi	r24, 0x02	; 2
    42a2:	c8 f0       	brcs	.+50     	; 0x42d6 <__mulsf3+0x76>
    42a4:	94 30       	cpi	r25, 0x04	; 4
    42a6:	19 f4       	brne	.+6      	; 0x42ae <__mulsf3+0x4e>
    42a8:	82 30       	cpi	r24, 0x02	; 2
    42aa:	51 f4       	brne	.+20     	; 0x42c0 <__mulsf3+0x60>
    42ac:	04 c0       	rjmp	.+8      	; 0x42b6 <__mulsf3+0x56>
    42ae:	84 30       	cpi	r24, 0x04	; 4
    42b0:	29 f4       	brne	.+10     	; 0x42bc <__mulsf3+0x5c>
    42b2:	92 30       	cpi	r25, 0x02	; 2
    42b4:	81 f4       	brne	.+32     	; 0x42d6 <__mulsf3+0x76>
    42b6:	85 e6       	ldi	r24, 0x65	; 101
    42b8:	92 e0       	ldi	r25, 0x02	; 2
    42ba:	c6 c0       	rjmp	.+396    	; 0x4448 <__mulsf3+0x1e8>
    42bc:	92 30       	cpi	r25, 0x02	; 2
    42be:	49 f4       	brne	.+18     	; 0x42d2 <__mulsf3+0x72>
    42c0:	20 e0       	ldi	r18, 0x00	; 0
    42c2:	9a 85       	ldd	r25, Y+10	; 0x0a
    42c4:	8a 89       	ldd	r24, Y+18	; 0x12
    42c6:	98 13       	cpse	r25, r24
    42c8:	21 e0       	ldi	r18, 0x01	; 1
    42ca:	2a 87       	std	Y+10, r18	; 0x0a
    42cc:	ce 01       	movw	r24, r28
    42ce:	09 96       	adiw	r24, 0x09	; 9
    42d0:	bb c0       	rjmp	.+374    	; 0x4448 <__mulsf3+0x1e8>
    42d2:	82 30       	cpi	r24, 0x02	; 2
    42d4:	49 f4       	brne	.+18     	; 0x42e8 <__mulsf3+0x88>
    42d6:	20 e0       	ldi	r18, 0x00	; 0
    42d8:	9a 85       	ldd	r25, Y+10	; 0x0a
    42da:	8a 89       	ldd	r24, Y+18	; 0x12
    42dc:	98 13       	cpse	r25, r24
    42de:	21 e0       	ldi	r18, 0x01	; 1
    42e0:	2a 8b       	std	Y+18, r18	; 0x12
    42e2:	ce 01       	movw	r24, r28
    42e4:	41 96       	adiw	r24, 0x11	; 17
    42e6:	b0 c0       	rjmp	.+352    	; 0x4448 <__mulsf3+0x1e8>
    42e8:	2d 84       	ldd	r2, Y+13	; 0x0d
    42ea:	3e 84       	ldd	r3, Y+14	; 0x0e
    42ec:	4f 84       	ldd	r4, Y+15	; 0x0f
    42ee:	58 88       	ldd	r5, Y+16	; 0x10
    42f0:	6d 88       	ldd	r6, Y+21	; 0x15
    42f2:	7e 88       	ldd	r7, Y+22	; 0x16
    42f4:	8f 88       	ldd	r8, Y+23	; 0x17
    42f6:	98 8c       	ldd	r9, Y+24	; 0x18
    42f8:	ee 24       	eor	r14, r14
    42fa:	ff 24       	eor	r15, r15
    42fc:	87 01       	movw	r16, r14
    42fe:	aa 24       	eor	r10, r10
    4300:	bb 24       	eor	r11, r11
    4302:	65 01       	movw	r12, r10
    4304:	40 e0       	ldi	r20, 0x00	; 0
    4306:	50 e0       	ldi	r21, 0x00	; 0
    4308:	60 e0       	ldi	r22, 0x00	; 0
    430a:	70 e0       	ldi	r23, 0x00	; 0
    430c:	e0 e0       	ldi	r30, 0x00	; 0
    430e:	f0 e0       	ldi	r31, 0x00	; 0
    4310:	c1 01       	movw	r24, r2
    4312:	81 70       	andi	r24, 0x01	; 1
    4314:	90 70       	andi	r25, 0x00	; 0
    4316:	89 2b       	or	r24, r25
    4318:	e9 f0       	breq	.+58     	; 0x4354 <__mulsf3+0xf4>
    431a:	e6 0c       	add	r14, r6
    431c:	f7 1c       	adc	r15, r7
    431e:	08 1d       	adc	r16, r8
    4320:	19 1d       	adc	r17, r9
    4322:	9a 01       	movw	r18, r20
    4324:	ab 01       	movw	r20, r22
    4326:	2a 0d       	add	r18, r10
    4328:	3b 1d       	adc	r19, r11
    432a:	4c 1d       	adc	r20, r12
    432c:	5d 1d       	adc	r21, r13
    432e:	80 e0       	ldi	r24, 0x00	; 0
    4330:	90 e0       	ldi	r25, 0x00	; 0
    4332:	a0 e0       	ldi	r26, 0x00	; 0
    4334:	b0 e0       	ldi	r27, 0x00	; 0
    4336:	e6 14       	cp	r14, r6
    4338:	f7 04       	cpc	r15, r7
    433a:	08 05       	cpc	r16, r8
    433c:	19 05       	cpc	r17, r9
    433e:	20 f4       	brcc	.+8      	; 0x4348 <__mulsf3+0xe8>
    4340:	81 e0       	ldi	r24, 0x01	; 1
    4342:	90 e0       	ldi	r25, 0x00	; 0
    4344:	a0 e0       	ldi	r26, 0x00	; 0
    4346:	b0 e0       	ldi	r27, 0x00	; 0
    4348:	ba 01       	movw	r22, r20
    434a:	a9 01       	movw	r20, r18
    434c:	48 0f       	add	r20, r24
    434e:	59 1f       	adc	r21, r25
    4350:	6a 1f       	adc	r22, r26
    4352:	7b 1f       	adc	r23, r27
    4354:	aa 0c       	add	r10, r10
    4356:	bb 1c       	adc	r11, r11
    4358:	cc 1c       	adc	r12, r12
    435a:	dd 1c       	adc	r13, r13
    435c:	97 fe       	sbrs	r9, 7
    435e:	08 c0       	rjmp	.+16     	; 0x4370 <__mulsf3+0x110>
    4360:	81 e0       	ldi	r24, 0x01	; 1
    4362:	90 e0       	ldi	r25, 0x00	; 0
    4364:	a0 e0       	ldi	r26, 0x00	; 0
    4366:	b0 e0       	ldi	r27, 0x00	; 0
    4368:	a8 2a       	or	r10, r24
    436a:	b9 2a       	or	r11, r25
    436c:	ca 2a       	or	r12, r26
    436e:	db 2a       	or	r13, r27
    4370:	31 96       	adiw	r30, 0x01	; 1
    4372:	e0 32       	cpi	r30, 0x20	; 32
    4374:	f1 05       	cpc	r31, r1
    4376:	49 f0       	breq	.+18     	; 0x438a <__mulsf3+0x12a>
    4378:	66 0c       	add	r6, r6
    437a:	77 1c       	adc	r7, r7
    437c:	88 1c       	adc	r8, r8
    437e:	99 1c       	adc	r9, r9
    4380:	56 94       	lsr	r5
    4382:	47 94       	ror	r4
    4384:	37 94       	ror	r3
    4386:	27 94       	ror	r2
    4388:	c3 cf       	rjmp	.-122    	; 0x4310 <__mulsf3+0xb0>
    438a:	fa 85       	ldd	r31, Y+10	; 0x0a
    438c:	ea 89       	ldd	r30, Y+18	; 0x12
    438e:	2b 89       	ldd	r18, Y+19	; 0x13
    4390:	3c 89       	ldd	r19, Y+20	; 0x14
    4392:	8b 85       	ldd	r24, Y+11	; 0x0b
    4394:	9c 85       	ldd	r25, Y+12	; 0x0c
    4396:	28 0f       	add	r18, r24
    4398:	39 1f       	adc	r19, r25
    439a:	2e 5f       	subi	r18, 0xFE	; 254
    439c:	3f 4f       	sbci	r19, 0xFF	; 255
    439e:	17 c0       	rjmp	.+46     	; 0x43ce <__mulsf3+0x16e>
    43a0:	ca 01       	movw	r24, r20
    43a2:	81 70       	andi	r24, 0x01	; 1
    43a4:	90 70       	andi	r25, 0x00	; 0
    43a6:	89 2b       	or	r24, r25
    43a8:	61 f0       	breq	.+24     	; 0x43c2 <__mulsf3+0x162>
    43aa:	16 95       	lsr	r17
    43ac:	07 95       	ror	r16
    43ae:	f7 94       	ror	r15
    43b0:	e7 94       	ror	r14
    43b2:	80 e0       	ldi	r24, 0x00	; 0
    43b4:	90 e0       	ldi	r25, 0x00	; 0
    43b6:	a0 e0       	ldi	r26, 0x00	; 0
    43b8:	b0 e8       	ldi	r27, 0x80	; 128
    43ba:	e8 2a       	or	r14, r24
    43bc:	f9 2a       	or	r15, r25
    43be:	0a 2b       	or	r16, r26
    43c0:	1b 2b       	or	r17, r27
    43c2:	76 95       	lsr	r23
    43c4:	67 95       	ror	r22
    43c6:	57 95       	ror	r21
    43c8:	47 95       	ror	r20
    43ca:	2f 5f       	subi	r18, 0xFF	; 255
    43cc:	3f 4f       	sbci	r19, 0xFF	; 255
    43ce:	77 fd       	sbrc	r23, 7
    43d0:	e7 cf       	rjmp	.-50     	; 0x43a0 <__mulsf3+0x140>
    43d2:	0c c0       	rjmp	.+24     	; 0x43ec <__mulsf3+0x18c>
    43d4:	44 0f       	add	r20, r20
    43d6:	55 1f       	adc	r21, r21
    43d8:	66 1f       	adc	r22, r22
    43da:	77 1f       	adc	r23, r23
    43dc:	17 fd       	sbrc	r17, 7
    43de:	41 60       	ori	r20, 0x01	; 1
    43e0:	ee 0c       	add	r14, r14
    43e2:	ff 1c       	adc	r15, r15
    43e4:	00 1f       	adc	r16, r16
    43e6:	11 1f       	adc	r17, r17
    43e8:	21 50       	subi	r18, 0x01	; 1
    43ea:	30 40       	sbci	r19, 0x00	; 0
    43ec:	40 30       	cpi	r20, 0x00	; 0
    43ee:	90 e0       	ldi	r25, 0x00	; 0
    43f0:	59 07       	cpc	r21, r25
    43f2:	90 e0       	ldi	r25, 0x00	; 0
    43f4:	69 07       	cpc	r22, r25
    43f6:	90 e4       	ldi	r25, 0x40	; 64
    43f8:	79 07       	cpc	r23, r25
    43fa:	60 f3       	brcs	.-40     	; 0x43d4 <__mulsf3+0x174>
    43fc:	2b 8f       	std	Y+27, r18	; 0x1b
    43fe:	3c 8f       	std	Y+28, r19	; 0x1c
    4400:	db 01       	movw	r26, r22
    4402:	ca 01       	movw	r24, r20
    4404:	8f 77       	andi	r24, 0x7F	; 127
    4406:	90 70       	andi	r25, 0x00	; 0
    4408:	a0 70       	andi	r26, 0x00	; 0
    440a:	b0 70       	andi	r27, 0x00	; 0
    440c:	80 34       	cpi	r24, 0x40	; 64
    440e:	91 05       	cpc	r25, r1
    4410:	a1 05       	cpc	r26, r1
    4412:	b1 05       	cpc	r27, r1
    4414:	61 f4       	brne	.+24     	; 0x442e <__mulsf3+0x1ce>
    4416:	47 fd       	sbrc	r20, 7
    4418:	0a c0       	rjmp	.+20     	; 0x442e <__mulsf3+0x1ce>
    441a:	e1 14       	cp	r14, r1
    441c:	f1 04       	cpc	r15, r1
    441e:	01 05       	cpc	r16, r1
    4420:	11 05       	cpc	r17, r1
    4422:	29 f0       	breq	.+10     	; 0x442e <__mulsf3+0x1ce>
    4424:	40 5c       	subi	r20, 0xC0	; 192
    4426:	5f 4f       	sbci	r21, 0xFF	; 255
    4428:	6f 4f       	sbci	r22, 0xFF	; 255
    442a:	7f 4f       	sbci	r23, 0xFF	; 255
    442c:	40 78       	andi	r20, 0x80	; 128
    442e:	1a 8e       	std	Y+26, r1	; 0x1a
    4430:	fe 17       	cp	r31, r30
    4432:	11 f0       	breq	.+4      	; 0x4438 <__mulsf3+0x1d8>
    4434:	81 e0       	ldi	r24, 0x01	; 1
    4436:	8a 8f       	std	Y+26, r24	; 0x1a
    4438:	4d 8f       	std	Y+29, r20	; 0x1d
    443a:	5e 8f       	std	Y+30, r21	; 0x1e
    443c:	6f 8f       	std	Y+31, r22	; 0x1f
    443e:	78 a3       	std	Y+32, r23	; 0x20
    4440:	83 e0       	ldi	r24, 0x03	; 3
    4442:	89 8f       	std	Y+25, r24	; 0x19
    4444:	ce 01       	movw	r24, r28
    4446:	49 96       	adiw	r24, 0x19	; 25
    4448:	0e 94 82 24 	call	0x4904	; 0x4904 <__pack_f>
    444c:	a0 96       	adiw	r28, 0x20	; 32
    444e:	e2 e1       	ldi	r30, 0x12	; 18
    4450:	0c 94 58 26 	jmp	0x4cb0	; 0x4cb0 <__epilogue_restores__>

00004454 <__divsf3>:
    4454:	a8 e1       	ldi	r26, 0x18	; 24
    4456:	b0 e0       	ldi	r27, 0x00	; 0
    4458:	e0 e3       	ldi	r30, 0x30	; 48
    445a:	f2 e2       	ldi	r31, 0x22	; 34
    445c:	0c 94 44 26 	jmp	0x4c88	; 0x4c88 <__prologue_saves__+0x10>
    4460:	69 83       	std	Y+1, r22	; 0x01
    4462:	7a 83       	std	Y+2, r23	; 0x02
    4464:	8b 83       	std	Y+3, r24	; 0x03
    4466:	9c 83       	std	Y+4, r25	; 0x04
    4468:	2d 83       	std	Y+5, r18	; 0x05
    446a:	3e 83       	std	Y+6, r19	; 0x06
    446c:	4f 83       	std	Y+7, r20	; 0x07
    446e:	58 87       	std	Y+8, r21	; 0x08
    4470:	b9 e0       	ldi	r27, 0x09	; 9
    4472:	eb 2e       	mov	r14, r27
    4474:	f1 2c       	mov	r15, r1
    4476:	ec 0e       	add	r14, r28
    4478:	fd 1e       	adc	r15, r29
    447a:	ce 01       	movw	r24, r28
    447c:	01 96       	adiw	r24, 0x01	; 1
    447e:	b7 01       	movw	r22, r14
    4480:	0e 94 57 25 	call	0x4aae	; 0x4aae <__unpack_f>
    4484:	8e 01       	movw	r16, r28
    4486:	0f 5e       	subi	r16, 0xEF	; 239
    4488:	1f 4f       	sbci	r17, 0xFF	; 255
    448a:	ce 01       	movw	r24, r28
    448c:	05 96       	adiw	r24, 0x05	; 5
    448e:	b8 01       	movw	r22, r16
    4490:	0e 94 57 25 	call	0x4aae	; 0x4aae <__unpack_f>
    4494:	29 85       	ldd	r18, Y+9	; 0x09
    4496:	22 30       	cpi	r18, 0x02	; 2
    4498:	08 f4       	brcc	.+2      	; 0x449c <__divsf3+0x48>
    449a:	7e c0       	rjmp	.+252    	; 0x4598 <__divsf3+0x144>
    449c:	39 89       	ldd	r19, Y+17	; 0x11
    449e:	32 30       	cpi	r19, 0x02	; 2
    44a0:	10 f4       	brcc	.+4      	; 0x44a6 <__divsf3+0x52>
    44a2:	b8 01       	movw	r22, r16
    44a4:	7c c0       	rjmp	.+248    	; 0x459e <__divsf3+0x14a>
    44a6:	8a 85       	ldd	r24, Y+10	; 0x0a
    44a8:	9a 89       	ldd	r25, Y+18	; 0x12
    44aa:	89 27       	eor	r24, r25
    44ac:	8a 87       	std	Y+10, r24	; 0x0a
    44ae:	24 30       	cpi	r18, 0x04	; 4
    44b0:	11 f0       	breq	.+4      	; 0x44b6 <__divsf3+0x62>
    44b2:	22 30       	cpi	r18, 0x02	; 2
    44b4:	31 f4       	brne	.+12     	; 0x44c2 <__divsf3+0x6e>
    44b6:	23 17       	cp	r18, r19
    44b8:	09 f0       	breq	.+2      	; 0x44bc <__divsf3+0x68>
    44ba:	6e c0       	rjmp	.+220    	; 0x4598 <__divsf3+0x144>
    44bc:	65 e6       	ldi	r22, 0x65	; 101
    44be:	72 e0       	ldi	r23, 0x02	; 2
    44c0:	6e c0       	rjmp	.+220    	; 0x459e <__divsf3+0x14a>
    44c2:	34 30       	cpi	r19, 0x04	; 4
    44c4:	39 f4       	brne	.+14     	; 0x44d4 <__divsf3+0x80>
    44c6:	1d 86       	std	Y+13, r1	; 0x0d
    44c8:	1e 86       	std	Y+14, r1	; 0x0e
    44ca:	1f 86       	std	Y+15, r1	; 0x0f
    44cc:	18 8a       	std	Y+16, r1	; 0x10
    44ce:	1c 86       	std	Y+12, r1	; 0x0c
    44d0:	1b 86       	std	Y+11, r1	; 0x0b
    44d2:	04 c0       	rjmp	.+8      	; 0x44dc <__divsf3+0x88>
    44d4:	32 30       	cpi	r19, 0x02	; 2
    44d6:	21 f4       	brne	.+8      	; 0x44e0 <__divsf3+0x8c>
    44d8:	84 e0       	ldi	r24, 0x04	; 4
    44da:	89 87       	std	Y+9, r24	; 0x09
    44dc:	b7 01       	movw	r22, r14
    44de:	5f c0       	rjmp	.+190    	; 0x459e <__divsf3+0x14a>
    44e0:	2b 85       	ldd	r18, Y+11	; 0x0b
    44e2:	3c 85       	ldd	r19, Y+12	; 0x0c
    44e4:	8b 89       	ldd	r24, Y+19	; 0x13
    44e6:	9c 89       	ldd	r25, Y+20	; 0x14
    44e8:	28 1b       	sub	r18, r24
    44ea:	39 0b       	sbc	r19, r25
    44ec:	3c 87       	std	Y+12, r19	; 0x0c
    44ee:	2b 87       	std	Y+11, r18	; 0x0b
    44f0:	ed 84       	ldd	r14, Y+13	; 0x0d
    44f2:	fe 84       	ldd	r15, Y+14	; 0x0e
    44f4:	0f 85       	ldd	r16, Y+15	; 0x0f
    44f6:	18 89       	ldd	r17, Y+16	; 0x10
    44f8:	ad 88       	ldd	r10, Y+21	; 0x15
    44fa:	be 88       	ldd	r11, Y+22	; 0x16
    44fc:	cf 88       	ldd	r12, Y+23	; 0x17
    44fe:	d8 8c       	ldd	r13, Y+24	; 0x18
    4500:	ea 14       	cp	r14, r10
    4502:	fb 04       	cpc	r15, r11
    4504:	0c 05       	cpc	r16, r12
    4506:	1d 05       	cpc	r17, r13
    4508:	40 f4       	brcc	.+16     	; 0x451a <__divsf3+0xc6>
    450a:	ee 0c       	add	r14, r14
    450c:	ff 1c       	adc	r15, r15
    450e:	00 1f       	adc	r16, r16
    4510:	11 1f       	adc	r17, r17
    4512:	21 50       	subi	r18, 0x01	; 1
    4514:	30 40       	sbci	r19, 0x00	; 0
    4516:	3c 87       	std	Y+12, r19	; 0x0c
    4518:	2b 87       	std	Y+11, r18	; 0x0b
    451a:	20 e0       	ldi	r18, 0x00	; 0
    451c:	30 e0       	ldi	r19, 0x00	; 0
    451e:	40 e0       	ldi	r20, 0x00	; 0
    4520:	50 e0       	ldi	r21, 0x00	; 0
    4522:	80 e0       	ldi	r24, 0x00	; 0
    4524:	90 e0       	ldi	r25, 0x00	; 0
    4526:	a0 e0       	ldi	r26, 0x00	; 0
    4528:	b0 e4       	ldi	r27, 0x40	; 64
    452a:	60 e0       	ldi	r22, 0x00	; 0
    452c:	70 e0       	ldi	r23, 0x00	; 0
    452e:	ea 14       	cp	r14, r10
    4530:	fb 04       	cpc	r15, r11
    4532:	0c 05       	cpc	r16, r12
    4534:	1d 05       	cpc	r17, r13
    4536:	40 f0       	brcs	.+16     	; 0x4548 <__divsf3+0xf4>
    4538:	28 2b       	or	r18, r24
    453a:	39 2b       	or	r19, r25
    453c:	4a 2b       	or	r20, r26
    453e:	5b 2b       	or	r21, r27
    4540:	ea 18       	sub	r14, r10
    4542:	fb 08       	sbc	r15, r11
    4544:	0c 09       	sbc	r16, r12
    4546:	1d 09       	sbc	r17, r13
    4548:	b6 95       	lsr	r27
    454a:	a7 95       	ror	r26
    454c:	97 95       	ror	r25
    454e:	87 95       	ror	r24
    4550:	ee 0c       	add	r14, r14
    4552:	ff 1c       	adc	r15, r15
    4554:	00 1f       	adc	r16, r16
    4556:	11 1f       	adc	r17, r17
    4558:	6f 5f       	subi	r22, 0xFF	; 255
    455a:	7f 4f       	sbci	r23, 0xFF	; 255
    455c:	6f 31       	cpi	r22, 0x1F	; 31
    455e:	71 05       	cpc	r23, r1
    4560:	31 f7       	brne	.-52     	; 0x452e <__divsf3+0xda>
    4562:	da 01       	movw	r26, r20
    4564:	c9 01       	movw	r24, r18
    4566:	8f 77       	andi	r24, 0x7F	; 127
    4568:	90 70       	andi	r25, 0x00	; 0
    456a:	a0 70       	andi	r26, 0x00	; 0
    456c:	b0 70       	andi	r27, 0x00	; 0
    456e:	80 34       	cpi	r24, 0x40	; 64
    4570:	91 05       	cpc	r25, r1
    4572:	a1 05       	cpc	r26, r1
    4574:	b1 05       	cpc	r27, r1
    4576:	61 f4       	brne	.+24     	; 0x4590 <__divsf3+0x13c>
    4578:	27 fd       	sbrc	r18, 7
    457a:	0a c0       	rjmp	.+20     	; 0x4590 <__divsf3+0x13c>
    457c:	e1 14       	cp	r14, r1
    457e:	f1 04       	cpc	r15, r1
    4580:	01 05       	cpc	r16, r1
    4582:	11 05       	cpc	r17, r1
    4584:	29 f0       	breq	.+10     	; 0x4590 <__divsf3+0x13c>
    4586:	20 5c       	subi	r18, 0xC0	; 192
    4588:	3f 4f       	sbci	r19, 0xFF	; 255
    458a:	4f 4f       	sbci	r20, 0xFF	; 255
    458c:	5f 4f       	sbci	r21, 0xFF	; 255
    458e:	20 78       	andi	r18, 0x80	; 128
    4590:	2d 87       	std	Y+13, r18	; 0x0d
    4592:	3e 87       	std	Y+14, r19	; 0x0e
    4594:	4f 87       	std	Y+15, r20	; 0x0f
    4596:	58 8b       	std	Y+16, r21	; 0x10
    4598:	be 01       	movw	r22, r28
    459a:	67 5f       	subi	r22, 0xF7	; 247
    459c:	7f 4f       	sbci	r23, 0xFF	; 255
    459e:	cb 01       	movw	r24, r22
    45a0:	0e 94 82 24 	call	0x4904	; 0x4904 <__pack_f>
    45a4:	68 96       	adiw	r28, 0x18	; 24
    45a6:	ea e0       	ldi	r30, 0x0A	; 10
    45a8:	0c 94 60 26 	jmp	0x4cc0	; 0x4cc0 <__epilogue_restores__+0x10>

000045ac <__gtsf2>:
    45ac:	a8 e1       	ldi	r26, 0x18	; 24
    45ae:	b0 e0       	ldi	r27, 0x00	; 0
    45b0:	ec ed       	ldi	r30, 0xDC	; 220
    45b2:	f2 e2       	ldi	r31, 0x22	; 34
    45b4:	0c 94 48 26 	jmp	0x4c90	; 0x4c90 <__prologue_saves__+0x18>
    45b8:	69 83       	std	Y+1, r22	; 0x01
    45ba:	7a 83       	std	Y+2, r23	; 0x02
    45bc:	8b 83       	std	Y+3, r24	; 0x03
    45be:	9c 83       	std	Y+4, r25	; 0x04
    45c0:	2d 83       	std	Y+5, r18	; 0x05
    45c2:	3e 83       	std	Y+6, r19	; 0x06
    45c4:	4f 83       	std	Y+7, r20	; 0x07
    45c6:	58 87       	std	Y+8, r21	; 0x08
    45c8:	89 e0       	ldi	r24, 0x09	; 9
    45ca:	e8 2e       	mov	r14, r24
    45cc:	f1 2c       	mov	r15, r1
    45ce:	ec 0e       	add	r14, r28
    45d0:	fd 1e       	adc	r15, r29
    45d2:	ce 01       	movw	r24, r28
    45d4:	01 96       	adiw	r24, 0x01	; 1
    45d6:	b7 01       	movw	r22, r14
    45d8:	0e 94 57 25 	call	0x4aae	; 0x4aae <__unpack_f>
    45dc:	8e 01       	movw	r16, r28
    45de:	0f 5e       	subi	r16, 0xEF	; 239
    45e0:	1f 4f       	sbci	r17, 0xFF	; 255
    45e2:	ce 01       	movw	r24, r28
    45e4:	05 96       	adiw	r24, 0x05	; 5
    45e6:	b8 01       	movw	r22, r16
    45e8:	0e 94 57 25 	call	0x4aae	; 0x4aae <__unpack_f>
    45ec:	89 85       	ldd	r24, Y+9	; 0x09
    45ee:	82 30       	cpi	r24, 0x02	; 2
    45f0:	40 f0       	brcs	.+16     	; 0x4602 <__gtsf2+0x56>
    45f2:	89 89       	ldd	r24, Y+17	; 0x11
    45f4:	82 30       	cpi	r24, 0x02	; 2
    45f6:	28 f0       	brcs	.+10     	; 0x4602 <__gtsf2+0x56>
    45f8:	c7 01       	movw	r24, r14
    45fa:	b8 01       	movw	r22, r16
    45fc:	0e 94 cf 25 	call	0x4b9e	; 0x4b9e <__fpcmp_parts_f>
    4600:	01 c0       	rjmp	.+2      	; 0x4604 <__gtsf2+0x58>
    4602:	8f ef       	ldi	r24, 0xFF	; 255
    4604:	68 96       	adiw	r28, 0x18	; 24
    4606:	e6 e0       	ldi	r30, 0x06	; 6
    4608:	0c 94 64 26 	jmp	0x4cc8	; 0x4cc8 <__epilogue_restores__+0x18>

0000460c <__gesf2>:
    460c:	a8 e1       	ldi	r26, 0x18	; 24
    460e:	b0 e0       	ldi	r27, 0x00	; 0
    4610:	ec e0       	ldi	r30, 0x0C	; 12
    4612:	f3 e2       	ldi	r31, 0x23	; 35
    4614:	0c 94 48 26 	jmp	0x4c90	; 0x4c90 <__prologue_saves__+0x18>
    4618:	69 83       	std	Y+1, r22	; 0x01
    461a:	7a 83       	std	Y+2, r23	; 0x02
    461c:	8b 83       	std	Y+3, r24	; 0x03
    461e:	9c 83       	std	Y+4, r25	; 0x04
    4620:	2d 83       	std	Y+5, r18	; 0x05
    4622:	3e 83       	std	Y+6, r19	; 0x06
    4624:	4f 83       	std	Y+7, r20	; 0x07
    4626:	58 87       	std	Y+8, r21	; 0x08
    4628:	89 e0       	ldi	r24, 0x09	; 9
    462a:	e8 2e       	mov	r14, r24
    462c:	f1 2c       	mov	r15, r1
    462e:	ec 0e       	add	r14, r28
    4630:	fd 1e       	adc	r15, r29
    4632:	ce 01       	movw	r24, r28
    4634:	01 96       	adiw	r24, 0x01	; 1
    4636:	b7 01       	movw	r22, r14
    4638:	0e 94 57 25 	call	0x4aae	; 0x4aae <__unpack_f>
    463c:	8e 01       	movw	r16, r28
    463e:	0f 5e       	subi	r16, 0xEF	; 239
    4640:	1f 4f       	sbci	r17, 0xFF	; 255
    4642:	ce 01       	movw	r24, r28
    4644:	05 96       	adiw	r24, 0x05	; 5
    4646:	b8 01       	movw	r22, r16
    4648:	0e 94 57 25 	call	0x4aae	; 0x4aae <__unpack_f>
    464c:	89 85       	ldd	r24, Y+9	; 0x09
    464e:	82 30       	cpi	r24, 0x02	; 2
    4650:	40 f0       	brcs	.+16     	; 0x4662 <__gesf2+0x56>
    4652:	89 89       	ldd	r24, Y+17	; 0x11
    4654:	82 30       	cpi	r24, 0x02	; 2
    4656:	28 f0       	brcs	.+10     	; 0x4662 <__gesf2+0x56>
    4658:	c7 01       	movw	r24, r14
    465a:	b8 01       	movw	r22, r16
    465c:	0e 94 cf 25 	call	0x4b9e	; 0x4b9e <__fpcmp_parts_f>
    4660:	01 c0       	rjmp	.+2      	; 0x4664 <__gesf2+0x58>
    4662:	8f ef       	ldi	r24, 0xFF	; 255
    4664:	68 96       	adiw	r28, 0x18	; 24
    4666:	e6 e0       	ldi	r30, 0x06	; 6
    4668:	0c 94 64 26 	jmp	0x4cc8	; 0x4cc8 <__epilogue_restores__+0x18>

0000466c <__ltsf2>:
    466c:	a8 e1       	ldi	r26, 0x18	; 24
    466e:	b0 e0       	ldi	r27, 0x00	; 0
    4670:	ec e3       	ldi	r30, 0x3C	; 60
    4672:	f3 e2       	ldi	r31, 0x23	; 35
    4674:	0c 94 48 26 	jmp	0x4c90	; 0x4c90 <__prologue_saves__+0x18>
    4678:	69 83       	std	Y+1, r22	; 0x01
    467a:	7a 83       	std	Y+2, r23	; 0x02
    467c:	8b 83       	std	Y+3, r24	; 0x03
    467e:	9c 83       	std	Y+4, r25	; 0x04
    4680:	2d 83       	std	Y+5, r18	; 0x05
    4682:	3e 83       	std	Y+6, r19	; 0x06
    4684:	4f 83       	std	Y+7, r20	; 0x07
    4686:	58 87       	std	Y+8, r21	; 0x08
    4688:	89 e0       	ldi	r24, 0x09	; 9
    468a:	e8 2e       	mov	r14, r24
    468c:	f1 2c       	mov	r15, r1
    468e:	ec 0e       	add	r14, r28
    4690:	fd 1e       	adc	r15, r29
    4692:	ce 01       	movw	r24, r28
    4694:	01 96       	adiw	r24, 0x01	; 1
    4696:	b7 01       	movw	r22, r14
    4698:	0e 94 57 25 	call	0x4aae	; 0x4aae <__unpack_f>
    469c:	8e 01       	movw	r16, r28
    469e:	0f 5e       	subi	r16, 0xEF	; 239
    46a0:	1f 4f       	sbci	r17, 0xFF	; 255
    46a2:	ce 01       	movw	r24, r28
    46a4:	05 96       	adiw	r24, 0x05	; 5
    46a6:	b8 01       	movw	r22, r16
    46a8:	0e 94 57 25 	call	0x4aae	; 0x4aae <__unpack_f>
    46ac:	89 85       	ldd	r24, Y+9	; 0x09
    46ae:	82 30       	cpi	r24, 0x02	; 2
    46b0:	40 f0       	brcs	.+16     	; 0x46c2 <__ltsf2+0x56>
    46b2:	89 89       	ldd	r24, Y+17	; 0x11
    46b4:	82 30       	cpi	r24, 0x02	; 2
    46b6:	28 f0       	brcs	.+10     	; 0x46c2 <__ltsf2+0x56>
    46b8:	c7 01       	movw	r24, r14
    46ba:	b8 01       	movw	r22, r16
    46bc:	0e 94 cf 25 	call	0x4b9e	; 0x4b9e <__fpcmp_parts_f>
    46c0:	01 c0       	rjmp	.+2      	; 0x46c4 <__ltsf2+0x58>
    46c2:	81 e0       	ldi	r24, 0x01	; 1
    46c4:	68 96       	adiw	r28, 0x18	; 24
    46c6:	e6 e0       	ldi	r30, 0x06	; 6
    46c8:	0c 94 64 26 	jmp	0x4cc8	; 0x4cc8 <__epilogue_restores__+0x18>

000046cc <__fixsfsi>:
    46cc:	ac e0       	ldi	r26, 0x0C	; 12
    46ce:	b0 e0       	ldi	r27, 0x00	; 0
    46d0:	ec e6       	ldi	r30, 0x6C	; 108
    46d2:	f3 e2       	ldi	r31, 0x23	; 35
    46d4:	0c 94 4c 26 	jmp	0x4c98	; 0x4c98 <__prologue_saves__+0x20>
    46d8:	69 83       	std	Y+1, r22	; 0x01
    46da:	7a 83       	std	Y+2, r23	; 0x02
    46dc:	8b 83       	std	Y+3, r24	; 0x03
    46de:	9c 83       	std	Y+4, r25	; 0x04
    46e0:	ce 01       	movw	r24, r28
    46e2:	01 96       	adiw	r24, 0x01	; 1
    46e4:	be 01       	movw	r22, r28
    46e6:	6b 5f       	subi	r22, 0xFB	; 251
    46e8:	7f 4f       	sbci	r23, 0xFF	; 255
    46ea:	0e 94 57 25 	call	0x4aae	; 0x4aae <__unpack_f>
    46ee:	8d 81       	ldd	r24, Y+5	; 0x05
    46f0:	82 30       	cpi	r24, 0x02	; 2
    46f2:	61 f1       	breq	.+88     	; 0x474c <__fixsfsi+0x80>
    46f4:	82 30       	cpi	r24, 0x02	; 2
    46f6:	50 f1       	brcs	.+84     	; 0x474c <__fixsfsi+0x80>
    46f8:	84 30       	cpi	r24, 0x04	; 4
    46fa:	21 f4       	brne	.+8      	; 0x4704 <__fixsfsi+0x38>
    46fc:	8e 81       	ldd	r24, Y+6	; 0x06
    46fe:	88 23       	and	r24, r24
    4700:	51 f1       	breq	.+84     	; 0x4756 <__fixsfsi+0x8a>
    4702:	2e c0       	rjmp	.+92     	; 0x4760 <__fixsfsi+0x94>
    4704:	2f 81       	ldd	r18, Y+7	; 0x07
    4706:	38 85       	ldd	r19, Y+8	; 0x08
    4708:	37 fd       	sbrc	r19, 7
    470a:	20 c0       	rjmp	.+64     	; 0x474c <__fixsfsi+0x80>
    470c:	6e 81       	ldd	r22, Y+6	; 0x06
    470e:	2f 31       	cpi	r18, 0x1F	; 31
    4710:	31 05       	cpc	r19, r1
    4712:	1c f0       	brlt	.+6      	; 0x471a <__fixsfsi+0x4e>
    4714:	66 23       	and	r22, r22
    4716:	f9 f0       	breq	.+62     	; 0x4756 <__fixsfsi+0x8a>
    4718:	23 c0       	rjmp	.+70     	; 0x4760 <__fixsfsi+0x94>
    471a:	8e e1       	ldi	r24, 0x1E	; 30
    471c:	90 e0       	ldi	r25, 0x00	; 0
    471e:	82 1b       	sub	r24, r18
    4720:	93 0b       	sbc	r25, r19
    4722:	29 85       	ldd	r18, Y+9	; 0x09
    4724:	3a 85       	ldd	r19, Y+10	; 0x0a
    4726:	4b 85       	ldd	r20, Y+11	; 0x0b
    4728:	5c 85       	ldd	r21, Y+12	; 0x0c
    472a:	04 c0       	rjmp	.+8      	; 0x4734 <__fixsfsi+0x68>
    472c:	56 95       	lsr	r21
    472e:	47 95       	ror	r20
    4730:	37 95       	ror	r19
    4732:	27 95       	ror	r18
    4734:	8a 95       	dec	r24
    4736:	d2 f7       	brpl	.-12     	; 0x472c <__fixsfsi+0x60>
    4738:	66 23       	and	r22, r22
    473a:	b1 f0       	breq	.+44     	; 0x4768 <__fixsfsi+0x9c>
    473c:	50 95       	com	r21
    473e:	40 95       	com	r20
    4740:	30 95       	com	r19
    4742:	21 95       	neg	r18
    4744:	3f 4f       	sbci	r19, 0xFF	; 255
    4746:	4f 4f       	sbci	r20, 0xFF	; 255
    4748:	5f 4f       	sbci	r21, 0xFF	; 255
    474a:	0e c0       	rjmp	.+28     	; 0x4768 <__fixsfsi+0x9c>
    474c:	20 e0       	ldi	r18, 0x00	; 0
    474e:	30 e0       	ldi	r19, 0x00	; 0
    4750:	40 e0       	ldi	r20, 0x00	; 0
    4752:	50 e0       	ldi	r21, 0x00	; 0
    4754:	09 c0       	rjmp	.+18     	; 0x4768 <__fixsfsi+0x9c>
    4756:	2f ef       	ldi	r18, 0xFF	; 255
    4758:	3f ef       	ldi	r19, 0xFF	; 255
    475a:	4f ef       	ldi	r20, 0xFF	; 255
    475c:	5f e7       	ldi	r21, 0x7F	; 127
    475e:	04 c0       	rjmp	.+8      	; 0x4768 <__fixsfsi+0x9c>
    4760:	20 e0       	ldi	r18, 0x00	; 0
    4762:	30 e0       	ldi	r19, 0x00	; 0
    4764:	40 e0       	ldi	r20, 0x00	; 0
    4766:	50 e8       	ldi	r21, 0x80	; 128
    4768:	b9 01       	movw	r22, r18
    476a:	ca 01       	movw	r24, r20
    476c:	2c 96       	adiw	r28, 0x0c	; 12
    476e:	e2 e0       	ldi	r30, 0x02	; 2
    4770:	0c 94 68 26 	jmp	0x4cd0	; 0x4cd0 <__epilogue_restores__+0x20>

00004774 <__floatunsisf>:
    4774:	a8 e0       	ldi	r26, 0x08	; 8
    4776:	b0 e0       	ldi	r27, 0x00	; 0
    4778:	e0 ec       	ldi	r30, 0xC0	; 192
    477a:	f3 e2       	ldi	r31, 0x23	; 35
    477c:	0c 94 44 26 	jmp	0x4c88	; 0x4c88 <__prologue_saves__+0x10>
    4780:	7b 01       	movw	r14, r22
    4782:	8c 01       	movw	r16, r24
    4784:	61 15       	cp	r22, r1
    4786:	71 05       	cpc	r23, r1
    4788:	81 05       	cpc	r24, r1
    478a:	91 05       	cpc	r25, r1
    478c:	19 f4       	brne	.+6      	; 0x4794 <__floatunsisf+0x20>
    478e:	82 e0       	ldi	r24, 0x02	; 2
    4790:	89 83       	std	Y+1, r24	; 0x01
    4792:	60 c0       	rjmp	.+192    	; 0x4854 <__floatunsisf+0xe0>
    4794:	83 e0       	ldi	r24, 0x03	; 3
    4796:	89 83       	std	Y+1, r24	; 0x01
    4798:	8e e1       	ldi	r24, 0x1E	; 30
    479a:	c8 2e       	mov	r12, r24
    479c:	d1 2c       	mov	r13, r1
    479e:	dc 82       	std	Y+4, r13	; 0x04
    47a0:	cb 82       	std	Y+3, r12	; 0x03
    47a2:	ed 82       	std	Y+5, r14	; 0x05
    47a4:	fe 82       	std	Y+6, r15	; 0x06
    47a6:	0f 83       	std	Y+7, r16	; 0x07
    47a8:	18 87       	std	Y+8, r17	; 0x08
    47aa:	c8 01       	movw	r24, r16
    47ac:	b7 01       	movw	r22, r14
    47ae:	0e 94 33 24 	call	0x4866	; 0x4866 <__clzsi2>
    47b2:	fc 01       	movw	r30, r24
    47b4:	31 97       	sbiw	r30, 0x01	; 1
    47b6:	f7 ff       	sbrs	r31, 7
    47b8:	3b c0       	rjmp	.+118    	; 0x4830 <__floatunsisf+0xbc>
    47ba:	22 27       	eor	r18, r18
    47bc:	33 27       	eor	r19, r19
    47be:	2e 1b       	sub	r18, r30
    47c0:	3f 0b       	sbc	r19, r31
    47c2:	57 01       	movw	r10, r14
    47c4:	68 01       	movw	r12, r16
    47c6:	02 2e       	mov	r0, r18
    47c8:	04 c0       	rjmp	.+8      	; 0x47d2 <__floatunsisf+0x5e>
    47ca:	d6 94       	lsr	r13
    47cc:	c7 94       	ror	r12
    47ce:	b7 94       	ror	r11
    47d0:	a7 94       	ror	r10
    47d2:	0a 94       	dec	r0
    47d4:	d2 f7       	brpl	.-12     	; 0x47ca <__floatunsisf+0x56>
    47d6:	40 e0       	ldi	r20, 0x00	; 0
    47d8:	50 e0       	ldi	r21, 0x00	; 0
    47da:	60 e0       	ldi	r22, 0x00	; 0
    47dc:	70 e0       	ldi	r23, 0x00	; 0
    47de:	81 e0       	ldi	r24, 0x01	; 1
    47e0:	90 e0       	ldi	r25, 0x00	; 0
    47e2:	a0 e0       	ldi	r26, 0x00	; 0
    47e4:	b0 e0       	ldi	r27, 0x00	; 0
    47e6:	04 c0       	rjmp	.+8      	; 0x47f0 <__floatunsisf+0x7c>
    47e8:	88 0f       	add	r24, r24
    47ea:	99 1f       	adc	r25, r25
    47ec:	aa 1f       	adc	r26, r26
    47ee:	bb 1f       	adc	r27, r27
    47f0:	2a 95       	dec	r18
    47f2:	d2 f7       	brpl	.-12     	; 0x47e8 <__floatunsisf+0x74>
    47f4:	01 97       	sbiw	r24, 0x01	; 1
    47f6:	a1 09       	sbc	r26, r1
    47f8:	b1 09       	sbc	r27, r1
    47fa:	8e 21       	and	r24, r14
    47fc:	9f 21       	and	r25, r15
    47fe:	a0 23       	and	r26, r16
    4800:	b1 23       	and	r27, r17
    4802:	00 97       	sbiw	r24, 0x00	; 0
    4804:	a1 05       	cpc	r26, r1
    4806:	b1 05       	cpc	r27, r1
    4808:	21 f0       	breq	.+8      	; 0x4812 <__floatunsisf+0x9e>
    480a:	41 e0       	ldi	r20, 0x01	; 1
    480c:	50 e0       	ldi	r21, 0x00	; 0
    480e:	60 e0       	ldi	r22, 0x00	; 0
    4810:	70 e0       	ldi	r23, 0x00	; 0
    4812:	4a 29       	or	r20, r10
    4814:	5b 29       	or	r21, r11
    4816:	6c 29       	or	r22, r12
    4818:	7d 29       	or	r23, r13
    481a:	4d 83       	std	Y+5, r20	; 0x05
    481c:	5e 83       	std	Y+6, r21	; 0x06
    481e:	6f 83       	std	Y+7, r22	; 0x07
    4820:	78 87       	std	Y+8, r23	; 0x08
    4822:	8e e1       	ldi	r24, 0x1E	; 30
    4824:	90 e0       	ldi	r25, 0x00	; 0
    4826:	8e 1b       	sub	r24, r30
    4828:	9f 0b       	sbc	r25, r31
    482a:	9c 83       	std	Y+4, r25	; 0x04
    482c:	8b 83       	std	Y+3, r24	; 0x03
    482e:	12 c0       	rjmp	.+36     	; 0x4854 <__floatunsisf+0xe0>
    4830:	30 97       	sbiw	r30, 0x00	; 0
    4832:	81 f0       	breq	.+32     	; 0x4854 <__floatunsisf+0xe0>
    4834:	0e 2e       	mov	r0, r30
    4836:	04 c0       	rjmp	.+8      	; 0x4840 <__floatunsisf+0xcc>
    4838:	ee 0c       	add	r14, r14
    483a:	ff 1c       	adc	r15, r15
    483c:	00 1f       	adc	r16, r16
    483e:	11 1f       	adc	r17, r17
    4840:	0a 94       	dec	r0
    4842:	d2 f7       	brpl	.-12     	; 0x4838 <__floatunsisf+0xc4>
    4844:	ed 82       	std	Y+5, r14	; 0x05
    4846:	fe 82       	std	Y+6, r15	; 0x06
    4848:	0f 83       	std	Y+7, r16	; 0x07
    484a:	18 87       	std	Y+8, r17	; 0x08
    484c:	ce 1a       	sub	r12, r30
    484e:	df 0a       	sbc	r13, r31
    4850:	dc 82       	std	Y+4, r13	; 0x04
    4852:	cb 82       	std	Y+3, r12	; 0x03
    4854:	1a 82       	std	Y+2, r1	; 0x02
    4856:	ce 01       	movw	r24, r28
    4858:	01 96       	adiw	r24, 0x01	; 1
    485a:	0e 94 82 24 	call	0x4904	; 0x4904 <__pack_f>
    485e:	28 96       	adiw	r28, 0x08	; 8
    4860:	ea e0       	ldi	r30, 0x0A	; 10
    4862:	0c 94 60 26 	jmp	0x4cc0	; 0x4cc0 <__epilogue_restores__+0x10>

00004866 <__clzsi2>:
    4866:	ef 92       	push	r14
    4868:	ff 92       	push	r15
    486a:	0f 93       	push	r16
    486c:	1f 93       	push	r17
    486e:	7b 01       	movw	r14, r22
    4870:	8c 01       	movw	r16, r24
    4872:	80 e0       	ldi	r24, 0x00	; 0
    4874:	e8 16       	cp	r14, r24
    4876:	80 e0       	ldi	r24, 0x00	; 0
    4878:	f8 06       	cpc	r15, r24
    487a:	81 e0       	ldi	r24, 0x01	; 1
    487c:	08 07       	cpc	r16, r24
    487e:	80 e0       	ldi	r24, 0x00	; 0
    4880:	18 07       	cpc	r17, r24
    4882:	88 f4       	brcc	.+34     	; 0x48a6 <__clzsi2+0x40>
    4884:	8f ef       	ldi	r24, 0xFF	; 255
    4886:	e8 16       	cp	r14, r24
    4888:	f1 04       	cpc	r15, r1
    488a:	01 05       	cpc	r16, r1
    488c:	11 05       	cpc	r17, r1
    488e:	31 f0       	breq	.+12     	; 0x489c <__clzsi2+0x36>
    4890:	28 f0       	brcs	.+10     	; 0x489c <__clzsi2+0x36>
    4892:	88 e0       	ldi	r24, 0x08	; 8
    4894:	90 e0       	ldi	r25, 0x00	; 0
    4896:	a0 e0       	ldi	r26, 0x00	; 0
    4898:	b0 e0       	ldi	r27, 0x00	; 0
    489a:	17 c0       	rjmp	.+46     	; 0x48ca <__clzsi2+0x64>
    489c:	80 e0       	ldi	r24, 0x00	; 0
    489e:	90 e0       	ldi	r25, 0x00	; 0
    48a0:	a0 e0       	ldi	r26, 0x00	; 0
    48a2:	b0 e0       	ldi	r27, 0x00	; 0
    48a4:	12 c0       	rjmp	.+36     	; 0x48ca <__clzsi2+0x64>
    48a6:	80 e0       	ldi	r24, 0x00	; 0
    48a8:	e8 16       	cp	r14, r24
    48aa:	80 e0       	ldi	r24, 0x00	; 0
    48ac:	f8 06       	cpc	r15, r24
    48ae:	80 e0       	ldi	r24, 0x00	; 0
    48b0:	08 07       	cpc	r16, r24
    48b2:	81 e0       	ldi	r24, 0x01	; 1
    48b4:	18 07       	cpc	r17, r24
    48b6:	28 f0       	brcs	.+10     	; 0x48c2 <__clzsi2+0x5c>
    48b8:	88 e1       	ldi	r24, 0x18	; 24
    48ba:	90 e0       	ldi	r25, 0x00	; 0
    48bc:	a0 e0       	ldi	r26, 0x00	; 0
    48be:	b0 e0       	ldi	r27, 0x00	; 0
    48c0:	04 c0       	rjmp	.+8      	; 0x48ca <__clzsi2+0x64>
    48c2:	80 e1       	ldi	r24, 0x10	; 16
    48c4:	90 e0       	ldi	r25, 0x00	; 0
    48c6:	a0 e0       	ldi	r26, 0x00	; 0
    48c8:	b0 e0       	ldi	r27, 0x00	; 0
    48ca:	20 e2       	ldi	r18, 0x20	; 32
    48cc:	30 e0       	ldi	r19, 0x00	; 0
    48ce:	40 e0       	ldi	r20, 0x00	; 0
    48d0:	50 e0       	ldi	r21, 0x00	; 0
    48d2:	28 1b       	sub	r18, r24
    48d4:	39 0b       	sbc	r19, r25
    48d6:	4a 0b       	sbc	r20, r26
    48d8:	5b 0b       	sbc	r21, r27
    48da:	04 c0       	rjmp	.+8      	; 0x48e4 <__clzsi2+0x7e>
    48dc:	16 95       	lsr	r17
    48de:	07 95       	ror	r16
    48e0:	f7 94       	ror	r15
    48e2:	e7 94       	ror	r14
    48e4:	8a 95       	dec	r24
    48e6:	d2 f7       	brpl	.-12     	; 0x48dc <__clzsi2+0x76>
    48e8:	f7 01       	movw	r30, r14
    48ea:	e3 59       	subi	r30, 0x93	; 147
    48ec:	fd 4f       	sbci	r31, 0xFD	; 253
    48ee:	80 81       	ld	r24, Z
    48f0:	28 1b       	sub	r18, r24
    48f2:	31 09       	sbc	r19, r1
    48f4:	41 09       	sbc	r20, r1
    48f6:	51 09       	sbc	r21, r1
    48f8:	c9 01       	movw	r24, r18
    48fa:	1f 91       	pop	r17
    48fc:	0f 91       	pop	r16
    48fe:	ff 90       	pop	r15
    4900:	ef 90       	pop	r14
    4902:	08 95       	ret

00004904 <__pack_f>:
    4904:	df 92       	push	r13
    4906:	ef 92       	push	r14
    4908:	ff 92       	push	r15
    490a:	0f 93       	push	r16
    490c:	1f 93       	push	r17
    490e:	fc 01       	movw	r30, r24
    4910:	e4 80       	ldd	r14, Z+4	; 0x04
    4912:	f5 80       	ldd	r15, Z+5	; 0x05
    4914:	06 81       	ldd	r16, Z+6	; 0x06
    4916:	17 81       	ldd	r17, Z+7	; 0x07
    4918:	d1 80       	ldd	r13, Z+1	; 0x01
    491a:	80 81       	ld	r24, Z
    491c:	82 30       	cpi	r24, 0x02	; 2
    491e:	48 f4       	brcc	.+18     	; 0x4932 <__pack_f+0x2e>
    4920:	80 e0       	ldi	r24, 0x00	; 0
    4922:	90 e0       	ldi	r25, 0x00	; 0
    4924:	a0 e1       	ldi	r26, 0x10	; 16
    4926:	b0 e0       	ldi	r27, 0x00	; 0
    4928:	e8 2a       	or	r14, r24
    492a:	f9 2a       	or	r15, r25
    492c:	0a 2b       	or	r16, r26
    492e:	1b 2b       	or	r17, r27
    4930:	a5 c0       	rjmp	.+330    	; 0x4a7c <__pack_f+0x178>
    4932:	84 30       	cpi	r24, 0x04	; 4
    4934:	09 f4       	brne	.+2      	; 0x4938 <__pack_f+0x34>
    4936:	9f c0       	rjmp	.+318    	; 0x4a76 <__pack_f+0x172>
    4938:	82 30       	cpi	r24, 0x02	; 2
    493a:	21 f4       	brne	.+8      	; 0x4944 <__pack_f+0x40>
    493c:	ee 24       	eor	r14, r14
    493e:	ff 24       	eor	r15, r15
    4940:	87 01       	movw	r16, r14
    4942:	05 c0       	rjmp	.+10     	; 0x494e <__pack_f+0x4a>
    4944:	e1 14       	cp	r14, r1
    4946:	f1 04       	cpc	r15, r1
    4948:	01 05       	cpc	r16, r1
    494a:	11 05       	cpc	r17, r1
    494c:	19 f4       	brne	.+6      	; 0x4954 <__pack_f+0x50>
    494e:	e0 e0       	ldi	r30, 0x00	; 0
    4950:	f0 e0       	ldi	r31, 0x00	; 0
    4952:	96 c0       	rjmp	.+300    	; 0x4a80 <__pack_f+0x17c>
    4954:	62 81       	ldd	r22, Z+2	; 0x02
    4956:	73 81       	ldd	r23, Z+3	; 0x03
    4958:	9f ef       	ldi	r25, 0xFF	; 255
    495a:	62 38       	cpi	r22, 0x82	; 130
    495c:	79 07       	cpc	r23, r25
    495e:	0c f0       	brlt	.+2      	; 0x4962 <__pack_f+0x5e>
    4960:	5b c0       	rjmp	.+182    	; 0x4a18 <__pack_f+0x114>
    4962:	22 e8       	ldi	r18, 0x82	; 130
    4964:	3f ef       	ldi	r19, 0xFF	; 255
    4966:	26 1b       	sub	r18, r22
    4968:	37 0b       	sbc	r19, r23
    496a:	2a 31       	cpi	r18, 0x1A	; 26
    496c:	31 05       	cpc	r19, r1
    496e:	2c f0       	brlt	.+10     	; 0x497a <__pack_f+0x76>
    4970:	20 e0       	ldi	r18, 0x00	; 0
    4972:	30 e0       	ldi	r19, 0x00	; 0
    4974:	40 e0       	ldi	r20, 0x00	; 0
    4976:	50 e0       	ldi	r21, 0x00	; 0
    4978:	2a c0       	rjmp	.+84     	; 0x49ce <__pack_f+0xca>
    497a:	b8 01       	movw	r22, r16
    497c:	a7 01       	movw	r20, r14
    497e:	02 2e       	mov	r0, r18
    4980:	04 c0       	rjmp	.+8      	; 0x498a <__pack_f+0x86>
    4982:	76 95       	lsr	r23
    4984:	67 95       	ror	r22
    4986:	57 95       	ror	r21
    4988:	47 95       	ror	r20
    498a:	0a 94       	dec	r0
    498c:	d2 f7       	brpl	.-12     	; 0x4982 <__pack_f+0x7e>
    498e:	81 e0       	ldi	r24, 0x01	; 1
    4990:	90 e0       	ldi	r25, 0x00	; 0
    4992:	a0 e0       	ldi	r26, 0x00	; 0
    4994:	b0 e0       	ldi	r27, 0x00	; 0
    4996:	04 c0       	rjmp	.+8      	; 0x49a0 <__pack_f+0x9c>
    4998:	88 0f       	add	r24, r24
    499a:	99 1f       	adc	r25, r25
    499c:	aa 1f       	adc	r26, r26
    499e:	bb 1f       	adc	r27, r27
    49a0:	2a 95       	dec	r18
    49a2:	d2 f7       	brpl	.-12     	; 0x4998 <__pack_f+0x94>
    49a4:	01 97       	sbiw	r24, 0x01	; 1
    49a6:	a1 09       	sbc	r26, r1
    49a8:	b1 09       	sbc	r27, r1
    49aa:	8e 21       	and	r24, r14
    49ac:	9f 21       	and	r25, r15
    49ae:	a0 23       	and	r26, r16
    49b0:	b1 23       	and	r27, r17
    49b2:	00 97       	sbiw	r24, 0x00	; 0
    49b4:	a1 05       	cpc	r26, r1
    49b6:	b1 05       	cpc	r27, r1
    49b8:	21 f0       	breq	.+8      	; 0x49c2 <__pack_f+0xbe>
    49ba:	81 e0       	ldi	r24, 0x01	; 1
    49bc:	90 e0       	ldi	r25, 0x00	; 0
    49be:	a0 e0       	ldi	r26, 0x00	; 0
    49c0:	b0 e0       	ldi	r27, 0x00	; 0
    49c2:	9a 01       	movw	r18, r20
    49c4:	ab 01       	movw	r20, r22
    49c6:	28 2b       	or	r18, r24
    49c8:	39 2b       	or	r19, r25
    49ca:	4a 2b       	or	r20, r26
    49cc:	5b 2b       	or	r21, r27
    49ce:	da 01       	movw	r26, r20
    49d0:	c9 01       	movw	r24, r18
    49d2:	8f 77       	andi	r24, 0x7F	; 127
    49d4:	90 70       	andi	r25, 0x00	; 0
    49d6:	a0 70       	andi	r26, 0x00	; 0
    49d8:	b0 70       	andi	r27, 0x00	; 0
    49da:	80 34       	cpi	r24, 0x40	; 64
    49dc:	91 05       	cpc	r25, r1
    49de:	a1 05       	cpc	r26, r1
    49e0:	b1 05       	cpc	r27, r1
    49e2:	39 f4       	brne	.+14     	; 0x49f2 <__pack_f+0xee>
    49e4:	27 ff       	sbrs	r18, 7
    49e6:	09 c0       	rjmp	.+18     	; 0x49fa <__pack_f+0xf6>
    49e8:	20 5c       	subi	r18, 0xC0	; 192
    49ea:	3f 4f       	sbci	r19, 0xFF	; 255
    49ec:	4f 4f       	sbci	r20, 0xFF	; 255
    49ee:	5f 4f       	sbci	r21, 0xFF	; 255
    49f0:	04 c0       	rjmp	.+8      	; 0x49fa <__pack_f+0xf6>
    49f2:	21 5c       	subi	r18, 0xC1	; 193
    49f4:	3f 4f       	sbci	r19, 0xFF	; 255
    49f6:	4f 4f       	sbci	r20, 0xFF	; 255
    49f8:	5f 4f       	sbci	r21, 0xFF	; 255
    49fa:	e0 e0       	ldi	r30, 0x00	; 0
    49fc:	f0 e0       	ldi	r31, 0x00	; 0
    49fe:	20 30       	cpi	r18, 0x00	; 0
    4a00:	a0 e0       	ldi	r26, 0x00	; 0
    4a02:	3a 07       	cpc	r19, r26
    4a04:	a0 e0       	ldi	r26, 0x00	; 0
    4a06:	4a 07       	cpc	r20, r26
    4a08:	a0 e4       	ldi	r26, 0x40	; 64
    4a0a:	5a 07       	cpc	r21, r26
    4a0c:	10 f0       	brcs	.+4      	; 0x4a12 <__pack_f+0x10e>
    4a0e:	e1 e0       	ldi	r30, 0x01	; 1
    4a10:	f0 e0       	ldi	r31, 0x00	; 0
    4a12:	79 01       	movw	r14, r18
    4a14:	8a 01       	movw	r16, r20
    4a16:	27 c0       	rjmp	.+78     	; 0x4a66 <__pack_f+0x162>
    4a18:	60 38       	cpi	r22, 0x80	; 128
    4a1a:	71 05       	cpc	r23, r1
    4a1c:	64 f5       	brge	.+88     	; 0x4a76 <__pack_f+0x172>
    4a1e:	fb 01       	movw	r30, r22
    4a20:	e1 58       	subi	r30, 0x81	; 129
    4a22:	ff 4f       	sbci	r31, 0xFF	; 255
    4a24:	d8 01       	movw	r26, r16
    4a26:	c7 01       	movw	r24, r14
    4a28:	8f 77       	andi	r24, 0x7F	; 127
    4a2a:	90 70       	andi	r25, 0x00	; 0
    4a2c:	a0 70       	andi	r26, 0x00	; 0
    4a2e:	b0 70       	andi	r27, 0x00	; 0
    4a30:	80 34       	cpi	r24, 0x40	; 64
    4a32:	91 05       	cpc	r25, r1
    4a34:	a1 05       	cpc	r26, r1
    4a36:	b1 05       	cpc	r27, r1
    4a38:	39 f4       	brne	.+14     	; 0x4a48 <__pack_f+0x144>
    4a3a:	e7 fe       	sbrs	r14, 7
    4a3c:	0d c0       	rjmp	.+26     	; 0x4a58 <__pack_f+0x154>
    4a3e:	80 e4       	ldi	r24, 0x40	; 64
    4a40:	90 e0       	ldi	r25, 0x00	; 0
    4a42:	a0 e0       	ldi	r26, 0x00	; 0
    4a44:	b0 e0       	ldi	r27, 0x00	; 0
    4a46:	04 c0       	rjmp	.+8      	; 0x4a50 <__pack_f+0x14c>
    4a48:	8f e3       	ldi	r24, 0x3F	; 63
    4a4a:	90 e0       	ldi	r25, 0x00	; 0
    4a4c:	a0 e0       	ldi	r26, 0x00	; 0
    4a4e:	b0 e0       	ldi	r27, 0x00	; 0
    4a50:	e8 0e       	add	r14, r24
    4a52:	f9 1e       	adc	r15, r25
    4a54:	0a 1f       	adc	r16, r26
    4a56:	1b 1f       	adc	r17, r27
    4a58:	17 ff       	sbrs	r17, 7
    4a5a:	05 c0       	rjmp	.+10     	; 0x4a66 <__pack_f+0x162>
    4a5c:	16 95       	lsr	r17
    4a5e:	07 95       	ror	r16
    4a60:	f7 94       	ror	r15
    4a62:	e7 94       	ror	r14
    4a64:	31 96       	adiw	r30, 0x01	; 1
    4a66:	87 e0       	ldi	r24, 0x07	; 7
    4a68:	16 95       	lsr	r17
    4a6a:	07 95       	ror	r16
    4a6c:	f7 94       	ror	r15
    4a6e:	e7 94       	ror	r14
    4a70:	8a 95       	dec	r24
    4a72:	d1 f7       	brne	.-12     	; 0x4a68 <__pack_f+0x164>
    4a74:	05 c0       	rjmp	.+10     	; 0x4a80 <__pack_f+0x17c>
    4a76:	ee 24       	eor	r14, r14
    4a78:	ff 24       	eor	r15, r15
    4a7a:	87 01       	movw	r16, r14
    4a7c:	ef ef       	ldi	r30, 0xFF	; 255
    4a7e:	f0 e0       	ldi	r31, 0x00	; 0
    4a80:	6e 2f       	mov	r22, r30
    4a82:	67 95       	ror	r22
    4a84:	66 27       	eor	r22, r22
    4a86:	67 95       	ror	r22
    4a88:	90 2f       	mov	r25, r16
    4a8a:	9f 77       	andi	r25, 0x7F	; 127
    4a8c:	d7 94       	ror	r13
    4a8e:	dd 24       	eor	r13, r13
    4a90:	d7 94       	ror	r13
    4a92:	8e 2f       	mov	r24, r30
    4a94:	86 95       	lsr	r24
    4a96:	49 2f       	mov	r20, r25
    4a98:	46 2b       	or	r20, r22
    4a9a:	58 2f       	mov	r21, r24
    4a9c:	5d 29       	or	r21, r13
    4a9e:	b7 01       	movw	r22, r14
    4aa0:	ca 01       	movw	r24, r20
    4aa2:	1f 91       	pop	r17
    4aa4:	0f 91       	pop	r16
    4aa6:	ff 90       	pop	r15
    4aa8:	ef 90       	pop	r14
    4aaa:	df 90       	pop	r13
    4aac:	08 95       	ret

00004aae <__unpack_f>:
    4aae:	fc 01       	movw	r30, r24
    4ab0:	db 01       	movw	r26, r22
    4ab2:	40 81       	ld	r20, Z
    4ab4:	51 81       	ldd	r21, Z+1	; 0x01
    4ab6:	22 81       	ldd	r18, Z+2	; 0x02
    4ab8:	62 2f       	mov	r22, r18
    4aba:	6f 77       	andi	r22, 0x7F	; 127
    4abc:	70 e0       	ldi	r23, 0x00	; 0
    4abe:	22 1f       	adc	r18, r18
    4ac0:	22 27       	eor	r18, r18
    4ac2:	22 1f       	adc	r18, r18
    4ac4:	93 81       	ldd	r25, Z+3	; 0x03
    4ac6:	89 2f       	mov	r24, r25
    4ac8:	88 0f       	add	r24, r24
    4aca:	82 2b       	or	r24, r18
    4acc:	28 2f       	mov	r18, r24
    4ace:	30 e0       	ldi	r19, 0x00	; 0
    4ad0:	99 1f       	adc	r25, r25
    4ad2:	99 27       	eor	r25, r25
    4ad4:	99 1f       	adc	r25, r25
    4ad6:	11 96       	adiw	r26, 0x01	; 1
    4ad8:	9c 93       	st	X, r25
    4ada:	11 97       	sbiw	r26, 0x01	; 1
    4adc:	21 15       	cp	r18, r1
    4ade:	31 05       	cpc	r19, r1
    4ae0:	a9 f5       	brne	.+106    	; 0x4b4c <__unpack_f+0x9e>
    4ae2:	41 15       	cp	r20, r1
    4ae4:	51 05       	cpc	r21, r1
    4ae6:	61 05       	cpc	r22, r1
    4ae8:	71 05       	cpc	r23, r1
    4aea:	11 f4       	brne	.+4      	; 0x4af0 <__unpack_f+0x42>
    4aec:	82 e0       	ldi	r24, 0x02	; 2
    4aee:	37 c0       	rjmp	.+110    	; 0x4b5e <__unpack_f+0xb0>
    4af0:	82 e8       	ldi	r24, 0x82	; 130
    4af2:	9f ef       	ldi	r25, 0xFF	; 255
    4af4:	13 96       	adiw	r26, 0x03	; 3
    4af6:	9c 93       	st	X, r25
    4af8:	8e 93       	st	-X, r24
    4afa:	12 97       	sbiw	r26, 0x02	; 2
    4afc:	9a 01       	movw	r18, r20
    4afe:	ab 01       	movw	r20, r22
    4b00:	67 e0       	ldi	r22, 0x07	; 7
    4b02:	22 0f       	add	r18, r18
    4b04:	33 1f       	adc	r19, r19
    4b06:	44 1f       	adc	r20, r20
    4b08:	55 1f       	adc	r21, r21
    4b0a:	6a 95       	dec	r22
    4b0c:	d1 f7       	brne	.-12     	; 0x4b02 <__unpack_f+0x54>
    4b0e:	83 e0       	ldi	r24, 0x03	; 3
    4b10:	8c 93       	st	X, r24
    4b12:	0d c0       	rjmp	.+26     	; 0x4b2e <__unpack_f+0x80>
    4b14:	22 0f       	add	r18, r18
    4b16:	33 1f       	adc	r19, r19
    4b18:	44 1f       	adc	r20, r20
    4b1a:	55 1f       	adc	r21, r21
    4b1c:	12 96       	adiw	r26, 0x02	; 2
    4b1e:	8d 91       	ld	r24, X+
    4b20:	9c 91       	ld	r25, X
    4b22:	13 97       	sbiw	r26, 0x03	; 3
    4b24:	01 97       	sbiw	r24, 0x01	; 1
    4b26:	13 96       	adiw	r26, 0x03	; 3
    4b28:	9c 93       	st	X, r25
    4b2a:	8e 93       	st	-X, r24
    4b2c:	12 97       	sbiw	r26, 0x02	; 2
    4b2e:	20 30       	cpi	r18, 0x00	; 0
    4b30:	80 e0       	ldi	r24, 0x00	; 0
    4b32:	38 07       	cpc	r19, r24
    4b34:	80 e0       	ldi	r24, 0x00	; 0
    4b36:	48 07       	cpc	r20, r24
    4b38:	80 e4       	ldi	r24, 0x40	; 64
    4b3a:	58 07       	cpc	r21, r24
    4b3c:	58 f3       	brcs	.-42     	; 0x4b14 <__unpack_f+0x66>
    4b3e:	14 96       	adiw	r26, 0x04	; 4
    4b40:	2d 93       	st	X+, r18
    4b42:	3d 93       	st	X+, r19
    4b44:	4d 93       	st	X+, r20
    4b46:	5c 93       	st	X, r21
    4b48:	17 97       	sbiw	r26, 0x07	; 7
    4b4a:	08 95       	ret
    4b4c:	2f 3f       	cpi	r18, 0xFF	; 255
    4b4e:	31 05       	cpc	r19, r1
    4b50:	79 f4       	brne	.+30     	; 0x4b70 <__unpack_f+0xc2>
    4b52:	41 15       	cp	r20, r1
    4b54:	51 05       	cpc	r21, r1
    4b56:	61 05       	cpc	r22, r1
    4b58:	71 05       	cpc	r23, r1
    4b5a:	19 f4       	brne	.+6      	; 0x4b62 <__unpack_f+0xb4>
    4b5c:	84 e0       	ldi	r24, 0x04	; 4
    4b5e:	8c 93       	st	X, r24
    4b60:	08 95       	ret
    4b62:	64 ff       	sbrs	r22, 4
    4b64:	03 c0       	rjmp	.+6      	; 0x4b6c <__unpack_f+0xbe>
    4b66:	81 e0       	ldi	r24, 0x01	; 1
    4b68:	8c 93       	st	X, r24
    4b6a:	12 c0       	rjmp	.+36     	; 0x4b90 <__unpack_f+0xe2>
    4b6c:	1c 92       	st	X, r1
    4b6e:	10 c0       	rjmp	.+32     	; 0x4b90 <__unpack_f+0xe2>
    4b70:	2f 57       	subi	r18, 0x7F	; 127
    4b72:	30 40       	sbci	r19, 0x00	; 0
    4b74:	13 96       	adiw	r26, 0x03	; 3
    4b76:	3c 93       	st	X, r19
    4b78:	2e 93       	st	-X, r18
    4b7a:	12 97       	sbiw	r26, 0x02	; 2
    4b7c:	83 e0       	ldi	r24, 0x03	; 3
    4b7e:	8c 93       	st	X, r24
    4b80:	87 e0       	ldi	r24, 0x07	; 7
    4b82:	44 0f       	add	r20, r20
    4b84:	55 1f       	adc	r21, r21
    4b86:	66 1f       	adc	r22, r22
    4b88:	77 1f       	adc	r23, r23
    4b8a:	8a 95       	dec	r24
    4b8c:	d1 f7       	brne	.-12     	; 0x4b82 <__unpack_f+0xd4>
    4b8e:	70 64       	ori	r23, 0x40	; 64
    4b90:	14 96       	adiw	r26, 0x04	; 4
    4b92:	4d 93       	st	X+, r20
    4b94:	5d 93       	st	X+, r21
    4b96:	6d 93       	st	X+, r22
    4b98:	7c 93       	st	X, r23
    4b9a:	17 97       	sbiw	r26, 0x07	; 7
    4b9c:	08 95       	ret

00004b9e <__fpcmp_parts_f>:
    4b9e:	1f 93       	push	r17
    4ba0:	dc 01       	movw	r26, r24
    4ba2:	fb 01       	movw	r30, r22
    4ba4:	9c 91       	ld	r25, X
    4ba6:	92 30       	cpi	r25, 0x02	; 2
    4ba8:	08 f4       	brcc	.+2      	; 0x4bac <__fpcmp_parts_f+0xe>
    4baa:	47 c0       	rjmp	.+142    	; 0x4c3a <__fpcmp_parts_f+0x9c>
    4bac:	80 81       	ld	r24, Z
    4bae:	82 30       	cpi	r24, 0x02	; 2
    4bb0:	08 f4       	brcc	.+2      	; 0x4bb4 <__fpcmp_parts_f+0x16>
    4bb2:	43 c0       	rjmp	.+134    	; 0x4c3a <__fpcmp_parts_f+0x9c>
    4bb4:	94 30       	cpi	r25, 0x04	; 4
    4bb6:	51 f4       	brne	.+20     	; 0x4bcc <__fpcmp_parts_f+0x2e>
    4bb8:	11 96       	adiw	r26, 0x01	; 1
    4bba:	1c 91       	ld	r17, X
    4bbc:	84 30       	cpi	r24, 0x04	; 4
    4bbe:	99 f5       	brne	.+102    	; 0x4c26 <__fpcmp_parts_f+0x88>
    4bc0:	81 81       	ldd	r24, Z+1	; 0x01
    4bc2:	68 2f       	mov	r22, r24
    4bc4:	70 e0       	ldi	r23, 0x00	; 0
    4bc6:	61 1b       	sub	r22, r17
    4bc8:	71 09       	sbc	r23, r1
    4bca:	3f c0       	rjmp	.+126    	; 0x4c4a <__fpcmp_parts_f+0xac>
    4bcc:	84 30       	cpi	r24, 0x04	; 4
    4bce:	21 f0       	breq	.+8      	; 0x4bd8 <__fpcmp_parts_f+0x3a>
    4bd0:	92 30       	cpi	r25, 0x02	; 2
    4bd2:	31 f4       	brne	.+12     	; 0x4be0 <__fpcmp_parts_f+0x42>
    4bd4:	82 30       	cpi	r24, 0x02	; 2
    4bd6:	b9 f1       	breq	.+110    	; 0x4c46 <__fpcmp_parts_f+0xa8>
    4bd8:	81 81       	ldd	r24, Z+1	; 0x01
    4bda:	88 23       	and	r24, r24
    4bdc:	89 f1       	breq	.+98     	; 0x4c40 <__fpcmp_parts_f+0xa2>
    4bde:	2d c0       	rjmp	.+90     	; 0x4c3a <__fpcmp_parts_f+0x9c>
    4be0:	11 96       	adiw	r26, 0x01	; 1
    4be2:	1c 91       	ld	r17, X
    4be4:	11 97       	sbiw	r26, 0x01	; 1
    4be6:	82 30       	cpi	r24, 0x02	; 2
    4be8:	f1 f0       	breq	.+60     	; 0x4c26 <__fpcmp_parts_f+0x88>
    4bea:	81 81       	ldd	r24, Z+1	; 0x01
    4bec:	18 17       	cp	r17, r24
    4bee:	d9 f4       	brne	.+54     	; 0x4c26 <__fpcmp_parts_f+0x88>
    4bf0:	12 96       	adiw	r26, 0x02	; 2
    4bf2:	2d 91       	ld	r18, X+
    4bf4:	3c 91       	ld	r19, X
    4bf6:	13 97       	sbiw	r26, 0x03	; 3
    4bf8:	82 81       	ldd	r24, Z+2	; 0x02
    4bfa:	93 81       	ldd	r25, Z+3	; 0x03
    4bfc:	82 17       	cp	r24, r18
    4bfe:	93 07       	cpc	r25, r19
    4c00:	94 f0       	brlt	.+36     	; 0x4c26 <__fpcmp_parts_f+0x88>
    4c02:	28 17       	cp	r18, r24
    4c04:	39 07       	cpc	r19, r25
    4c06:	bc f0       	brlt	.+46     	; 0x4c36 <__fpcmp_parts_f+0x98>
    4c08:	14 96       	adiw	r26, 0x04	; 4
    4c0a:	8d 91       	ld	r24, X+
    4c0c:	9d 91       	ld	r25, X+
    4c0e:	0d 90       	ld	r0, X+
    4c10:	bc 91       	ld	r27, X
    4c12:	a0 2d       	mov	r26, r0
    4c14:	24 81       	ldd	r18, Z+4	; 0x04
    4c16:	35 81       	ldd	r19, Z+5	; 0x05
    4c18:	46 81       	ldd	r20, Z+6	; 0x06
    4c1a:	57 81       	ldd	r21, Z+7	; 0x07
    4c1c:	28 17       	cp	r18, r24
    4c1e:	39 07       	cpc	r19, r25
    4c20:	4a 07       	cpc	r20, r26
    4c22:	5b 07       	cpc	r21, r27
    4c24:	18 f4       	brcc	.+6      	; 0x4c2c <__fpcmp_parts_f+0x8e>
    4c26:	11 23       	and	r17, r17
    4c28:	41 f0       	breq	.+16     	; 0x4c3a <__fpcmp_parts_f+0x9c>
    4c2a:	0a c0       	rjmp	.+20     	; 0x4c40 <__fpcmp_parts_f+0xa2>
    4c2c:	82 17       	cp	r24, r18
    4c2e:	93 07       	cpc	r25, r19
    4c30:	a4 07       	cpc	r26, r20
    4c32:	b5 07       	cpc	r27, r21
    4c34:	40 f4       	brcc	.+16     	; 0x4c46 <__fpcmp_parts_f+0xa8>
    4c36:	11 23       	and	r17, r17
    4c38:	19 f0       	breq	.+6      	; 0x4c40 <__fpcmp_parts_f+0xa2>
    4c3a:	61 e0       	ldi	r22, 0x01	; 1
    4c3c:	70 e0       	ldi	r23, 0x00	; 0
    4c3e:	05 c0       	rjmp	.+10     	; 0x4c4a <__fpcmp_parts_f+0xac>
    4c40:	6f ef       	ldi	r22, 0xFF	; 255
    4c42:	7f ef       	ldi	r23, 0xFF	; 255
    4c44:	02 c0       	rjmp	.+4      	; 0x4c4a <__fpcmp_parts_f+0xac>
    4c46:	60 e0       	ldi	r22, 0x00	; 0
    4c48:	70 e0       	ldi	r23, 0x00	; 0
    4c4a:	cb 01       	movw	r24, r22
    4c4c:	1f 91       	pop	r17
    4c4e:	08 95       	ret

00004c50 <__udivmodhi4>:
    4c50:	aa 1b       	sub	r26, r26
    4c52:	bb 1b       	sub	r27, r27
    4c54:	51 e1       	ldi	r21, 0x11	; 17
    4c56:	07 c0       	rjmp	.+14     	; 0x4c66 <__udivmodhi4_ep>

00004c58 <__udivmodhi4_loop>:
    4c58:	aa 1f       	adc	r26, r26
    4c5a:	bb 1f       	adc	r27, r27
    4c5c:	a6 17       	cp	r26, r22
    4c5e:	b7 07       	cpc	r27, r23
    4c60:	10 f0       	brcs	.+4      	; 0x4c66 <__udivmodhi4_ep>
    4c62:	a6 1b       	sub	r26, r22
    4c64:	b7 0b       	sbc	r27, r23

00004c66 <__udivmodhi4_ep>:
    4c66:	88 1f       	adc	r24, r24
    4c68:	99 1f       	adc	r25, r25
    4c6a:	5a 95       	dec	r21
    4c6c:	a9 f7       	brne	.-22     	; 0x4c58 <__udivmodhi4_loop>
    4c6e:	80 95       	com	r24
    4c70:	90 95       	com	r25
    4c72:	bc 01       	movw	r22, r24
    4c74:	cd 01       	movw	r24, r26
    4c76:	08 95       	ret

00004c78 <__prologue_saves__>:
    4c78:	2f 92       	push	r2
    4c7a:	3f 92       	push	r3
    4c7c:	4f 92       	push	r4
    4c7e:	5f 92       	push	r5
    4c80:	6f 92       	push	r6
    4c82:	7f 92       	push	r7
    4c84:	8f 92       	push	r8
    4c86:	9f 92       	push	r9
    4c88:	af 92       	push	r10
    4c8a:	bf 92       	push	r11
    4c8c:	cf 92       	push	r12
    4c8e:	df 92       	push	r13
    4c90:	ef 92       	push	r14
    4c92:	ff 92       	push	r15
    4c94:	0f 93       	push	r16
    4c96:	1f 93       	push	r17
    4c98:	cf 93       	push	r28
    4c9a:	df 93       	push	r29
    4c9c:	cd b7       	in	r28, 0x3d	; 61
    4c9e:	de b7       	in	r29, 0x3e	; 62
    4ca0:	ca 1b       	sub	r28, r26
    4ca2:	db 0b       	sbc	r29, r27
    4ca4:	0f b6       	in	r0, 0x3f	; 63
    4ca6:	f8 94       	cli
    4ca8:	de bf       	out	0x3e, r29	; 62
    4caa:	0f be       	out	0x3f, r0	; 63
    4cac:	cd bf       	out	0x3d, r28	; 61
    4cae:	19 94       	eijmp

00004cb0 <__epilogue_restores__>:
    4cb0:	2a 88       	ldd	r2, Y+18	; 0x12
    4cb2:	39 88       	ldd	r3, Y+17	; 0x11
    4cb4:	48 88       	ldd	r4, Y+16	; 0x10
    4cb6:	5f 84       	ldd	r5, Y+15	; 0x0f
    4cb8:	6e 84       	ldd	r6, Y+14	; 0x0e
    4cba:	7d 84       	ldd	r7, Y+13	; 0x0d
    4cbc:	8c 84       	ldd	r8, Y+12	; 0x0c
    4cbe:	9b 84       	ldd	r9, Y+11	; 0x0b
    4cc0:	aa 84       	ldd	r10, Y+10	; 0x0a
    4cc2:	b9 84       	ldd	r11, Y+9	; 0x09
    4cc4:	c8 84       	ldd	r12, Y+8	; 0x08
    4cc6:	df 80       	ldd	r13, Y+7	; 0x07
    4cc8:	ee 80       	ldd	r14, Y+6	; 0x06
    4cca:	fd 80       	ldd	r15, Y+5	; 0x05
    4ccc:	0c 81       	ldd	r16, Y+4	; 0x04
    4cce:	1b 81       	ldd	r17, Y+3	; 0x03
    4cd0:	aa 81       	ldd	r26, Y+2	; 0x02
    4cd2:	b9 81       	ldd	r27, Y+1	; 0x01
    4cd4:	ce 0f       	add	r28, r30
    4cd6:	d1 1d       	adc	r29, r1
    4cd8:	0f b6       	in	r0, 0x3f	; 63
    4cda:	f8 94       	cli
    4cdc:	de bf       	out	0x3e, r29	; 62
    4cde:	0f be       	out	0x3f, r0	; 63
    4ce0:	cd bf       	out	0x3d, r28	; 61
    4ce2:	ed 01       	movw	r28, r26
    4ce4:	08 95       	ret

00004ce6 <_exit>:
    4ce6:	f8 94       	cli

00004ce8 <__stop_program>:
    4ce8:	ff cf       	rjmp	.-2      	; 0x4ce8 <__stop_program>
